; ModuleID = 'anchor_lang.708f61f7-cgu.0'
source_filename = "anchor_lang.708f61f7-cgu.0"
target datalayout = "e-m:e-p:64:64-i64:64-n32:64-S128"
target triple = "bpfel"

%"solana_program::pubkey::Pubkey" = type { [32 x i8] }
%"serde::de::impls::ArrayVisitor<[u8; 32]>" = type { %"std::marker::PhantomData<[u8; 32]>" }
%"std::marker::PhantomData<[u8; 32]>" = type {}
%"std::fmt::Formatter" = type { { i64, i64 }, { i64, i64 }, { {}*, [3 x i64]* }, i32, i32, i8, [7 x i8] }
%"std::result::Result<[u8; 32], std::boxed::Box<bincode::ErrorKind>>" = type { i8, [39 x i8] }
%"bincode::ErrorKind" = type { i8, [31 x i8] }
%"std::result::Result<std::option::Option<u8>, std::boxed::Box<bincode::ErrorKind>>" = type { i8, [15 x i8] }
%"std::result::Result<std::option::Option<u8>, std::boxed::Box<bincode::ErrorKind>>::Ok" = type { [1 x i8], { i8, i8 } }
%"std::result::Result<std::option::Option<u8>, std::boxed::Box<bincode::ErrorKind>>::Err" = type { [1 x i64], %"bincode::ErrorKind"* }
%"std::result::Result<[u8; 32], std::boxed::Box<bincode::ErrorKind>>::Err" = type { [1 x i64], %"bincode::ErrorKind"* }
%"std::option::Option<u8>::Some" = type { [1 x i8], i8 }
%"std::result::Result<[u8; 32], std::boxed::Box<bincode::ErrorKind>>::Ok" = type { [1 x i8], [32 x i8] }
%"std::vec::IntoIter<solana_program::account_info::AccountInfo>" = type { %"std::marker::PhantomData<solana_program::account_info::AccountInfo>", %"std::alloc::Global", i64*, i64, %"solana_program::account_info::AccountInfo"*, %"solana_program::account_info::AccountInfo"* }
%"std::marker::PhantomData<solana_program::account_info::AccountInfo>" = type {}
%"std::alloc::Global" = type {}
%"solana_program::account_info::AccountInfo" = type { %"solana_program::pubkey::Pubkey"*, i64*, i64*, %"solana_program::pubkey::Pubkey"*, i64, i8, i8, i8, [5 x i8] }
%"std::option::Option<usize>::Some" = type { [1 x i64], i64 }
%"std::panic::Location" = type { { [0 x i8]*, i64 }, i32, i32 }
%"std::vec::Vec<solana_program::account_info::AccountInfo>" = type { { i64*, i64 }, i64 }
%"std::vec::Vec<solana_program::instruction::AccountMeta>" = type { { i8*, i64 }, i64 }
%"std::vec::IntoIter<solana_program::instruction::AccountMeta>" = type { %"std::marker::PhantomData<solana_program::instruction::AccountMeta>", %"std::alloc::Global", i8*, i64, %"solana_program::instruction::AccountMeta"*, %"solana_program::instruction::AccountMeta"* }
%"std::marker::PhantomData<solana_program::instruction::AccountMeta>" = type {}
%"solana_program::instruction::AccountMeta" = type { %"solana_program::pubkey::Pubkey", i8, i8 }
%"std::result::Result<solana_program::bpf_loader_upgradeable::UpgradeableLoaderState, std::boxed::Box<bincode::ErrorKind>>" = type { i64, [6 x i64] }
%"std::result::Result<solana_program::pubkey::Pubkey, std::boxed::Box<bincode::ErrorKind>>" = type { i8, [39 x i8] }
%"std::result::Result<u32, std::boxed::Box<bincode::ErrorKind>>" = type { i32, [3 x i32] }
%"std::result::Result<u32, std::boxed::Box<bincode::ErrorKind>>::Err" = type { [1 x i64], %"bincode::ErrorKind"* }
%"std::result::Result<solana_program::bpf_loader_upgradeable::UpgradeableLoaderState, std::boxed::Box<bincode::ErrorKind>>::Err" = type { [1 x i64], %"bincode::ErrorKind"* }
%"std::result::Result<(solana_program::bpf_loader_upgradeable::_::<impl serde::de::Deserialize<'de> for solana_program::bpf_loader_upgradeable::UpgradeableLoaderState>::deserialize::__Field, &mut bincode::Deserializer<bincode::de::read::SliceReader, bincode::config::WithOtherLimit<bincode::config::WithOtherTrailing<bincode::config::WithOtherIntEncoding<bincode::DefaultOptions, bincode::config::FixintEncoding>, bincode::config::AllowTrailing>, bincode::config::Infinite>>), std::boxed::Box<bincode::ErrorKind>>" = type { i64, [2 x i64] }
%"std::result::Result<(solana_program::bpf_loader_upgradeable::_::<impl serde::de::Deserialize<'de> for solana_program::bpf_loader_upgradeable::UpgradeableLoaderState>::deserialize::__Field, &mut bincode::Deserializer<bincode::de::read::SliceReader, bincode::config::WithOtherLimit<bincode::config::WithOtherTrailing<bincode::config::WithOtherIntEncoding<bincode::DefaultOptions, bincode::config::FixintEncoding>, bincode::config::AllowTrailing>, bincode::config::Infinite>>), std::boxed::Box<bincode::ErrorKind>>::Err" = type { [1 x i64], %"bincode::ErrorKind"* }
%"std::result::Result<idl::IdlInstruction, std::io::Error>" = type { i64, [5 x i64] }
%"std::io::Error" = type { %"std::io::error::Repr" }
%"std::io::error::Repr" = type { i8, [15 x i8] }
%"std::result::Result<std::convert::Infallible, std::io::Error>::Err" = type { %"std::io::Error" }
%"std::result::Result<idl::IdlInstruction, std::io::Error>::Err" = type { [1 x i64], %"std::io::Error" }
%"std::result::Result<ctor::Ctor, solana_program::program_error::ProgramError>" = type { i64, [30 x i64] }
%"std::result::Result<std::convert::Infallible, solana_program::program_error::ProgramError>::Err" = type { %"solana_program::program_error::ProgramError" }
%"solana_program::program_error::ProgramError" = type { i32, [7 x i32] }
%"std::result::Result<ctor::Ctor, solana_program::program_error::ProgramError>::Err" = type { [1 x i64], %"solana_program::program_error::ProgramError" }
%"std::result::Result<(), std::io::Error>" = type { i8, [15 x i8] }
%"std::result::Result<(), std::io::Error>::Err" = type { %"std::io::Error" }
%"std::result::Result<idl::IdlCreateBuffer, solana_program::program_error::ProgramError>" = type { i64, [7 x i64] }
%"std::result::Result<idl::IdlCreateBuffer, solana_program::program_error::ProgramError>::Err" = type { [1 x i64], %"solana_program::program_error::ProgramError" }
%"std::result::Result<accounts::program_account::ProgramAccount<idl::IdlAccount>, solana_program::program_error::ProgramError>" = type { i64, [4 x i64] }
%"std::result::Result<accounts::program_account::ProgramAccount<idl::IdlAccount>, solana_program::program_error::ProgramError>::Err" = type { [1 x i64], %"solana_program::program_error::ProgramError" }
%"std::result::Result<idl::IdlSetBuffer, solana_program::program_error::ProgramError>" = type { i64, [8 x i64] }
%"std::result::Result<idl::IdlSetBuffer, solana_program::program_error::ProgramError>::Err" = type { [1 x i64], %"solana_program::program_error::ProgramError" }
%"std::result::Result<(), solana_program::program_error::ProgramError>" = type { i32, [7 x i32] }
%"std::result::Result<(), solana_program::program_error::ProgramError>::Err" = type { %"solana_program::program_error::ProgramError" }
%"std::result::Result<std::option::Option<std::option::Option<solana_program::pubkey::Pubkey>>, std::boxed::Box<bincode::ErrorKind>>" = type { i8, [39 x i8] }
%"std::result::Result<std::option::Option<std::option::Option<solana_program::pubkey::Pubkey>>, std::boxed::Box<bincode::ErrorKind>>::Err" = type { [1 x i64], %"bincode::ErrorKind"* }
%"std::result::Result<idl::IdlAccounts, solana_program::program_error::ProgramError>" = type { i64, [7 x i64] }
%"std::result::Result<idl::IdlAccounts, solana_program::program_error::ProgramError>::Err" = type { [1 x i64], %"solana_program::program_error::ProgramError" }
%"std::result::Result<bpf_upgradeable_state::ProgramData, solana_program::program_error::ProgramError>" = type { i64, [6 x i64] }
%"std::result::Result<bpf_upgradeable_state::ProgramData, solana_program::program_error::ProgramError>::Err" = type { [1 x i64], %"solana_program::program_error::ProgramError" }
%"std::result::Result<std::option::Option<solana_program::pubkey::Pubkey>, std::boxed::Box<bincode::ErrorKind>>" = type { i8, [39 x i8] }
%"std::result::Result<std::option::Option<solana_program::pubkey::Pubkey>, std::boxed::Box<bincode::ErrorKind>>::Err" = type { [1 x i64], %"bincode::ErrorKind"* }
%"std::result::Result<idl::IdlAccount, std::io::Error>" = type { i64, [7 x i64] }
%"std::result::Result<idl::IdlAccount, std::io::Error>::Err" = type { [1 x i64], %"std::io::Error" }
%"solana_program::pubkey::_::<impl serde::de::Deserialize<'de> for solana_program::pubkey::Pubkey>::deserialize::__Visitor" = type { %"std::marker::PhantomData<solana_program::pubkey::Pubkey>", %"std::marker::PhantomData<&()>" }
%"std::marker::PhantomData<solana_program::pubkey::Pubkey>" = type {}
%"std::marker::PhantomData<&()>" = type {}
%"std::result::Result<solana_program::pubkey::Pubkey, std::boxed::Box<bincode::ErrorKind>>::Ok" = type { [1 x i8], %"solana_program::pubkey::Pubkey" }
%"std::result::Result<solana_program::pubkey::Pubkey, std::boxed::Box<bincode::ErrorKind>>::Err" = type { [1 x i64], %"bincode::ErrorKind"* }
%"std::marker::PhantomData<std::option::Option<solana_program::pubkey::Pubkey>>" = type {}
%"std::option::Option<std::option::Option<solana_program::pubkey::Pubkey>>" = type { i8, [32 x i8] }
%"std::option::Option<solana_program::pubkey::Pubkey>" = type { i8, [32 x i8] }
%"std::ops::ControlFlow<std::result::Result<std::convert::Infallible, std::boxed::Box<bincode::ErrorKind>>, std::option::Option<solana_program::pubkey::Pubkey>>" = type { i8, [39 x i8] }
%"std::result::Result<std::option::Option<std::option::Option<solana_program::pubkey::Pubkey>>, std::boxed::Box<bincode::ErrorKind>>::Ok" = type { [1 x i8], %"std::option::Option<std::option::Option<solana_program::pubkey::Pubkey>>" }
%"std::ops::ControlFlow<std::result::Result<std::convert::Infallible, std::boxed::Box<bincode::ErrorKind>>, std::option::Option<solana_program::pubkey::Pubkey>>::Continue" = type { [1 x i8], %"std::option::Option<solana_program::pubkey::Pubkey>" }
%"std::option::Option<std::option::Option<solana_program::pubkey::Pubkey>>::Some" = type { %"std::option::Option<solana_program::pubkey::Pubkey>" }
%"std::ops::ControlFlow<std::result::Result<std::convert::Infallible, std::boxed::Box<bincode::ErrorKind>>, std::option::Option<solana_program::pubkey::Pubkey>>::Break" = type { [1 x i64], i64* }
%"std::marker::PhantomData<u8>" = type {}
%"std::result::Result<u8, std::boxed::Box<bincode::ErrorKind>>" = type { i8, [15 x i8] }
%"std::ops::ControlFlow<std::result::Result<std::convert::Infallible, std::boxed::Box<bincode::ErrorKind>>, u8>" = type { i8, [15 x i8] }
%"std::ops::ControlFlow<std::result::Result<std::convert::Infallible, std::boxed::Box<bincode::ErrorKind>>, u8>::Continue" = type { [1 x i8], i8 }
%"std::ops::ControlFlow<std::result::Result<std::convert::Infallible, std::boxed::Box<bincode::ErrorKind>>, u8>::Break" = type { [1 x i64], i64* }
%"std::result::Result<std::option::Option<u64>, std::boxed::Box<bincode::ErrorKind>>" = type { i64, [2 x i64] }
%"std::marker::PhantomData<u64>" = type {}
%"std::result::Result<u64, std::boxed::Box<bincode::ErrorKind>>" = type { i64, [1 x i64] }
%"std::ops::ControlFlow<std::result::Result<std::convert::Infallible, std::boxed::Box<bincode::ErrorKind>>, u64>" = type { i64, [1 x i64] }
%"std::result::Result<std::option::Option<u64>, std::boxed::Box<bincode::ErrorKind>>::Ok" = type { [1 x i64], { i64, i64 } }
%"std::ops::ControlFlow<std::result::Result<std::convert::Infallible, std::boxed::Box<bincode::ErrorKind>>, u64>::Continue" = type { [1 x i64], i64 }
%"std::option::Option<u64>::Some" = type { [1 x i64], i64 }
%"std::ops::ControlFlow<std::result::Result<std::convert::Infallible, std::boxed::Box<bincode::ErrorKind>>, u64>::Break" = type { [1 x i64], i64* }
%"std::ops::ControlFlow<std::result::Result<std::convert::Infallible, std::boxed::Box<bincode::ErrorKind>>, solana_program::pubkey::Pubkey>" = type { i8, [39 x i8] }
%"std::result::Result<std::option::Option<solana_program::pubkey::Pubkey>, std::boxed::Box<bincode::ErrorKind>>::Ok" = type { [1 x i8], %"std::option::Option<solana_program::pubkey::Pubkey>" }
%"std::ops::ControlFlow<std::result::Result<std::convert::Infallible, std::boxed::Box<bincode::ErrorKind>>, solana_program::pubkey::Pubkey>::Continue" = type { [1 x i8], %"solana_program::pubkey::Pubkey" }
%"std::option::Option<solana_program::pubkey::Pubkey>::Some" = type { [1 x i8], %"solana_program::pubkey::Pubkey" }
%"std::ops::ControlFlow<std::result::Result<std::convert::Infallible, std::boxed::Box<bincode::ErrorKind>>, solana_program::pubkey::Pubkey>::Break" = type { [1 x i64], i64* }
%"solana_program::bpf_loader_upgradeable::_::<impl serde::de::Deserialize<'de> for solana_program::bpf_loader_upgradeable::UpgradeableLoaderState>::deserialize::__Visitor" = type { %"std::marker::PhantomData<solana_program::bpf_loader_upgradeable::UpgradeableLoaderState>", %"std::marker::PhantomData<&()>" }
%"std::marker::PhantomData<solana_program::bpf_loader_upgradeable::UpgradeableLoaderState>" = type {}
%"solana_program::bpf_loader_upgradeable::UpgradeableLoaderState" = type { i8, [47 x i8] }
%"std::result::Result<(solana_program::bpf_loader_upgradeable::_::<impl serde::de::Deserialize<'de> for solana_program::bpf_loader_upgradeable::UpgradeableLoaderState>::deserialize::__Field, &mut bincode::Deserializer<bincode::de::read::SliceReader, bincode::config::WithOtherLimit<bincode::config::WithOtherTrailing<bincode::config::WithOtherIntEncoding<bincode::DefaultOptions, bincode::config::FixintEncoding>, bincode::config::AllowTrailing>, bincode::config::Infinite>>), std::boxed::Box<bincode::ErrorKind>>::Ok" = type { [1 x i64], { i8, i64* } }
%"std::result::Result<solana_program::bpf_loader_upgradeable::UpgradeableLoaderState, std::boxed::Box<bincode::ErrorKind>>::Ok" = type { [1 x i64], %"solana_program::bpf_loader_upgradeable::UpgradeableLoaderState" }
%"std::result::Result<solana_program::bpf_loader_upgradeable::_::<impl serde::de::Deserialize<'de> for solana_program::bpf_loader_upgradeable::UpgradeableLoaderState>::deserialize::__Field, std::boxed::Box<bincode::ErrorKind>>" = type { i8, [15 x i8] }
%"solana_program::bpf_loader_upgradeable::_::<impl serde::de::Deserialize<'de> for solana_program::bpf_loader_upgradeable::UpgradeableLoaderState>::deserialize::__FieldVisitor" = type {}
%"serde::de::Unexpected" = type { i8, [23 x i8] }
%"serde::de::Unexpected::Unsigned" = type { [1 x i64], i64 }
%"std::result::Result<solana_program::bpf_loader_upgradeable::_::<impl serde::de::Deserialize<'de> for solana_program::bpf_loader_upgradeable::UpgradeableLoaderState>::deserialize::__Field, std::boxed::Box<bincode::ErrorKind>>::Ok" = type { [1 x i8], i8 }
%"std::result::Result<solana_program::bpf_loader_upgradeable::_::<impl serde::de::Deserialize<'de> for solana_program::bpf_loader_upgradeable::UpgradeableLoaderState>::deserialize::__Field, std::boxed::Box<bincode::ErrorKind>>::Err" = type { [1 x i64], %"bincode::ErrorKind"* }
%"<solana_program::bpf_loader_upgradeable::_::<impl serde::de::Deserialize<'de> for solana_program::bpf_loader_upgradeable::UpgradeableLoaderState>::deserialize::__Visitor<'de> as serde::de::Visitor<'de>>::visit_enum::__Visitor.0" = type { %"std::marker::PhantomData<solana_program::bpf_loader_upgradeable::UpgradeableLoaderState>", %"std::marker::PhantomData<&()>" }
%"solana_program::bpf_loader_upgradeable::UpgradeableLoaderState::Program" = type { [1 x i8], %"solana_program::pubkey::Pubkey" }
%"<solana_program::bpf_loader_upgradeable::_::<impl serde::de::Deserialize<'de> for solana_program::bpf_loader_upgradeable::UpgradeableLoaderState>::deserialize::__Visitor<'de> as serde::de::Visitor<'de>>::visit_enum::__Visitor.1" = type { %"std::marker::PhantomData<solana_program::bpf_loader_upgradeable::UpgradeableLoaderState>", %"std::marker::PhantomData<&()>" }
%"std::result::Result<std::option::Option<u64>, std::boxed::Box<bincode::ErrorKind>>::Err" = type { [1 x i64], %"bincode::ErrorKind"* }
%"solana_program::bpf_loader_upgradeable::UpgradeableLoaderState::ProgramData" = type { [1 x i8], %"std::option::Option<solana_program::pubkey::Pubkey>", [6 x i8], i64 }
%"<solana_program::bpf_loader_upgradeable::_::<impl serde::de::Deserialize<'de> for solana_program::bpf_loader_upgradeable::UpgradeableLoaderState>::deserialize::__Visitor<'de> as serde::de::Visitor<'de>>::visit_enum::__Visitor" = type { %"std::marker::PhantomData<solana_program::bpf_loader_upgradeable::UpgradeableLoaderState>", %"std::marker::PhantomData<&()>" }
%"solana_program::bpf_loader_upgradeable::UpgradeableLoaderState::Buffer" = type { [1 x i8], %"std::option::Option<solana_program::pubkey::Pubkey>" }
%"std::io::Cursor<&mut [u8]>" = type { { [0 x i8]*, i64 }, i64 }
%"std::result::Result<usize, std::io::Error>" = type { i64, [2 x i64] }
%"std::result::Result<usize, std::io::Error>::Ok" = type { [1 x i64], i64 }
%"std::result::Result<usize, std::io::Error>::Err" = type { [1 x i64], %"std::io::Error" }
%"std::io::error::Custom" = type { { {}*, [3 x i64]* }, i8, [7 x i8] }
%"std::io::error::Repr::Os" = type { [1 x i32], i32 }
%"std::io::error::Repr::Simple" = type { [1 x i8], i8 }
%"std::io::error::Repr::SimpleMessage" = type { [1 x i8], i8, [6 x i8], { [0 x i8]*, i64 }* }
%"std::io::error::Repr::Custom" = type { [1 x i64], %"std::io::error::Custom"* }
%"std::ops::ControlFlow<std::result::Result<std::convert::Infallible, std::io::Error>, usize>" = type { i64, [2 x i64] }
%"std::ops::ControlFlow<std::result::Result<std::convert::Infallible, std::io::Error>, usize>::Continue" = type { [1 x i64], i64 }
%"std::ops::ControlFlow<std::result::Result<std::convert::Infallible, std::io::Error>, usize>::Break" = type { [1 x i64], %"std::result::Result<std::convert::Infallible, std::io::Error>::Err" }
%"std::error::private::Internal" = type {}
%"core::fmt::Opaque" = type {}
%"std::fmt::Arguments" = type { { [0 x { [0 x i8]*, i64 }]*, i64 }, { i64*, i64 }, { [0 x { i8*, i64* }]*, i64 } }
%"std::rc::RcBox<std::cell::RefCell<&mut [u8]>>" = type { i64, i64, %"std::cell::RefCell<&mut [u8]>" }
%"std::cell::RefCell<&mut [u8]>" = type { i64, { i8*, i64 } }
%"std::rc::RcBox<std::cell::RefCell<&mut u64>>" = type { i64, i64, { i64, i64* } }
%"accounts::program_account::Inner<idl::IdlAccount>" = type { %"solana_program::account_info::AccountInfo", %"idl::IdlAccount" }
%"idl::IdlAccount" = type { %"std::vec::Vec<u8>", %"solana_program::pubkey::Pubkey" }
%"std::vec::Vec<u8>" = type { { i8*, i64 }, i64 }
%"std::cell::BorrowMutError" = type {}
%"std::ptr::metadata::PtrRepr<[solana_program::account_info::AccountInfo]>" = type { [2 x i64] }
%"std::option::Option<std::fmt::Arguments>" = type { {}*, [5 x i64] }
%"std::ops::RangeFull" = type {}
%"std::result::Result<solana_program::pubkey::Pubkey, solana_program::pubkey::PubkeyError>" = type { i8, [32 x i8] }
%"std::result::Result<solana_program::pubkey::Pubkey, solana_program::pubkey::PubkeyError>::Ok" = type { [1 x i8], %"solana_program::pubkey::Pubkey" }
%"std::result::Result<solana_program::pubkey::Pubkey, solana_program::pubkey::PubkeyError>::Err" = type { [1 x i8], i8 }
%"std::num::TryFromIntError" = type { {} }
%"[closure@<[u8] as borsh::BorshSerialize>::serialize<std::io::Cursor<&mut [u8]>>::{closure#0}]" = type {}
%"std::result::Result<u32, std::io::ErrorKind>" = type { i8, [7 x i8] }
%"std::result::Result<u32, std::num::TryFromIntError>::Ok" = type { [1 x i32], i32 }
%"std::result::Result<u32, std::io::ErrorKind>::Ok" = type { [1 x i32], i32 }
%"std::result::Result<u32, std::io::ErrorKind>::Err" = type { [1 x i8], i8 }
%"[closure@/root/.cargo/registry/src/github.com-1ecc6299db9ec823/anchor-lang-0.20.1/src/idl.rs:89:1: 89:23]" = type {}
%"std::result::Result<(), error::ErrorCode>::Ok" = type { {} }
%"std::result::Result<u32, std::io::Error>" = type { i32, [5 x i32] }
%"std::result::Result<u32, std::io::Error>::Ok" = type { [1 x i32], i32 }
%"std::result::Result<u32, std::boxed::Box<bincode::ErrorKind>>::Ok" = type { [1 x i32], i32 }
%"std::result::Result<u32, std::io::Error>::Err" = type { [1 x i64], %"std::io::Error" }
%"std::result::Result<solana_program::bpf_loader_upgradeable::UpgradeableLoaderState, solana_program::program_error::ProgramError>" = type { i64, [6 x i64] }
%"[closure@/root/.cargo/registry/src/github.com-1ecc6299db9ec823/anchor-lang-0.20.1/src/bpf_upgradeable_state.rs:80:43: 80:79]" = type {}
%"std::result::Result<solana_program::bpf_loader_upgradeable::UpgradeableLoaderState, solana_program::program_error::ProgramError>::Ok" = type { [1 x i64], %"solana_program::bpf_loader_upgradeable::UpgradeableLoaderState" }
%"std::result::Result<solana_program::bpf_loader_upgradeable::UpgradeableLoaderState, solana_program::program_error::ProgramError>::Err" = type { [1 x i64], %"solana_program::program_error::ProgramError" }
%"[closure@/root/.cargo/registry/src/github.com-1ecc6299db9ec823/anchor-lang-0.20.1/src/idl.rs:89:1: 89:23].2" = type {}
%"std::result::Result<idl::IdlAccount, solana_program::program_error::ProgramError>" = type { i64, [7 x i64] }
%"[closure@/root/.cargo/registry/src/github.com-1ecc6299db9ec823/anchor-lang-0.20.1/src/idl.rs:89:1: 89:23].3" = type {}
%"std::result::Result<idl::IdlAccount, std::io::Error>::Ok" = type { [1 x i64], %"idl::IdlAccount" }
%"std::result::Result<idl::IdlAccount, solana_program::program_error::ProgramError>::Ok" = type { [1 x i64], %"idl::IdlAccount" }
%"std::result::Result<idl::IdlAccount, solana_program::program_error::ProgramError>::Err" = type { [1 x i64], %"solana_program::program_error::ProgramError" }
%"[closure@/root/.cargo/registry/src/github.com-1ecc6299db9ec823/anchor-lang-0.20.1/src/common.rs:22:18: 22:55]" = type {}
%"error::Error" = type { i32, [9 x i32] }
%"std::result::Result<u8, std::io::Error>" = type { i8, [23 x i8] }
%"std::result::Result<u8, std::io::Error>::Err" = type { [1 x i64], %"std::io::Error" }
%"std::result::Result<u8, std::io::Error>::Ok" = type { [1 x i8], i8 }
%"std::result::Result<u64, std::io::Error>" = type { i64, [2 x i64] }
%"std::result::Result<[u8; 8], std::array::TryFromSliceError>" = type { i8, [8 x i8] }
%"std::result::Result<u64, std::io::Error>::Err" = type { [1 x i64], %"std::io::Error" }
%"std::result::Result<u64, std::io::Error>::Ok" = type { [1 x i64], i64 }
%"std::ops::ControlFlow<std::result::Result<std::convert::Infallible, std::io::ErrorKind>, u32>" = type { i8, [7 x i8] }
%"std::ops::ControlFlow<std::result::Result<std::convert::Infallible, std::io::Error>>" = type { i8, [15 x i8] }
%"std::ops::ControlFlow<std::result::Result<std::convert::Infallible, std::io::ErrorKind>, u32>::Continue" = type { [1 x i32], i32 }
%"std::ops::ControlFlow<std::result::Result<std::convert::Infallible, std::io::ErrorKind>, u32>::Break" = type { [1 x i8], i8 }
%"std::ops::ControlFlow<std::result::Result<std::convert::Infallible, std::io::Error>>::Break" = type { %"std::result::Result<std::convert::Infallible, std::io::Error>::Err" }
%"std::result::Result<std::convert::Infallible, std::alloc::AllocError>::Err" = type { %"std::alloc::AllocError" }
%"std::alloc::AllocError" = type {}
%"std::option::Option<(std::ptr::NonNull<u8>, std::alloc::Layout)>" = type { {}*, [2 x i64] }
%"std::option::Option<(std::ptr::NonNull<u8>, std::alloc::Layout)>::Some" = type { { i8*, { i64, i64 } } }
%"std::ops::ControlFlow<std::result::Result<std::convert::Infallible, std::boxed::Box<bincode::ErrorKind>>, solana_program::bpf_loader_upgradeable::_::<impl serde::de::Deserialize<'de> for solana_program::bpf_loader_upgradeable::UpgradeableLoaderState>::deserialize::__Field>" = type { i8, [15 x i8] }
%"std::ops::ControlFlow<std::result::Result<std::convert::Infallible, std::boxed::Box<bincode::ErrorKind>>, solana_program::bpf_loader_upgradeable::_::<impl serde::de::Deserialize<'de> for solana_program::bpf_loader_upgradeable::UpgradeableLoaderState>::deserialize::__Field>::Continue" = type { [1 x i8], i8 }
%"std::ops::ControlFlow<std::result::Result<std::convert::Infallible, std::boxed::Box<bincode::ErrorKind>>, solana_program::bpf_loader_upgradeable::_::<impl serde::de::Deserialize<'de> for solana_program::bpf_loader_upgradeable::UpgradeableLoaderState>::deserialize::__Field>::Break" = type { [1 x i64], i64* }
%"std::ops::ControlFlow<std::result::Result<std::convert::Infallible, solana_program::program_error::ProgramError>, usize>" = type { i64, [4 x i64] }
%"std::result::Result<usize, solana_program::program_error::ProgramError>" = type { i64, [4 x i64] }
%"std::result::Result<usize, solana_program::program_error::ProgramError>::Ok" = type { [1 x i64], i64 }
%"std::ops::ControlFlow<std::result::Result<std::convert::Infallible, solana_program::program_error::ProgramError>, usize>::Continue" = type { [1 x i64], i64 }
%"std::result::Result<usize, solana_program::program_error::ProgramError>::Err" = type { [1 x i64], %"solana_program::program_error::ProgramError" }
%"std::ops::ControlFlow<std::result::Result<std::convert::Infallible, solana_program::program_error::ProgramError>, usize>::Break" = type { [1 x i64], %"std::result::Result<std::convert::Infallible, solana_program::program_error::ProgramError>::Err" }
%"std::ops::ControlFlow<std::result::Result<std::convert::Infallible, solana_program::program_error::ProgramError>, accounts::program_account::ProgramAccount<idl::IdlAccount>>" = type { i64, [4 x i64] }
%"std::result::Result<accounts::program_account::ProgramAccount<idl::IdlAccount>, solana_program::program_error::ProgramError>::Ok" = type { [1 x i64], i64* }
%"std::ops::ControlFlow<std::result::Result<std::convert::Infallible, solana_program::program_error::ProgramError>, accounts::program_account::ProgramAccount<idl::IdlAccount>>::Continue" = type { [1 x i64], i64* }
%"std::ops::ControlFlow<std::result::Result<std::convert::Infallible, solana_program::program_error::ProgramError>, accounts::program_account::ProgramAccount<idl::IdlAccount>>::Break" = type { [1 x i64], %"std::result::Result<std::convert::Infallible, solana_program::program_error::ProgramError>::Err" }
%"std::ops::ControlFlow<std::result::Result<std::convert::Infallible, std::boxed::Box<bincode::ErrorKind>>, solana_program::bpf_loader_upgradeable::UpgradeableLoaderState>" = type { i64, [6 x i64] }
%"std::ops::ControlFlow<std::result::Result<std::convert::Infallible, std::boxed::Box<bincode::ErrorKind>>, solana_program::bpf_loader_upgradeable::UpgradeableLoaderState>::Continue" = type { [1 x i64], %"solana_program::bpf_loader_upgradeable::UpgradeableLoaderState" }
%"std::ops::ControlFlow<std::result::Result<std::convert::Infallible, std::boxed::Box<bincode::ErrorKind>>, solana_program::bpf_loader_upgradeable::UpgradeableLoaderState>::Break" = type { [1 x i64], i64* }
%"std::ops::ControlFlow<std::result::Result<std::convert::Infallible, std::boxed::Box<bincode::ErrorKind>>, u32>" = type { i32, [3 x i32] }
%"std::ops::ControlFlow<std::result::Result<std::convert::Infallible, std::boxed::Box<bincode::ErrorKind>>, u32>::Continue" = type { [1 x i32], i32 }
%"std::ops::ControlFlow<std::result::Result<std::convert::Infallible, std::boxed::Box<bincode::ErrorKind>>, u32>::Break" = type { [1 x i64], i64* }
%"std::ops::ControlFlow<std::result::Result<std::convert::Infallible, solana_program::program_error::ProgramError>, solana_program::account_info::AccountInfo>" = type { i64, [6 x i64] }
%"std::result::Result<solana_program::account_info::AccountInfo, solana_program::program_error::ProgramError>" = type { i64, [6 x i64] }
%"std::result::Result<solana_program::account_info::AccountInfo, solana_program::program_error::ProgramError>::Ok" = type { [1 x i64], %"solana_program::account_info::AccountInfo" }
%"std::ops::ControlFlow<std::result::Result<std::convert::Infallible, solana_program::program_error::ProgramError>, solana_program::account_info::AccountInfo>::Continue" = type { [1 x i64], %"solana_program::account_info::AccountInfo" }
%"std::result::Result<solana_program::account_info::AccountInfo, solana_program::program_error::ProgramError>::Err" = type { [1 x i64], %"solana_program::program_error::ProgramError" }
%"std::ops::ControlFlow<std::result::Result<std::convert::Infallible, solana_program::program_error::ProgramError>, solana_program::account_info::AccountInfo>::Break" = type { [1 x i64], %"std::result::Result<std::convert::Infallible, solana_program::program_error::ProgramError>::Err" }
%"std::ops::ControlFlow<std::result::Result<std::convert::Infallible, solana_program::program_error::ProgramError>, solana_program::rent::Rent>" = type { i64, [4 x i64] }
%"std::result::Result<solana_program::rent::Rent, solana_program::program_error::ProgramError>" = type { i64, [4 x i64] }
%"solana_program::rent::Rent" = type { i64, double, i8, [7 x i8] }
%"std::result::Result<solana_program::rent::Rent, solana_program::program_error::ProgramError>::Ok" = type { [1 x i64], %"solana_program::rent::Rent" }
%"std::ops::ControlFlow<std::result::Result<std::convert::Infallible, solana_program::program_error::ProgramError>, solana_program::rent::Rent>::Continue" = type { [1 x i64], %"solana_program::rent::Rent" }
%"std::result::Result<solana_program::rent::Rent, solana_program::program_error::ProgramError>::Err" = type { [1 x i64], %"solana_program::program_error::ProgramError" }
%"std::ops::ControlFlow<std::result::Result<std::convert::Infallible, solana_program::program_error::ProgramError>, solana_program::rent::Rent>::Break" = type { [1 x i64], %"std::result::Result<std::convert::Infallible, solana_program::program_error::ProgramError>::Err" }
%"std::ops::ControlFlow<std::result::Result<std::convert::Infallible, solana_program::program_error::ProgramError>, idl::IdlAccount>" = type { i64, [7 x i64] }
%"std::ops::ControlFlow<std::result::Result<std::convert::Infallible, solana_program::program_error::ProgramError>, idl::IdlAccount>::Continue" = type { [1 x i64], %"idl::IdlAccount" }
%"std::ops::ControlFlow<std::result::Result<std::convert::Infallible, solana_program::program_error::ProgramError>, idl::IdlAccount>::Break" = type { [1 x i64], %"std::result::Result<std::convert::Infallible, solana_program::program_error::ProgramError>::Err" }
%"std::ops::ControlFlow<std::result::Result<std::convert::Infallible, solana_program::program_error::ProgramError>, solana_program::bpf_loader_upgradeable::UpgradeableLoaderState>" = type { i64, [6 x i64] }
%"std::ops::ControlFlow<std::result::Result<std::convert::Infallible, solana_program::program_error::ProgramError>, solana_program::bpf_loader_upgradeable::UpgradeableLoaderState>::Continue" = type { [1 x i64], %"solana_program::bpf_loader_upgradeable::UpgradeableLoaderState" }
%"std::ops::ControlFlow<std::result::Result<std::convert::Infallible, solana_program::program_error::ProgramError>, solana_program::bpf_loader_upgradeable::UpgradeableLoaderState>::Break" = type { [1 x i64], %"std::result::Result<std::convert::Infallible, solana_program::program_error::ProgramError>::Err" }
%"std::ops::ControlFlow<std::result::Result<std::convert::Infallible, error::ErrorCode>>::Continue" = type { {} }
%"std::ops::ControlFlow<std::result::Result<std::convert::Infallible, solana_program::program_error::ProgramError>>" = type { i32, [7 x i32] }
%"std::ops::ControlFlow<std::result::Result<std::convert::Infallible, solana_program::program_error::ProgramError>>::Continue" = type { {} }
%"std::ops::ControlFlow<std::result::Result<std::convert::Infallible, solana_program::program_error::ProgramError>>::Break" = type { %"std::result::Result<std::convert::Infallible, solana_program::program_error::ProgramError>::Err" }
%"serde::de::impls::OptionVisitor<solana_program::pubkey::Pubkey>" = type { %"std::marker::PhantomData<solana_program::pubkey::Pubkey>" }
%"bincode::config::WithOtherTrailing<bincode::config::WithOtherIntEncoding<bincode::DefaultOptions, bincode::config::FixintEncoding>, bincode::config::AllowTrailing>" = type { %"bincode::config::WithOtherIntEncoding<bincode::DefaultOptions, bincode::config::FixintEncoding>", %"std::marker::PhantomData<bincode::config::AllowTrailing>" }
%"bincode::config::WithOtherIntEncoding<bincode::DefaultOptions, bincode::config::FixintEncoding>" = type { %"bincode::DefaultOptions", %"std::marker::PhantomData<bincode::config::FixintEncoding>" }
%"bincode::DefaultOptions" = type { %"bincode::config::Infinite" }
%"bincode::config::Infinite" = type {}
%"std::marker::PhantomData<bincode::config::FixintEncoding>" = type {}
%"std::marker::PhantomData<bincode::config::AllowTrailing>" = type {}
%"bincode::config::WithOtherLimit<bincode::config::WithOtherTrailing<bincode::config::WithOtherIntEncoding<bincode::DefaultOptions, bincode::config::FixintEncoding>, bincode::config::AllowTrailing>, bincode::config::Infinite>" = type { %"bincode::config::WithOtherTrailing<bincode::config::WithOtherIntEncoding<bincode::DefaultOptions, bincode::config::FixintEncoding>, bincode::config::AllowTrailing>", %"bincode::config::Infinite" }
%"std::marker::PhantomData<solana_program::bpf_loader_upgradeable::_::<impl serde::de::Deserialize<'de> for solana_program::bpf_loader_upgradeable::UpgradeableLoaderState>::deserialize::__Field>" = type {}
%"std::mem::ManuallyDrop<std::vec::Vec<solana_program::account_info::AccountInfo>>" = type { %"std::vec::Vec<solana_program::account_info::AccountInfo>" }
%"bincode::ErrorKind::InvalidTagEncoding" = type { [1 x i64], i64 }
%"std::result::Result<std::cell::Ref<&mut [u8]>, solana_program::program_error::ProgramError>" = type { i64, [4 x i64] }
%"std::ops::ControlFlow<std::result::Result<std::convert::Infallible, solana_program::program_error::ProgramError>, std::cell::Ref<&mut [u8]>>" = type { i64, [4 x i64] }
%"std::ops::ControlFlow<std::result::Result<std::convert::Infallible, solana_program::program_error::ProgramError>, std::cell::Ref<&mut [u8]>>::Continue" = type { [1 x i64], { i64*, i64* } }
%"std::ops::ControlFlow<std::result::Result<std::convert::Infallible, solana_program::program_error::ProgramError>, std::cell::Ref<&mut [u8]>>::Break" = type { [1 x i64], %"std::result::Result<std::convert::Infallible, solana_program::program_error::ProgramError>::Err" }
%"std::result::Result<std::cell::RefMut<&mut [u8]>, solana_program::program_error::ProgramError>" = type { i64, [4 x i64] }
%"std::ops::ControlFlow<std::result::Result<std::convert::Infallible, solana_program::program_error::ProgramError>, std::cell::RefMut<&mut [u8]>>" = type { i64, [4 x i64] }
%"std::ops::ControlFlow<std::result::Result<std::convert::Infallible, solana_program::program_error::ProgramError>, std::cell::RefMut<&mut [u8]>>::Continue" = type { [1 x i64], { i64*, i64* } }
%"std::ops::ControlFlow<std::result::Result<std::convert::Infallible, solana_program::program_error::ProgramError>, std::cell::RefMut<&mut [u8]>>::Break" = type { [1 x i64], %"std::result::Result<std::convert::Infallible, solana_program::program_error::ProgramError>::Err" }
%"accounts::signer::Signer" = type { %"solana_program::account_info::AccountInfo" }
%"std::result::Result<accounts::signer::Signer, solana_program::program_error::ProgramError>" = type { i64, [6 x i64] }
%"std::result::Result<accounts::signer::Signer, solana_program::program_error::ProgramError>::Err" = type { [1 x i64], %"solana_program::program_error::ProgramError" }
%"std::result::Result<accounts::signer::Signer, solana_program::program_error::ProgramError>::Ok" = type { [1 x i64], %"accounts::signer::Signer" }
%"accounts::system_account::SystemAccount" = type { %"solana_program::account_info::AccountInfo" }
%"std::result::Result<accounts::system_account::SystemAccount, solana_program::program_error::ProgramError>" = type { i64, [6 x i64] }
%"std::result::Result<accounts::system_account::SystemAccount, solana_program::program_error::ProgramError>::Err" = type { [1 x i64], %"solana_program::program_error::ProgramError" }
%"std::result::Result<accounts::system_account::SystemAccount, solana_program::program_error::ProgramError>::Ok" = type { [1 x i64], %"accounts::system_account::SystemAccount" }
%"accounts::unchecked_account::UncheckedAccount" = type { %"solana_program::account_info::AccountInfo" }
%"std::result::Result<accounts::unchecked_account::UncheckedAccount, solana_program::program_error::ProgramError>" = type { i64, [6 x i64] }
%"std::result::Result<accounts::unchecked_account::UncheckedAccount, solana_program::program_error::ProgramError>::Err" = type { [1 x i64], %"solana_program::program_error::ProgramError" }
%"std::result::Result<accounts::unchecked_account::UncheckedAccount, solana_program::program_error::ProgramError>::Ok" = type { [1 x i64], %"accounts::unchecked_account::UncheckedAccount" }
%"bpf_upgradeable_state::ProgramData" = type { i64, %"std::option::Option<solana_program::pubkey::Pubkey>", [7 x i8] }
%"std::result::Result<bpf_upgradeable_state::ProgramData, solana_program::program_error::ProgramError>::Ok" = type { [1 x i64], %"bpf_upgradeable_state::ProgramData" }
%"std::fmt::DebugStruct" = type { %"std::fmt::Formatter"*, i8, i8, [6 x i8] }
%"std::fmt::DebugTuple" = type { %"std::fmt::Formatter"*, i64, i8, i8, [6 x i8] }
%"ctor::Ctor" = type { %"solana_program::account_info::AccountInfo", %"solana_program::account_info::AccountInfo", %"solana_program::account_info::AccountInfo", %"solana_program::account_info::AccountInfo", %"solana_program::account_info::AccountInfo" }
%"std::result::Result<ctor::Ctor, solana_program::program_error::ProgramError>::Ok" = type { [1 x i64], %"ctor::Ctor" }
%"ctor::__client_accounts_ctor::Ctor" = type { %"solana_program::pubkey::Pubkey", %"solana_program::pubkey::Pubkey", %"solana_program::pubkey::Pubkey", %"solana_program::pubkey::Pubkey", %"solana_program::pubkey::Pubkey" }
%"ctor::__cpi_client_accounts_ctor::Ctor" = type { %"solana_program::account_info::AccountInfo", %"solana_program::account_info::AccountInfo", %"solana_program::account_info::AccountInfo", %"solana_program::account_info::AccountInfo", %"solana_program::account_info::AccountInfo" }
%"error::Error::ProgramError" = type { [1 x i64], %"solana_program::program_error::ProgramError" }
%"error::Error::ErrorCode" = type { [1 x i32], i32 }
%"solana_program::program_error::ProgramError::Custom" = type { [1 x i32], i32 }
%"idl::IdlInstruction" = type { i8, [39 x i8] }
%"std::string::String" = type { %"std::vec::Vec<u8>" }
%"std::result::Result<solana_program::pubkey::Pubkey, std::io::Error>" = type { i8, [39 x i8] }
%"std::ops::ControlFlow<std::result::Result<std::convert::Infallible, std::io::Error>, solana_program::pubkey::Pubkey>" = type { i8, [39 x i8] }
%"std::result::Result<std::vec::Vec<u8>, std::io::Error>" = type { i64, [3 x i64] }
%"std::ops::ControlFlow<std::result::Result<std::convert::Infallible, std::io::Error>, std::vec::Vec<u8>>" = type { i64, [3 x i64] }
%"std::ops::ControlFlow<std::result::Result<std::convert::Infallible, std::io::Error>, u64>" = type { i64, [2 x i64] }
%"std::ops::ControlFlow<std::result::Result<std::convert::Infallible, std::io::Error>, u8>" = type { i8, [23 x i8] }
%"std::ops::ControlFlow<std::result::Result<std::convert::Infallible, std::io::Error>, u8>::Continue" = type { [1 x i8], i8 }
%"std::ops::ControlFlow<std::result::Result<std::convert::Infallible, std::io::Error>, u8>::Break" = type { [1 x i64], %"std::result::Result<std::convert::Infallible, std::io::Error>::Err" }
%"std::ops::ControlFlow<std::result::Result<std::convert::Infallible, std::io::Error>, solana_program::pubkey::Pubkey>::Continue" = type { [1 x i8], %"solana_program::pubkey::Pubkey" }
%"idl::IdlInstruction::SetAuthority" = type { [1 x i8], %"solana_program::pubkey::Pubkey" }
%"std::ops::ControlFlow<std::result::Result<std::convert::Infallible, std::io::Error>, solana_program::pubkey::Pubkey>::Break" = type { [1 x i64], %"std::result::Result<std::convert::Infallible, std::io::Error>::Err" }
%"std::result::Result<idl::IdlInstruction, std::io::Error>::Ok" = type { [1 x i64], %"idl::IdlInstruction" }
%"std::ops::ControlFlow<std::result::Result<std::convert::Infallible, std::io::Error>, std::vec::Vec<u8>>::Continue" = type { [1 x i64], %"std::vec::Vec<u8>" }
%"idl::IdlInstruction::Write" = type { [1 x i64], %"std::vec::Vec<u8>" }
%"std::ops::ControlFlow<std::result::Result<std::convert::Infallible, std::io::Error>, std::vec::Vec<u8>>::Break" = type { [1 x i64], %"std::result::Result<std::convert::Infallible, std::io::Error>::Err" }
%"std::ops::ControlFlow<std::result::Result<std::convert::Infallible, std::io::Error>, u64>::Continue" = type { [1 x i64], i64 }
%"idl::IdlInstruction::Create" = type { [1 x i64], i64 }
%"std::ops::ControlFlow<std::result::Result<std::convert::Infallible, std::io::Error>, u64>::Break" = type { [1 x i64], %"std::result::Result<std::convert::Infallible, std::io::Error>::Err" }
%"idl::IdlAccounts" = type { i64*, %"solana_program::account_info::AccountInfo" }
%"std::result::Result<idl::IdlAccounts, solana_program::program_error::ProgramError>::Ok" = type { [1 x i64], %"idl::IdlAccounts" }
%"idl::__client_accounts_idl_accounts::IdlAccounts" = type { %"solana_program::pubkey::Pubkey", %"solana_program::pubkey::Pubkey" }
%"idl::__cpi_client_accounts_idl_accounts::IdlAccounts" = type { %"solana_program::account_info::AccountInfo", %"solana_program::account_info::AccountInfo" }
%"idl::IdlCreateBuffer" = type { i64*, %"solana_program::account_info::AccountInfo" }
%"std::result::Result<idl::IdlCreateBuffer, solana_program::program_error::ProgramError>::Ok" = type { [1 x i64], %"idl::IdlCreateBuffer" }
%"idl::__client_accounts_idl_create_buffer::IdlCreateBuffer" = type { %"solana_program::pubkey::Pubkey", %"solana_program::pubkey::Pubkey" }
%"idl::__cpi_client_accounts_idl_create_buffer::IdlCreateBuffer" = type { %"solana_program::account_info::AccountInfo", %"solana_program::account_info::AccountInfo" }
%"idl::IdlSetBuffer" = type { i64*, i64*, %"solana_program::account_info::AccountInfo" }
%"std::result::Result<idl::IdlSetBuffer, solana_program::program_error::ProgramError>::Ok" = type { [1 x i64], %"idl::IdlSetBuffer" }
%"idl::__client_accounts_idl_set_buffer::IdlSetBuffer" = type { %"solana_program::pubkey::Pubkey", %"solana_program::pubkey::Pubkey", %"solana_program::pubkey::Pubkey" }
%"idl::__cpi_client_accounts_idl_set_buffer::IdlSetBuffer" = type { %"solana_program::account_info::AccountInfo", %"solana_program::account_info::AccountInfo", %"solana_program::account_info::AccountInfo" }
%"system_program::System" = type {}

@alloc1159 = private unnamed_addr constant <{ [21 x i8] }> <{ [21 x i8] c"an array of length 32" }>, align 1
@vtable.0 = private unnamed_addr constant <{ i8*, [16 x i8], i8*, [0 x i8] }> <{ i8* bitcast (void (%"serde::de::impls::ArrayVisitor<[u8; 32]>"*)* @"_ZN4core3ptr83drop_in_place$LT$serde..de..impls..ArrayVisitor$LT$$u5b$u8$u3b$$u20$32$u5d$$GT$$GT$17hc06d52665a2f891aE" to i8*), [16 x i8] c"\00\00\00\00\00\00\00\00\01\00\00\00\00\00\00\00", i8* bitcast (i1 (%"serde::de::impls::ArrayVisitor<[u8; 32]>"*, %"std::fmt::Formatter"*)* @"_ZN41_$LT$T$u20$as$u20$serde..de..Expected$GT$3fmt17h890f50831f461effE" to i8*), [0 x i8] zeroinitializer }>, align 8, !dbg !0
@alloc1163 = private unnamed_addr constant <{ [22 x i8] }> <{ [22 x i8] c"UpgradeableLoaderState" }>, align 1
@alloc562 = private unnamed_addr constant <{ [13 x i8] }> <{ [13 x i8] c"Uninitialized" }>, align 1
@alloc564 = private unnamed_addr constant <{ [6 x i8] }> <{ [6 x i8] c"Buffer" }>, align 1
@alloc565 = private unnamed_addr constant <{ [7 x i8] }> <{ [7 x i8] c"Program" }>, align 1
@alloc566 = private unnamed_addr constant <{ [11 x i8] }> <{ [11 x i8] c"ProgramData" }>, align 1
@alloc563 = private unnamed_addr constant <{ i8*, [8 x i8], i8*, [8 x i8], i8*, [8 x i8], i8*, [8 x i8] }> <{ i8* getelementptr inbounds (<{ [13 x i8] }>, <{ [13 x i8] }>* @alloc562, i32 0, i32 0, i32 0), [8 x i8] c"\0D\00\00\00\00\00\00\00", i8* getelementptr inbounds (<{ [6 x i8] }>, <{ [6 x i8] }>* @alloc564, i32 0, i32 0, i32 0), [8 x i8] c"\06\00\00\00\00\00\00\00", i8* getelementptr inbounds (<{ [7 x i8] }>, <{ [7 x i8] }>* @alloc565, i32 0, i32 0, i32 0), [8 x i8] c"\07\00\00\00\00\00\00\00", i8* getelementptr inbounds (<{ [11 x i8] }>, <{ [11 x i8] }>* @alloc566, i32 0, i32 0, i32 0), [8 x i8] c"\0B\00\00\00\00\00\00\00" }>, align 8
@0 = private unnamed_addr constant <{ i8*, [8 x i8] }> <{ i8* bitcast (<{ i8*, [8 x i8], i8*, [8 x i8], i8*, [8 x i8], i8*, [8 x i8] }>* @alloc563 to i8*), [8 x i8] c"\04\00\00\00\00\00\00\00" }>, align 8
@alloc1164 = private unnamed_addr constant <{ [6 x i8] }> <{ [6 x i8] c"Pubkey" }>, align 1
@alloc1165 = private unnamed_addr constant <{ [81 x i8] }> <{ [81 x i8] c"/root/.cargo/registry/src/github.com-1ecc6299db9ec823/bincode-1.3.3/src/de/mod.rs" }>, align 1
@alloc1166 = private unnamed_addr constant <{ i8*, [16 x i8] }> <{ i8* getelementptr inbounds (<{ [81 x i8] }>, <{ [81 x i8] }>* @alloc1165, i32 0, i32 0, i32 0), [16 x i8] c"Q\00\00\00\00\00\00\008\01\00\00\15\00\00\00" }>, align 8
@str.1 = internal constant [33 x i8] c"attempt to subtract with overflow"
@alloc569 = private unnamed_addr constant <{ [4 x i8] }> <{ [4 x i8] c"slot" }>, align 1
@alloc571 = private unnamed_addr constant <{ [25 x i8] }> <{ [25 x i8] c"upgrade_authority_address" }>, align 1
@alloc570 = private unnamed_addr constant <{ i8*, [8 x i8], i8*, [8 x i8] }> <{ i8* getelementptr inbounds (<{ [4 x i8] }>, <{ [4 x i8] }>* @alloc569, i32 0, i32 0, i32 0), [8 x i8] c"\04\00\00\00\00\00\00\00", i8* getelementptr inbounds (<{ [25 x i8] }>, <{ [25 x i8] }>* @alloc571, i32 0, i32 0, i32 0), [8 x i8] c"\19\00\00\00\00\00\00\00" }>, align 8
@1 = private unnamed_addr constant <{ i8*, [8 x i8] }> <{ i8* bitcast (<{ i8*, [8 x i8], i8*, [8 x i8] }>* @alloc570 to i8*), [8 x i8] c"\02\00\00\00\00\00\00\00" }>, align 8
@alloc578 = private unnamed_addr constant <{ [19 x i8] }> <{ [19 x i8] c"programdata_address" }>, align 1
@alloc579 = private unnamed_addr constant <{ i8*, [8 x i8] }> <{ i8* getelementptr inbounds (<{ [19 x i8] }>, <{ [19 x i8] }>* @alloc578, i32 0, i32 0, i32 0), [8 x i8] c"\13\00\00\00\00\00\00\00" }>, align 8
@2 = private unnamed_addr constant <{ i8*, [8 x i8] }> <{ i8* bitcast (<{ i8*, [8 x i8] }>* @alloc579 to i8*), [8 x i8] c"\01\00\00\00\00\00\00\00" }>, align 8
@alloc574 = private unnamed_addr constant <{ [17 x i8] }> <{ [17 x i8] c"authority_address" }>, align 1
@alloc575 = private unnamed_addr constant <{ i8*, [8 x i8] }> <{ i8* getelementptr inbounds (<{ [17 x i8] }>, <{ [17 x i8] }>* @alloc574, i32 0, i32 0, i32 0), [8 x i8] c"\11\00\00\00\00\00\00\00" }>, align 8
@3 = private unnamed_addr constant <{ i8*, [8 x i8] }> <{ i8* bitcast (<{ i8*, [8 x i8] }>* @alloc575 to i8*), [8 x i8] c"\01\00\00\00\00\00\00\00" }>, align 8
@alloc581 = private unnamed_addr constant <{ [24 x i8] }> <{ [24 x i8] c"variant index 0 <= i < 4" }>, align 1
@alloc582 = private unnamed_addr constant <{ i8*, [8 x i8] }> <{ i8* getelementptr inbounds (<{ [24 x i8] }>, <{ [24 x i8] }>* @alloc581, i32 0, i32 0, i32 0), [8 x i8] c"\18\00\00\00\00\00\00\00" }>, align 8
@vtable.2 = private unnamed_addr constant <{ i8*, [16 x i8], i8*, [0 x i8] }> <{ i8* bitcast (void ({ [0 x i8]*, i64 }*)* @"_ZN4core3ptr28drop_in_place$LT$$RF$str$GT$17had0d6d8d96922fafE" to i8*), [16 x i8] c"\10\00\00\00\00\00\00\00\08\00\00\00\00\00\00\00", i8* bitcast (i1 ({ [0 x i8]*, i64 }*, %"std::fmt::Formatter"*)* @"_ZN47_$LT$$RF$str$u20$as$u20$serde..de..Expected$GT$3fmt17h206f832dec6ab7f7E" to i8*), [0 x i8] zeroinitializer }>, align 8, !dbg !22
@alloc597 = private unnamed_addr constant <{ [61 x i8] }> <{ [61 x i8] c"struct variant UpgradeableLoaderState::Program with 1 element" }>, align 1
@alloc598 = private unnamed_addr constant <{ i8*, [8 x i8] }> <{ i8* getelementptr inbounds (<{ [61 x i8] }>, <{ [61 x i8] }>* @alloc597, i32 0, i32 0, i32 0), [8 x i8] c"=\00\00\00\00\00\00\00" }>, align 8
@alloc588 = private unnamed_addr constant <{ [66 x i8] }> <{ [66 x i8] c"struct variant UpgradeableLoaderState::ProgramData with 2 elements" }>, align 1
@alloc589 = private unnamed_addr constant <{ i8*, [8 x i8] }> <{ i8* getelementptr inbounds (<{ [66 x i8] }>, <{ [66 x i8] }>* @alloc588, i32 0, i32 0, i32 0), [8 x i8] c"B\00\00\00\00\00\00\00" }>, align 8
@alloc594 = private unnamed_addr constant <{ [60 x i8] }> <{ [60 x i8] c"struct variant UpgradeableLoaderState::Buffer with 1 element" }>, align 1
@alloc595 = private unnamed_addr constant <{ i8*, [8 x i8] }> <{ i8* getelementptr inbounds (<{ [60 x i8] }>, <{ [60 x i8] }>* @alloc594, i32 0, i32 0, i32 0), [8 x i8] c"<\00\00\00\00\00\00\00" }>, align 8
@alloc619 = private unnamed_addr constant <{ [1 x i8] }> <{ [1 x i8] c"#" }>, align 1
@alloc1170 = private unnamed_addr constant <{ [72 x i8] }> <{ [72 x i8] c"/home/runner/work/bpf-tools/bpf-tools/out/rust/library/std/src/io/mod.rs" }>, align 1
@alloc1171 = private unnamed_addr constant <{ i8*, [16 x i8] }> <{ i8* getelementptr inbounds (<{ [72 x i8] }>, <{ [72 x i8] }>* @alloc1170, i32 0, i32 0, i32 0), [16 x i8] c"H\00\00\00\00\00\00\00\02\06\00\00!\00\00\00" }>, align 8
@alloc616 = private unnamed_addr constant <{ [28 x i8] }> <{ [28 x i8] c"failed to write whole buffer" }>, align 1
@alloc617 = private unnamed_addr constant <{ i8*, [8 x i8] }> <{ i8* getelementptr inbounds (<{ [28 x i8] }>, <{ [28 x i8] }>* @alloc616, i32 0, i32 0, i32 0), [8 x i8] c"\1C\00\00\00\00\00\00\00" }>, align 8
@alloc698 = private unnamed_addr constant <{ [0 x i8] }> zeroinitializer, align 8
@alloc1172 = private unnamed_addr constant <{ [74 x i8] }> <{ [74 x i8] c"/home/runner/work/bpf-tools/bpf-tools/out/rust/library/std/src/io/impls.rs" }>, align 1
@alloc1173 = private unnamed_addr constant <{ i8*, [16 x i8] }> <{ i8* getelementptr inbounds (<{ [74 x i8] }>, <{ [74 x i8] }>* @alloc1172, i32 0, i32 0, i32 0), [16 x i8] c"J\00\00\00\00\00\00\00J\01\00\00\1C\00\00\00" }>, align 8
@alloc1174 = private unnamed_addr constant <{ [75 x i8] }> <{ [75 x i8] c"/home/runner/work/bpf-tools/bpf-tools/out/rust/library/std/src/io/cursor.rs" }>, align 1
@alloc1175 = private unnamed_addr constant <{ i8*, [16 x i8] }> <{ i8* getelementptr inbounds (<{ [75 x i8] }>, <{ [75 x i8] }>* @alloc1174, i32 0, i32 0, i32 0), [16 x i8] c"K\00\00\00\00\00\00\00z\01\00\00\15\00\00\00" }>, align 8
@alloc1177 = private unnamed_addr constant <{ [40 x i8] }> <{ [40 x i8] c"description() is deprecated; use Display" }>, align 1
@alloc1178 = private unnamed_addr constant <{ [12 x i8] }> <{ [12 x i8] c"invalid args" }>, align 1
@alloc1179 = private unnamed_addr constant <{ [74 x i8] }> <{ [74 x i8] c"/home/runner/work/bpf-tools/bpf-tools/out/rust/library/core/src/fmt/mod.rs" }>, align 1
@alloc1180 = private unnamed_addr constant <{ i8*, [16 x i8] }> <{ i8* getelementptr inbounds (<{ [74 x i8] }>, <{ [74 x i8] }>* @alloc1179, i32 0, i32 0, i32 0), [16 x i8] c"J\00\00\00\00\00\00\00c\01\00\00\0D\00\00\00" }>, align 8
@alloc1181 = private unnamed_addr constant <{ [74 x i8] }> <{ [74 x i8] c"/home/runner/work/bpf-tools/bpf-tools/out/rust/library/core/src/ptr/mod.rs" }>, align 1
@alloc1182 = private unnamed_addr constant <{ i8*, [16 x i8] }> <{ i8* getelementptr inbounds (<{ [74 x i8] }>, <{ [74 x i8] }>* @alloc1181, i32 0, i32 0, i32 0), [16 x i8] c"J\00\00\00\00\00\00\00\BC\02\00\00\0D\00\00\00" }>, align 8
@alloc1183 = private unnamed_addr constant <{ [73 x i8] }> <{ [73 x i8] c"assertion failed: 0 < pointee_size && pointee_size <= isize::MAX as usize" }>, align 1
@alloc1184 = private unnamed_addr constant <{ [80 x i8] }> <{ [80 x i8] c"/home/runner/work/bpf-tools/bpf-tools/out/rust/library/core/src/ptr/const_ptr.rs" }>, align 1
@alloc1185 = private unnamed_addr constant <{ i8*, [16 x i8] }> <{ i8* getelementptr inbounds (<{ [80 x i8] }>, <{ [80 x i8] }>* @alloc1184, i32 0, i32 0, i32 0), [16 x i8] c"P\00\00\00\00\00\00\00\85\01\00\00\09\00\00\00" }>, align 8
@alloc1186 = private unnamed_addr constant <{ [16 x i8] }> <{ [16 x i8] c"already borrowed" }>, align 1
@alloc1187 = private unnamed_addr constant <{ [89 x i8] }> <{ [89 x i8] c"/home/runner/work/bpf-tools/bpf-tools/out/rust/library/core/src/iter/traits/exact_size.rs" }>, align 1
@alloc1188 = private unnamed_addr constant <{ i8*, [16 x i8] }> <{ i8* getelementptr inbounds (<{ [89 x i8] }>, <{ [89 x i8] }>* @alloc1187, i32 0, i32 0, i32 0), [16 x i8] c"Y\00\00\00\00\00\00\00l\00\00\00\09\00\00\00" }>, align 8
@alloc1191 = private unnamed_addr constant <{ [81 x i8] }> <{ [81 x i8] c"/home/runner/work/bpf-tools/bpf-tools/out/rust/library/core/src/array/equality.rs" }>, align 1
@alloc1190 = private unnamed_addr constant <{ i8*, [16 x i8] }> <{ i8* getelementptr inbounds (<{ [81 x i8] }>, <{ [81 x i8] }>* @alloc1191, i32 0, i32 0, i32 0), [16 x i8] c"Q\00\00\00\00\00\00\00\1B\00\00\00\09\00\00\00" }>, align 8
@alloc1192 = private unnamed_addr constant <{ i8*, [16 x i8] }> <{ i8* getelementptr inbounds (<{ [81 x i8] }>, <{ [81 x i8] }>* @alloc1191, i32 0, i32 0, i32 0), [16 x i8] c"Q\00\00\00\00\00\00\00\1B\00\00\00\15\00\00\00" }>, align 8
@alloc1193 = private unnamed_addr constant <{ [43 x i8] }> <{ [43 x i8] c"called `Option::unwrap()` on a `None` value" }>, align 1
@vtable.3 = private unnamed_addr constant <{ i8*, [16 x i8], i8*, [0 x i8] }> <{ i8* bitcast (void (i8*)* @"_ZN4core3ptr56drop_in_place$LT$solana_program..pubkey..PubkeyError$GT$17h7b4df80614b86849E" to i8*), [16 x i8] c"\01\00\00\00\00\00\00\00\01\00\00\00\00\00\00\00", i8* bitcast (i1 (i8*, %"std::fmt::Formatter"*)* @"_ZN72_$LT$solana_program..pubkey..PubkeyError$u20$as$u20$core..fmt..Debug$GT$3fmt17hbd8032ae45ed78e4E" to i8*), [0 x i8] zeroinitializer }>, align 8, !dbg !31
@vtable.4 = private unnamed_addr constant <{ i8*, [16 x i8], i8*, [0 x i8] }> <{ i8* bitcast (void (%"std::cell::BorrowMutError"*)* @"_ZN4core3ptr47drop_in_place$LT$core..cell..BorrowMutError$GT$17h095f7c7705d2ddd2E" to i8*), [16 x i8] c"\00\00\00\00\00\00\00\00\01\00\00\00\00\00\00\00", i8* bitcast (i1 (%"std::cell::BorrowMutError"*, %"std::fmt::Formatter"*)* @"_ZN63_$LT$core..cell..BorrowMutError$u20$as$u20$core..fmt..Debug$GT$3fmt17h8fbce2618a168c02E" to i8*), [0 x i8] zeroinitializer }>, align 8, !dbg !41
@alloc1200 = private unnamed_addr constant <{ [43 x i8] }> <{ [43 x i8] c"called `Result::unwrap()` on an `Err` value" }>, align 1
@alloc1206 = private unnamed_addr constant <{ [26 x i8] }> <{ [26 x i8] c"Unexpected length of input" }>, align 1
@alloc1207 = private unnamed_addr constant <{ [79 x i8] }> <{ [79 x i8] c"/root/.cargo/registry/src/github.com-1ecc6299db9ec823/borsh-0.9.3/src/de/mod.rs" }>, align 1
@alloc1203 = private unnamed_addr constant <{ i8*, [16 x i8] }> <{ i8* getelementptr inbounds (<{ [79 x i8] }>, <{ [79 x i8] }>* @alloc1207, i32 0, i32 0, i32 0), [16 x i8] c"O\00\00\00\00\00\00\00G\00\00\00\13\00\00\00" }>, align 8
@alloc1205 = private unnamed_addr constant <{ i8*, [16 x i8] }> <{ i8* getelementptr inbounds (<{ [79 x i8] }>, <{ [79 x i8] }>* @alloc1207, i32 0, i32 0, i32 0), [16 x i8] c"O\00\00\00\00\00\00\00H\00\00\00\11\00\00\00" }>, align 8
@alloc1208 = private unnamed_addr constant <{ i8*, [16 x i8] }> <{ i8* getelementptr inbounds (<{ [79 x i8] }>, <{ [79 x i8] }>* @alloc1207, i32 0, i32 0, i32 0), [16 x i8] c"O\00\00\00\00\00\00\00\85\00\00\00\01\00\00\00" }>, align 8
@alloc1213 = private unnamed_addr constant <{ i8*, [16 x i8], i8*, [0 x i8] }> <{ i8* bitcast (void (%"solana_program::program_error::ProgramError"*)* @"_ZN4core3ptr64drop_in_place$LT$solana_program..program_error..ProgramError$GT$17h8d806f4c066edaadE" to i8*), [16 x i8] c" \00\00\00\00\00\00\00\08\00\00\00\00\00\00\00", i8* bitcast (i1 (%"solana_program::program_error::ProgramError"*, %"std::fmt::Formatter"*)* @"_ZN82_$LT$solana_program..program_error..ProgramError$u20$as$u20$core..fmt..Display$GT$3fmt17hc31a56b03febc89fE" to i8*), [0 x i8] zeroinitializer }>, align 8
@vtable.5 = private unnamed_addr constant <{ i8*, [16 x i8], i8*, i8*, i8*, i8*, i8*, i8*, i8*, [0 x i8] }> <{ i8* bitcast (void (%"solana_program::program_error::ProgramError"*)* @"_ZN4core3ptr64drop_in_place$LT$solana_program..program_error..ProgramError$GT$17h8d806f4c066edaadE" to i8*), [16 x i8] c" \00\00\00\00\00\00\00\08\00\00\00\00\00\00\00", i8* bitcast (i1 (%"solana_program::program_error::ProgramError"*, %"std::fmt::Formatter"*)* @"_ZN80_$LT$solana_program..program_error..ProgramError$u20$as$u20$core..fmt..Debug$GT$3fmt17h690f4e5c7e7391e0E" to i8*), i8* bitcast (i1 (%"solana_program::program_error::ProgramError"*, %"std::fmt::Formatter"*)* @"_ZN82_$LT$solana_program..program_error..ProgramError$u20$as$u20$core..fmt..Display$GT$3fmt17hc31a56b03febc89fE" to i8*), i8* bitcast (<{ i8*, [16 x i8], i8*, [0 x i8] }>* @alloc1213 to i8*), i8* bitcast ({ i8*, i8* } (%"solana_program::program_error::ProgramError"*)* @_ZN3std5error5Error6source17h2740bea4ea7f322aE to i8*), i8* bitcast (i64 (%"solana_program::program_error::ProgramError"*)* @_ZN3std5error5Error7type_id17h8f9486b5520d4cffE to i8*), i8* bitcast ({ [0 x i8]*, i64 } (%"solana_program::program_error::ProgramError"*)* @_ZN3std5error5Error11description17h97c14e4c79e4c016E to i8*), i8* bitcast ({ i8*, i8* } (%"solana_program::program_error::ProgramError"*)* @_ZN3std5error5Error5cause17h248a98a4fee21164E to i8*), [0 x i8] zeroinitializer }>, align 8, !dbg !46
@alloc1223 = private unnamed_addr constant <{ i8*, [16 x i8], i8*, [0 x i8] }> <{ i8* bitcast (void (i32*)* @"_ZN4core3ptr50drop_in_place$LT$anchor_lang..error..ErrorCode$GT$17h8d36fd371c957b8eE" to i8*), [16 x i8] c"\04\00\00\00\00\00\00\00\04\00\00\00\00\00\00\00", i8* bitcast (i1 (i32*, %"std::fmt::Formatter"*)* @"_ZN68_$LT$anchor_lang..error..ErrorCode$u20$as$u20$core..fmt..Display$GT$3fmt17hf9c85c7a50589ab8E" to i8*), [0 x i8] zeroinitializer }>, align 8
@vtable.6 = private unnamed_addr constant <{ i8*, [16 x i8], i8*, i8*, i8*, i8*, i8*, i8*, i8*, [0 x i8] }> <{ i8* bitcast (void (i32*)* @"_ZN4core3ptr50drop_in_place$LT$anchor_lang..error..ErrorCode$GT$17h8d36fd371c957b8eE" to i8*), [16 x i8] c"\04\00\00\00\00\00\00\00\04\00\00\00\00\00\00\00", i8* bitcast (i1 (i32*, %"std::fmt::Formatter"*)* @"_ZN66_$LT$anchor_lang..error..ErrorCode$u20$as$u20$core..fmt..Debug$GT$3fmt17h234febde83b28d06E" to i8*), i8* bitcast (i1 (i32*, %"std::fmt::Formatter"*)* @"_ZN68_$LT$anchor_lang..error..ErrorCode$u20$as$u20$core..fmt..Display$GT$3fmt17hf9c85c7a50589ab8E" to i8*), i8* bitcast (<{ i8*, [16 x i8], i8*, [0 x i8] }>* @alloc1223 to i8*), i8* bitcast ({ i8*, i8* } (i32*)* @_ZN3std5error5Error6source17ha251e9878eefa8aeE to i8*), i8* bitcast (i64 (i32*)* @_ZN3std5error5Error7type_id17h562c4502b9f2f652E to i8*), i8* bitcast ({ [0 x i8]*, i64 } (i32*)* @_ZN3std5error5Error11description17h1b6086b432f198c4E to i8*), i8* bitcast ({ i8*, i8* } (i32*)* @_ZN3std5error5Error5cause17hb290d6cac4d1d12fE to i8*), [0 x i8] zeroinitializer }>, align 8, !dbg !129
@4 = private unnamed_addr constant <{ [16 x i8] }> <{ [16 x i8] c"\08\00\00\00\00\00\00\00\00\00\00\00\00\00\00\00" }>, align 8
@alloc584 = private unnamed_addr constant <{ [15 x i8] }> <{ [15 x i8] c"invalid value: " }>, align 1
@alloc586 = private unnamed_addr constant <{ [11 x i8] }> <{ [11 x i8] c", expected " }>, align 1
@alloc585 = private unnamed_addr constant <{ i8*, [8 x i8], i8*, [8 x i8] }> <{ i8* getelementptr inbounds (<{ [15 x i8] }>, <{ [15 x i8] }>* @alloc584, i32 0, i32 0, i32 0), [8 x i8] c"\0F\00\00\00\00\00\00\00", i8* getelementptr inbounds (<{ [11 x i8] }>, <{ [11 x i8] }>* @alloc586, i32 0, i32 0, i32 0), [8 x i8] c"\0B\00\00\00\00\00\00\00" }>, align 8
@alloc1229 = private unnamed_addr constant <{ [51 x i8] }> <{ [51 x i8] c"assertion failed: 4 == ::std::mem::size_of::<u32>()" }>, align 1
@alloc1230 = private unnamed_addr constant <{ [84 x i8] }> <{ [84 x i8] c"/root/.cargo/registry/src/github.com-1ecc6299db9ec823/bincode-1.3.3/src/byteorder.rs" }>, align 1
@alloc1231 = private unnamed_addr constant <{ i8*, [16 x i8] }> <{ i8* getelementptr inbounds (<{ [84 x i8] }>, <{ [84 x i8] }>* @alloc1230, i32 0, i32 0, i32 0), [16 x i8] c"T\00\00\00\00\00\00\002\00\00\00\09\00\00\00" }>, align 8
@alloc1232 = private unnamed_addr constant <{ [32 x i8] }> <{ [32 x i8] c"assertion failed: 4 <= buf.len()" }>, align 1
@alloc1235 = private unnamed_addr constant <{ [101 x i8] }> <{ [101 x i8] c"/root/.cargo/registry/src/github.com-1ecc6299db9ec823/anchor-lang-0.20.1/src/accounts/account_info.rs" }>, align 1
@alloc1234 = private unnamed_addr constant <{ i8*, [16 x i8] }> <{ i8* getelementptr inbounds (<{ [101 x i8] }>, <{ [101 x i8] }>* @alloc1235, i32 0, i32 0, i32 0), [16 x i8] c"e\00\00\00\00\00\00\00\16\00\00\00\18\00\00\00" }>, align 8
@alloc1236 = private unnamed_addr constant <{ i8*, [16 x i8] }> <{ i8* getelementptr inbounds (<{ [101 x i8] }>, <{ [101 x i8] }>* @alloc1235, i32 0, i32 0, i32 0), [16 x i8] c"e\00\00\00\00\00\00\00\17\00\00\00\16\00\00\00" }>, align 8
@alloc1239 = private unnamed_addr constant <{ [104 x i8] }> <{ [104 x i8] c"/root/.cargo/registry/src/github.com-1ecc6299db9ec823/anchor-lang-0.20.1/src/accounts/program_account.rs" }>, align 1
@alloc1238 = private unnamed_addr constant <{ i8*, [16 x i8] }> <{ i8* getelementptr inbounds (<{ [104 x i8] }>, <{ [104 x i8] }>* @alloc1239, i32 0, i32 0, i32 0), [16 x i8] c"h\00\00\00\00\00\00\00Z\00\00\00\18\00\00\00" }>, align 8
@alloc1240 = private unnamed_addr constant <{ i8*, [16 x i8] }> <{ i8* getelementptr inbounds (<{ [104 x i8] }>, <{ [104 x i8] }>* @alloc1239, i32 0, i32 0, i32 0), [16 x i8] c"h\00\00\00\00\00\00\00[\00\00\00\16\00\00\00" }>, align 8
@alloc1243 = private unnamed_addr constant <{ [95 x i8] }> <{ [95 x i8] c"/root/.cargo/registry/src/github.com-1ecc6299db9ec823/anchor-lang-0.20.1/src/accounts/signer.rs" }>, align 1
@alloc1242 = private unnamed_addr constant <{ i8*, [16 x i8] }> <{ i8* getelementptr inbounds (<{ [95 x i8] }>, <{ [95 x i8] }>* @alloc1243, i32 0, i32 0, i32 0), [16 x i8] c"_\00\00\00\00\00\00\00D\00\00\00\18\00\00\00" }>, align 8
@alloc1244 = private unnamed_addr constant <{ i8*, [16 x i8] }> <{ i8* getelementptr inbounds (<{ [95 x i8] }>, <{ [95 x i8] }>* @alloc1243, i32 0, i32 0, i32 0), [16 x i8] c"_\00\00\00\00\00\00\00E\00\00\00\16\00\00\00" }>, align 8
@alloc1245 = private unnamed_addr constant <{ [11 x i8] }> <{ [11 x i8] c"unversioned" }>, align 1
@alloc1246 = private unnamed_addr constant <{ [94 x i8] }> <{ [94 x i8] c"/root/.cargo/registry/src/github.com-1ecc6299db9ec823/anchor-lang-0.20.1/src/accounts/state.rs" }>, align 1
@alloc1247 = private unnamed_addr constant <{ i8*, [16 x i8] }> <{ i8* getelementptr inbounds (<{ [94 x i8] }>, <{ [94 x i8] }>* @alloc1246, i32 0, i32 0, i32 0), [16 x i8] c"^\00\00\00\00\00\00\00\AD\00\00\002\00\00\00" }>, align 8
@_ZN14solana_program14system_program2ID17h5cfa1b916bb74456E = external global %"solana_program::pubkey::Pubkey"
@alloc1250 = private unnamed_addr constant <{ [103 x i8] }> <{ [103 x i8] c"/root/.cargo/registry/src/github.com-1ecc6299db9ec823/anchor-lang-0.20.1/src/accounts/system_account.rs" }>, align 1
@alloc1249 = private unnamed_addr constant <{ i8*, [16 x i8] }> <{ i8* getelementptr inbounds (<{ [103 x i8] }>, <{ [103 x i8] }>* @alloc1250, i32 0, i32 0, i32 0), [16 x i8] c"g\00\00\00\00\00\00\00/\00\00\00\18\00\00\00" }>, align 8
@alloc1251 = private unnamed_addr constant <{ i8*, [16 x i8] }> <{ i8* getelementptr inbounds (<{ [103 x i8] }>, <{ [103 x i8] }>* @alloc1250, i32 0, i32 0, i32 0), [16 x i8] c"g\00\00\00\00\00\00\000\00\00\00\16\00\00\00" }>, align 8
@alloc1254 = private unnamed_addr constant <{ [106 x i8] }> <{ [106 x i8] c"/root/.cargo/registry/src/github.com-1ecc6299db9ec823/anchor-lang-0.20.1/src/accounts/unchecked_account.rs" }>, align 1
@alloc1253 = private unnamed_addr constant <{ i8*, [16 x i8] }> <{ i8* getelementptr inbounds (<{ [106 x i8] }>, <{ [106 x i8] }>* @alloc1254, i32 0, i32 0, i32 0), [16 x i8] c"j\00\00\00\00\00\00\00!\00\00\00\18\00\00\00" }>, align 8
@alloc1255 = private unnamed_addr constant <{ i8*, [16 x i8] }> <{ i8* getelementptr inbounds (<{ [106 x i8] }>, <{ [106 x i8] }>* @alloc1254, i32 0, i32 0, i32 0), [16 x i8] c"j\00\00\00\00\00\00\00\22\00\00\00\16\00\00\00" }>, align 8
@_ZN14solana_program22bpf_loader_upgradeable2ID17ha8b0bc8d262dd46bE = external global %"solana_program::pubkey::Pubkey"
@alloc1260 = private unnamed_addr constant <{ [86 x i8] }> <{ [86 x i8] c"/root/.cargo/registry/src/github.com-1ecc6299db9ec823/anchor-lang-0.20.1/src/common.rs" }>, align 1
@alloc1257 = private unnamed_addr constant <{ i8*, [16 x i8] }> <{ i8* getelementptr inbounds (<{ [86 x i8] }>, <{ [86 x i8] }>* @alloc1260, i32 0, i32 0, i32 0), [16 x i8] c"V\00\00\00\00\00\00\00\0D\00\00\00=\00\00\00" }>, align 8
@alloc1259 = private unnamed_addr constant <{ i8*, [16 x i8] }> <{ i8* getelementptr inbounds (<{ [86 x i8] }>, <{ [86 x i8] }>* @alloc1260, i32 0, i32 0, i32 0), [16 x i8] c"V\00\00\00\00\00\00\00\0C\00\00\00 \00\00\00" }>, align 8
@alloc1261 = private unnamed_addr constant <{ i8*, [16 x i8] }> <{ i8* getelementptr inbounds (<{ [86 x i8] }>, <{ [86 x i8] }>* @alloc1260, i32 0, i32 0, i32 0), [16 x i8] c"V\00\00\00\00\00\00\00\0E\00\00\00\15\00\00\00" }>, align 8
@alloc613 = private unnamed_addr constant <{ [8 x i8] }> <{ [8 x i8] c"\FF\FF\FF\FF\FF\FF\FF\FF" }>, align 1
@alloc1262 = private unnamed_addr constant <{ [20 x i8] }> <{ [20 x i8] c"Seed is always valid" }>, align 1
@alloc1329 = private unnamed_addr constant <{ [83 x i8] }> <{ [83 x i8] c"/root/.cargo/registry/src/github.com-1ecc6299db9ec823/anchor-lang-0.20.1/src/idl.rs" }>, align 1
@alloc1264 = private unnamed_addr constant <{ i8*, [16 x i8] }> <{ i8* getelementptr inbounds (<{ [83 x i8] }>, <{ [83 x i8] }>* @alloc1329, i32 0, i32 0, i32 0), [16 x i8] c"S\00\00\00\00\00\00\00f\00\00\00\0E\00\00\00" }>, align 8
@alloc1265 = private unnamed_addr constant <{ [10 x i8] }> <{ [10 x i8] c"anchor:idl" }>, align 1
@alloc1266 = private unnamed_addr constant <{ [6 x i8] }> <{ [6 x i8] c"Signer" }>, align 1
@alloc1272 = private unnamed_addr constant <{ [4 x i8] }> <{ [4 x i8] c"info" }>, align 1
@vtable.7 = private unnamed_addr constant <{ i8*, [16 x i8], i8*, [0 x i8] }> <{ i8* bitcast (void (%"solana_program::account_info::AccountInfo"**)* @"_ZN4core3ptr66drop_in_place$LT$$RF$solana_program..account_info..AccountInfo$GT$17ha8e037abf1833cbbE" to i8*), [16 x i8] c"\08\00\00\00\00\00\00\00\08\00\00\00\00\00\00\00", i8* bitcast (i1 (%"solana_program::account_info::AccountInfo"**, %"std::fmt::Formatter"*)* @"_ZN42_$LT$$RF$T$u20$as$u20$core..fmt..Debug$GT$3fmt17hd4420af8df7b2eb1E" to i8*), [0 x i8] zeroinitializer }>, align 8, !dbg !179
@alloc1271 = private unnamed_addr constant <{ [13 x i8] }> <{ [13 x i8] c"SystemAccount" }>, align 1
@alloc1273 = private unnamed_addr constant <{ [16 x i8] }> <{ [16 x i8] c"UncheckedAccount" }>, align 1
@alloc695 = private unnamed_addr constant <{ [61 x i8] }> <{ [61 x i8] c"The API being used is deprecated and should no longer be used" }>, align 1
@alloc696 = private unnamed_addr constant <{ i8*, [8 x i8] }> <{ i8* getelementptr inbounds (<{ [61 x i8] }>, <{ [61 x i8] }>* @alloc695, i32 0, i32 0, i32 0), [8 x i8] c"=\00\00\00\00\00\00\00" }>, align 8
@alloc905 = private unnamed_addr constant <{ [57 x i8] }> <{ [57 x i8] c"The given state account does not have the correct address" }>, align 1
@alloc906 = private unnamed_addr constant <{ i8*, [8 x i8] }> <{ i8* getelementptr inbounds (<{ [57 x i8] }>, <{ [57 x i8] }>* @alloc905, i32 0, i32 0, i32 0), [8 x i8] c"9\00\00\00\00\00\00\00" }>, align 8
@alloc900 = private unnamed_addr constant <{ [53 x i8] }> <{ [53 x i8] c"The given account is not the associated token account" }>, align 1
@alloc901 = private unnamed_addr constant <{ i8*, [8 x i8] }> <{ i8* getelementptr inbounds (<{ [53 x i8] }>, <{ [53 x i8] }>* @alloc900, i32 0, i32 0, i32 0), [8 x i8] c"5\00\00\00\00\00\00\00" }>, align 8
@alloc895 = private unnamed_addr constant <{ [47 x i8] }> <{ [47 x i8] c"The given account is not a program data account" }>, align 1
@alloc896 = private unnamed_addr constant <{ i8*, [8 x i8] }> <{ i8* getelementptr inbounds (<{ [47 x i8] }>, <{ [47 x i8] }>* @alloc895, i32 0, i32 0, i32 0), [8 x i8] c"/\00\00\00\00\00\00\00" }>, align 8
@alloc890 = private unnamed_addr constant <{ [59 x i8] }> <{ [59 x i8] c"The program expected this account to be already initialized" }>, align 1
@alloc891 = private unnamed_addr constant <{ i8*, [8 x i8] }> <{ i8* getelementptr inbounds (<{ [59 x i8] }>, <{ [59 x i8] }>* @alloc890, i32 0, i32 0, i32 0), [8 x i8] c";\00\00\00\00\00\00\00" }>, align 8
@alloc885 = private unnamed_addr constant <{ [52 x i8] }> <{ [52 x i8] c"The given account is not owned by the system program" }>, align 1
@alloc886 = private unnamed_addr constant <{ i8*, [8 x i8] }> <{ i8* getelementptr inbounds (<{ [52 x i8] }>, <{ [52 x i8] }>* @alloc885, i32 0, i32 0, i32 0), [8 x i8] c"4\00\00\00\00\00\00\00" }>, align 8
@alloc880 = private unnamed_addr constant <{ [30 x i8] }> <{ [30 x i8] c"The given account did not sign" }>, align 1
@alloc881 = private unnamed_addr constant <{ i8*, [8 x i8] }> <{ i8* getelementptr inbounds (<{ [30 x i8] }>, <{ [30 x i8] }>* @alloc880, i32 0, i32 0, i32 0), [8 x i8] c"\1E\00\00\00\00\00\00\00" }>, align 8
@alloc875 = private unnamed_addr constant <{ [33 x i8] }> <{ [33 x i8] c"Program account is not executable" }>, align 1
@alloc876 = private unnamed_addr constant <{ i8*, [8 x i8] }> <{ i8* getelementptr inbounds (<{ [33 x i8] }>, <{ [33 x i8] }>* @alloc875, i32 0, i32 0, i32 0), [8 x i8] c"!\00\00\00\00\00\00\00" }>, align 8
@alloc870 = private unnamed_addr constant <{ [30 x i8] }> <{ [30 x i8] c"Program ID was not as expected" }>, align 1
@alloc871 = private unnamed_addr constant <{ i8*, [8 x i8] }> <{ i8* getelementptr inbounds (<{ [30 x i8] }>, <{ [30 x i8] }>* @alloc870, i32 0, i32 0, i32 0), [8 x i8] c"\1E\00\00\00\00\00\00\00" }>, align 8
@alloc865 = private unnamed_addr constant <{ [63 x i8] }> <{ [63 x i8] c"The given account is owned by a different program than expected" }>, align 1
@alloc866 = private unnamed_addr constant <{ i8*, [8 x i8] }> <{ i8* getelementptr inbounds (<{ [63 x i8] }>, <{ [63 x i8] }>* @alloc865, i32 0, i32 0, i32 0), [8 x i8] c"?\00\00\00\00\00\00\00" }>, align 8
@alloc860 = private unnamed_addr constant <{ [32 x i8] }> <{ [32 x i8] c"The given account is not mutable" }>, align 1
@alloc861 = private unnamed_addr constant <{ i8*, [8 x i8] }> <{ i8* getelementptr inbounds (<{ [32 x i8] }>, <{ [32 x i8] }>* @alloc860, i32 0, i32 0, i32 0), [8 x i8] c" \00\00\00\00\00\00\00" }>, align 8
@alloc855 = private unnamed_addr constant <{ [48 x i8] }> <{ [48 x i8] c"Not enough account keys given to the instruction" }>, align 1
@alloc856 = private unnamed_addr constant <{ i8*, [8 x i8] }> <{ i8* getelementptr inbounds (<{ [48 x i8] }>, <{ [48 x i8] }>* @alloc855, i32 0, i32 0, i32 0), [8 x i8] c"0\00\00\00\00\00\00\00" }>, align 8
@alloc850 = private unnamed_addr constant <{ [31 x i8] }> <{ [31 x i8] c"Failed to serialize the account" }>, align 1
@alloc851 = private unnamed_addr constant <{ i8*, [8 x i8] }> <{ i8* getelementptr inbounds (<{ [31 x i8] }>, <{ [31 x i8] }>* @alloc850, i32 0, i32 0, i32 0), [8 x i8] c"\1F\00\00\00\00\00\00\00" }>, align 8
@alloc845 = private unnamed_addr constant <{ [33 x i8] }> <{ [33 x i8] c"Failed to deserialize the account" }>, align 1
@alloc846 = private unnamed_addr constant <{ i8*, [8 x i8] }> <{ i8* getelementptr inbounds (<{ [33 x i8] }>, <{ [33 x i8] }>* @alloc845, i32 0, i32 0, i32 0), [8 x i8] c"!\00\00\00\00\00\00\00" }>, align 8
@alloc840 = private unnamed_addr constant <{ [52 x i8] }> <{ [52 x i8] c"8 byte discriminator did not match what was expected" }>, align 1
@alloc841 = private unnamed_addr constant <{ i8*, [8 x i8] }> <{ i8* getelementptr inbounds (<{ [52 x i8] }>, <{ [52 x i8] }>* @alloc840, i32 0, i32 0, i32 0), [8 x i8] c"4\00\00\00\00\00\00\00" }>, align 8
@alloc835 = private unnamed_addr constant <{ [48 x i8] }> <{ [48 x i8] c"No 8 byte discriminator was found on the account" }>, align 1
@alloc836 = private unnamed_addr constant <{ i8*, [8 x i8] }> <{ i8* getelementptr inbounds (<{ [48 x i8] }>, <{ [48 x i8] }>* @alloc835, i32 0, i32 0, i32 0), [8 x i8] c"0\00\00\00\00\00\00\00" }>, align 8
@alloc830 = private unnamed_addr constant <{ [57 x i8] }> <{ [57 x i8] c"The account discriminator was already set on this account" }>, align 1
@alloc831 = private unnamed_addr constant <{ i8*, [8 x i8] }> <{ i8* getelementptr inbounds (<{ [57 x i8] }>, <{ [57 x i8] }>* @alloc830, i32 0, i32 0, i32 0), [8 x i8] c"9\00\00\00\00\00\00\00" }>, align 8
@alloc825 = private unnamed_addr constant <{ [31 x i8] }> <{ [31 x i8] c"A space constraint was violated" }>, align 1
@alloc826 = private unnamed_addr constant <{ i8*, [8 x i8] }> <{ i8* getelementptr inbounds (<{ [31 x i8] }>, <{ [31 x i8] }>* @alloc825, i32 0, i32 0, i32 0), [8 x i8] c"\1F\00\00\00\00\00\00\00" }>, align 8
@alloc820 = private unnamed_addr constant <{ [39 x i8] }> <{ [39 x i8] c"A mint decimals constraint was violated" }>, align 1
@alloc821 = private unnamed_addr constant <{ i8*, [8 x i8] }> <{ i8* getelementptr inbounds (<{ [39 x i8] }>, <{ [39 x i8] }>* @alloc820, i32 0, i32 0, i32 0), [8 x i8] c"'\00\00\00\00\00\00\00" }>, align 8
@alloc815 = private unnamed_addr constant <{ [47 x i8] }> <{ [47 x i8] c"A mint freeze authority constraint was violated" }>, align 1
@alloc816 = private unnamed_addr constant <{ i8*, [8 x i8] }> <{ i8* getelementptr inbounds (<{ [47 x i8] }>, <{ [47 x i8] }>* @alloc815, i32 0, i32 0, i32 0), [8 x i8] c"/\00\00\00\00\00\00\00" }>, align 8
@alloc810 = private unnamed_addr constant <{ [45 x i8] }> <{ [45 x i8] c"A mint mint authority constraint was violated" }>, align 1
@alloc811 = private unnamed_addr constant <{ i8*, [8 x i8] }> <{ i8* getelementptr inbounds (<{ [45 x i8] }>, <{ [45 x i8] }>* @alloc810, i32 0, i32 0, i32 0), [8 x i8] c"-\00\00\00\00\00\00\00" }>, align 8
@alloc805 = private unnamed_addr constant <{ [37 x i8] }> <{ [37 x i8] c"A token owner constraint was violated" }>, align 1
@alloc806 = private unnamed_addr constant <{ i8*, [8 x i8] }> <{ i8* getelementptr inbounds (<{ [37 x i8] }>, <{ [37 x i8] }>* @alloc805, i32 0, i32 0, i32 0), [8 x i8] c"%\00\00\00\00\00\00\00" }>, align 8
@alloc800 = private unnamed_addr constant <{ [36 x i8] }> <{ [36 x i8] c"A token mint constraint was violated" }>, align 1
@alloc801 = private unnamed_addr constant <{ i8*, [8 x i8] }> <{ i8* getelementptr inbounds (<{ [36 x i8] }>, <{ [36 x i8] }>* @alloc800, i32 0, i32 0, i32 0), [8 x i8] c"$\00\00\00\00\00\00\00" }>, align 8
@alloc795 = private unnamed_addr constant <{ [34 x i8] }> <{ [34 x i8] c"Expected zero account discriminant" }>, align 1
@alloc796 = private unnamed_addr constant <{ i8*, [8 x i8] }> <{ i8* getelementptr inbounds (<{ [34 x i8] }>, <{ [34 x i8] }>* @alloc795, i32 0, i32 0, i32 0), [8 x i8] c"\22\00\00\00\00\00\00\00" }>, align 8
@alloc790 = private unnamed_addr constant <{ [34 x i8] }> <{ [34 x i8] c"An address constraint was violated" }>, align 1
@alloc791 = private unnamed_addr constant <{ i8*, [8 x i8] }> <{ i8* getelementptr inbounds (<{ [34 x i8] }>, <{ [34 x i8] }>* @alloc790, i32 0, i32 0, i32 0), [8 x i8] c"\22\00\00\00\00\00\00\00" }>, align 8
@alloc785 = private unnamed_addr constant <{ [31 x i8] }> <{ [31 x i8] c"A close constraint was violated" }>, align 1
@alloc786 = private unnamed_addr constant <{ i8*, [8 x i8] }> <{ i8* getelementptr inbounds (<{ [31 x i8] }>, <{ [31 x i8] }>* @alloc785, i32 0, i32 0, i32 0), [8 x i8] c"\1F\00\00\00\00\00\00\00" }>, align 8
@alloc780 = private unnamed_addr constant <{ [42 x i8] }> <{ [42 x i8] c"An associated init constraint was violated" }>, align 1
@alloc781 = private unnamed_addr constant <{ i8*, [8 x i8] }> <{ i8* getelementptr inbounds (<{ [42 x i8] }>, <{ [42 x i8] }>* @alloc780, i32 0, i32 0, i32 0), [8 x i8] c"*\00\00\00\00\00\00\00" }>, align 8
@alloc775 = private unnamed_addr constant <{ [37 x i8] }> <{ [37 x i8] c"An associated constraint was violated" }>, align 1
@alloc776 = private unnamed_addr constant <{ i8*, [8 x i8] }> <{ i8* getelementptr inbounds (<{ [37 x i8] }>, <{ [37 x i8] }>* @alloc775, i32 0, i32 0, i32 0), [8 x i8] c"%\00\00\00\00\00\00\00" }>, align 8
@alloc770 = private unnamed_addr constant <{ [31 x i8] }> <{ [31 x i8] c"A state constraint was violated" }>, align 1
@alloc771 = private unnamed_addr constant <{ i8*, [8 x i8] }> <{ i8* getelementptr inbounds (<{ [31 x i8] }>, <{ [31 x i8] }>* @alloc770, i32 0, i32 0, i32 0), [8 x i8] c"\1F\00\00\00\00\00\00\00" }>, align 8
@alloc765 = private unnamed_addr constant <{ [37 x i8] }> <{ [37 x i8] c"An executable constraint was violated" }>, align 1
@alloc766 = private unnamed_addr constant <{ i8*, [8 x i8] }> <{ i8* getelementptr inbounds (<{ [37 x i8] }>, <{ [37 x i8] }>* @alloc765, i32 0, i32 0, i32 0), [8 x i8] c"%\00\00\00\00\00\00\00" }>, align 8
@alloc760 = private unnamed_addr constant <{ [31 x i8] }> <{ [31 x i8] c"A seeds constraint was violated" }>, align 1
@alloc761 = private unnamed_addr constant <{ i8*, [8 x i8] }> <{ i8* getelementptr inbounds (<{ [31 x i8] }>, <{ [31 x i8] }>* @alloc760, i32 0, i32 0, i32 0), [8 x i8] c"\1F\00\00\00\00\00\00\00" }>, align 8
@alloc755 = private unnamed_addr constant <{ [40 x i8] }> <{ [40 x i8] c"A rent exemption constraint was violated" }>, align 1
@alloc756 = private unnamed_addr constant <{ i8*, [8 x i8] }> <{ i8* getelementptr inbounds (<{ [40 x i8] }>, <{ [40 x i8] }>* @alloc755, i32 0, i32 0, i32 0), [8 x i8] c"(\00\00\00\00\00\00\00" }>, align 8
@alloc750 = private unnamed_addr constant <{ [32 x i8] }> <{ [32 x i8] c"An owner constraint was violated" }>, align 1
@alloc751 = private unnamed_addr constant <{ i8*, [8 x i8] }> <{ i8* getelementptr inbounds (<{ [32 x i8] }>, <{ [32 x i8] }>* @alloc750, i32 0, i32 0, i32 0), [8 x i8] c" \00\00\00\00\00\00\00" }>, align 8
@alloc745 = private unnamed_addr constant <{ [29 x i8] }> <{ [29 x i8] c"A raw constraint was violated" }>, align 1
@alloc746 = private unnamed_addr constant <{ i8*, [8 x i8] }> <{ i8* getelementptr inbounds (<{ [29 x i8] }>, <{ [29 x i8] }>* @alloc745, i32 0, i32 0, i32 0), [8 x i8] c"\1D\00\00\00\00\00\00\00" }>, align 8
@alloc740 = private unnamed_addr constant <{ [32 x i8] }> <{ [32 x i8] c"A signer constraint was violated" }>, align 1
@alloc741 = private unnamed_addr constant <{ i8*, [8 x i8] }> <{ i8* getelementptr inbounds (<{ [32 x i8] }>, <{ [32 x i8] }>* @alloc740, i32 0, i32 0, i32 0), [8 x i8] c" \00\00\00\00\00\00\00" }>, align 8
@alloc735 = private unnamed_addr constant <{ [33 x i8] }> <{ [33 x i8] c"A has one constraint was violated" }>, align 1
@alloc736 = private unnamed_addr constant <{ i8*, [8 x i8] }> <{ i8* getelementptr inbounds (<{ [33 x i8] }>, <{ [33 x i8] }>* @alloc735, i32 0, i32 0, i32 0), [8 x i8] c"!\00\00\00\00\00\00\00" }>, align 8
@alloc730 = private unnamed_addr constant <{ [29 x i8] }> <{ [29 x i8] c"A mut constraint was violated" }>, align 1
@alloc731 = private unnamed_addr constant <{ i8*, [8 x i8] }> <{ i8* getelementptr inbounds (<{ [29 x i8] }>, <{ [29 x i8] }>* @alloc730, i32 0, i32 0, i32 0), [8 x i8] c"\1D\00\00\00\00\00\00\00" }>, align 8
@alloc725 = private unnamed_addr constant <{ [44 x i8] }> <{ [44 x i8] c"Invalid program given to the IDL instruction" }>, align 1
@alloc726 = private unnamed_addr constant <{ i8*, [8 x i8] }> <{ i8* getelementptr inbounds (<{ [44 x i8] }>, <{ [44 x i8] }>* @alloc725, i32 0, i32 0, i32 0), [8 x i8] c",\00\00\00\00\00\00\00" }>, align 8
@alloc720 = private unnamed_addr constant <{ [49 x i8] }> <{ [49 x i8] c"The program was compiled without idl instructions" }>, align 1
@alloc721 = private unnamed_addr constant <{ i8*, [8 x i8] }> <{ i8* getelementptr inbounds (<{ [49 x i8] }>, <{ [49 x i8] }>* @alloc720, i32 0, i32 0, i32 0), [8 x i8] c"1\00\00\00\00\00\00\00" }>, align 8
@alloc715 = private unnamed_addr constant <{ [53 x i8] }> <{ [53 x i8] c"The program could not serialize the given instruction" }>, align 1
@alloc716 = private unnamed_addr constant <{ i8*, [8 x i8] }> <{ i8* getelementptr inbounds (<{ [53 x i8] }>, <{ [53 x i8] }>* @alloc715, i32 0, i32 0, i32 0), [8 x i8] c"5\00\00\00\00\00\00\00" }>, align 8
@alloc710 = private unnamed_addr constant <{ [55 x i8] }> <{ [55 x i8] c"The program could not deserialize the given instruction" }>, align 1
@alloc711 = private unnamed_addr constant <{ i8*, [8 x i8] }> <{ i8* getelementptr inbounds (<{ [55 x i8] }>, <{ [55 x i8] }>* @alloc710, i32 0, i32 0, i32 0), [8 x i8] c"7\00\00\00\00\00\00\00" }>, align 8
@alloc705 = private unnamed_addr constant <{ [36 x i8] }> <{ [36 x i8] c"Fallback functions are not supported" }>, align 1
@alloc706 = private unnamed_addr constant <{ i8*, [8 x i8] }> <{ i8* getelementptr inbounds (<{ [36 x i8] }>, <{ [36 x i8] }>* @alloc705, i32 0, i32 0, i32 0), [8 x i8] c"$\00\00\00\00\00\00\00" }>, align 8
@alloc700 = private unnamed_addr constant <{ [42 x i8] }> <{ [42 x i8] c"8 byte instruction identifier not provided" }>, align 1
@alloc701 = private unnamed_addr constant <{ i8*, [8 x i8] }> <{ i8* getelementptr inbounds (<{ [42 x i8] }>, <{ [42 x i8] }>* @alloc700, i32 0, i32 0, i32 0), [8 x i8] c"*\00\00\00\00\00\00\00" }>, align 8
@alloc1274 = private unnamed_addr constant <{ [85 x i8] }> <{ [85 x i8] c"/root/.cargo/registry/src/github.com-1ecc6299db9ec823/anchor-lang-0.20.1/src/error.rs" }>, align 1
@alloc1275 = private unnamed_addr constant <{ i8*, [16 x i8] }> <{ i8* getelementptr inbounds (<{ [85 x i8] }>, <{ [85 x i8] }>* @alloc1274, i32 0, i32 0, i32 0), [16 x i8] c"U\00\00\00\00\00\00\00\0E\00\00\00\01\00\00\00" }>, align 8
@str.8 = internal constant [28 x i8] c"attempt to add with overflow"
@alloc1276 = private unnamed_addr constant <{ [9 x i8] }> <{ [9 x i8] c"ErrorCode" }>, align 1
@vtable.9 = private unnamed_addr constant <{ i8*, [16 x i8], i8*, [0 x i8] }> <{ i8* bitcast (void (i32**)* @"_ZN4core3ptr54drop_in_place$LT$$RF$anchor_lang..error..ErrorCode$GT$17h4244419c319f7a59E" to i8*), [16 x i8] c"\08\00\00\00\00\00\00\00\08\00\00\00\00\00\00\00", i8* bitcast (i1 (i32**, %"std::fmt::Formatter"*)* @"_ZN42_$LT$$RF$T$u20$as$u20$core..fmt..Debug$GT$3fmt17h164c32a82213b60bE" to i8*), [0 x i8] zeroinitializer }>, align 8, !dbg !278
@alloc1280 = private unnamed_addr constant <{ [12 x i8] }> <{ [12 x i8] c"ProgramError" }>, align 1
@vtable.a = private unnamed_addr constant <{ i8*, [16 x i8], i8*, [0 x i8] }> <{ i8* bitcast (void (%"solana_program::program_error::ProgramError"**)* @"_ZN4core3ptr68drop_in_place$LT$$RF$solana_program..program_error..ProgramError$GT$17h5df7c4980ecbde1eE" to i8*), [16 x i8] c"\08\00\00\00\00\00\00\00\08\00\00\00\00\00\00\00", i8* bitcast (i1 (%"solana_program::program_error::ProgramError"**, %"std::fmt::Formatter"*)* @"_ZN42_$LT$$RF$T$u20$as$u20$core..fmt..Debug$GT$3fmt17h61dfeb642f3388b6E" to i8*), [0 x i8] zeroinitializer }>, align 8, !dbg !282
@alloc1284 = private unnamed_addr constant <{ [10 x i8] }> <{ [10 x i8] c"Deprecated" }>, align 1
@alloc1285 = private unnamed_addr constant <{ [19 x i8] }> <{ [19 x i8] c"StateInvalidAddress" }>, align 1
@alloc1286 = private unnamed_addr constant <{ [32 x i8] }> <{ [32 x i8] c"AccountNotAssociatedTokenAccount" }>, align 1
@alloc1287 = private unnamed_addr constant <{ [21 x i8] }> <{ [21 x i8] c"AccountNotProgramData" }>, align 1
@alloc1288 = private unnamed_addr constant <{ [21 x i8] }> <{ [21 x i8] c"AccountNotInitialized" }>, align 1
@alloc1289 = private unnamed_addr constant <{ [21 x i8] }> <{ [21 x i8] c"AccountNotSystemOwned" }>, align 1
@alloc1290 = private unnamed_addr constant <{ [16 x i8] }> <{ [16 x i8] c"AccountNotSigner" }>, align 1
@alloc1291 = private unnamed_addr constant <{ [24 x i8] }> <{ [24 x i8] c"InvalidProgramExecutable" }>, align 1
@alloc1292 = private unnamed_addr constant <{ [16 x i8] }> <{ [16 x i8] c"InvalidProgramId" }>, align 1
@alloc1293 = private unnamed_addr constant <{ [26 x i8] }> <{ [26 x i8] c"AccountOwnedByWrongProgram" }>, align 1
@alloc1294 = private unnamed_addr constant <{ [17 x i8] }> <{ [17 x i8] c"AccountNotMutable" }>, align 1
@alloc1295 = private unnamed_addr constant <{ [20 x i8] }> <{ [20 x i8] c"AccountNotEnoughKeys" }>, align 1
@alloc1296 = private unnamed_addr constant <{ [22 x i8] }> <{ [22 x i8] c"AccountDidNotSerialize" }>, align 1
@alloc1297 = private unnamed_addr constant <{ [24 x i8] }> <{ [24 x i8] c"AccountDidNotDeserialize" }>, align 1
@alloc1298 = private unnamed_addr constant <{ [28 x i8] }> <{ [28 x i8] c"AccountDiscriminatorMismatch" }>, align 1
@alloc1299 = private unnamed_addr constant <{ [28 x i8] }> <{ [28 x i8] c"AccountDiscriminatorNotFound" }>, align 1
@alloc1300 = private unnamed_addr constant <{ [30 x i8] }> <{ [30 x i8] c"AccountDiscriminatorAlreadySet" }>, align 1
@alloc1301 = private unnamed_addr constant <{ [15 x i8] }> <{ [15 x i8] c"ConstraintSpace" }>, align 1
@alloc1302 = private unnamed_addr constant <{ [22 x i8] }> <{ [22 x i8] c"ConstraintMintDecimals" }>, align 1
@alloc1303 = private unnamed_addr constant <{ [29 x i8] }> <{ [29 x i8] c"ConstraintMintFreezeAuthority" }>, align 1
@alloc1304 = private unnamed_addr constant <{ [27 x i8] }> <{ [27 x i8] c"ConstraintMintMintAuthority" }>, align 1
@alloc1305 = private unnamed_addr constant <{ [20 x i8] }> <{ [20 x i8] c"ConstraintTokenOwner" }>, align 1
@alloc1306 = private unnamed_addr constant <{ [19 x i8] }> <{ [19 x i8] c"ConstraintTokenMint" }>, align 1
@alloc1307 = private unnamed_addr constant <{ [14 x i8] }> <{ [14 x i8] c"ConstraintZero" }>, align 1
@alloc1308 = private unnamed_addr constant <{ [17 x i8] }> <{ [17 x i8] c"ConstraintAddress" }>, align 1
@alloc1309 = private unnamed_addr constant <{ [15 x i8] }> <{ [15 x i8] c"ConstraintClose" }>, align 1
@alloc1310 = private unnamed_addr constant <{ [24 x i8] }> <{ [24 x i8] c"ConstraintAssociatedInit" }>, align 1
@alloc1311 = private unnamed_addr constant <{ [20 x i8] }> <{ [20 x i8] c"ConstraintAssociated" }>, align 1
@alloc1312 = private unnamed_addr constant <{ [15 x i8] }> <{ [15 x i8] c"ConstraintState" }>, align 1
@alloc1313 = private unnamed_addr constant <{ [20 x i8] }> <{ [20 x i8] c"ConstraintExecutable" }>, align 1
@alloc1314 = private unnamed_addr constant <{ [15 x i8] }> <{ [15 x i8] c"ConstraintSeeds" }>, align 1
@alloc1315 = private unnamed_addr constant <{ [20 x i8] }> <{ [20 x i8] c"ConstraintRentExempt" }>, align 1
@alloc1316 = private unnamed_addr constant <{ [15 x i8] }> <{ [15 x i8] c"ConstraintOwner" }>, align 1
@alloc1317 = private unnamed_addr constant <{ [13 x i8] }> <{ [13 x i8] c"ConstraintRaw" }>, align 1
@alloc1318 = private unnamed_addr constant <{ [16 x i8] }> <{ [16 x i8] c"ConstraintSigner" }>, align 1
@alloc1319 = private unnamed_addr constant <{ [16 x i8] }> <{ [16 x i8] c"ConstraintHasOne" }>, align 1
@alloc1320 = private unnamed_addr constant <{ [13 x i8] }> <{ [13 x i8] c"ConstraintMut" }>, align 1
@alloc1321 = private unnamed_addr constant <{ [28 x i8] }> <{ [28 x i8] c"IdlInstructionInvalidProgram" }>, align 1
@alloc1322 = private unnamed_addr constant <{ [18 x i8] }> <{ [18 x i8] c"IdlInstructionStub" }>, align 1
@alloc1323 = private unnamed_addr constant <{ [26 x i8] }> <{ [26 x i8] c"InstructionDidNotSerialize" }>, align 1
@alloc1324 = private unnamed_addr constant <{ [28 x i8] }> <{ [28 x i8] c"InstructionDidNotDeserialize" }>, align 1
@alloc1325 = private unnamed_addr constant <{ [27 x i8] }> <{ [27 x i8] c"InstructionFallbackNotFound" }>, align 1
@alloc1326 = private unnamed_addr constant <{ [18 x i8] }> <{ [18 x i8] c"InstructionMissing" }>, align 1
@alloc1018 = private unnamed_addr constant <{ [26 x i8] }> <{ [26 x i8] c"Unexpected variant index: " }>, align 1
@alloc1019 = private unnamed_addr constant <{ i8*, [8 x i8] }> <{ i8* getelementptr inbounds (<{ [26 x i8] }>, <{ [26 x i8] }>* @alloc1018, i32 0, i32 0, i32 0), [8 x i8] c"\1A\00\00\00\00\00\00\00" }>, align 8
@alloc1328 = private unnamed_addr constant <{ i8*, [16 x i8] }> <{ i8* getelementptr inbounds (<{ [83 x i8] }>, <{ [83 x i8] }>* @alloc1329, i32 0, i32 0, i32 0), [16 x i8] c"S\00\00\00\00\00\00\00<\00\00\00\0A\00\00\00" }>, align 8
@alloc1053 = private unnamed_addr constant <{ [8 x i8] }> <{ [8 x i8] c"\18Fb\BF:\90{\9E" }>, align 1
@alloc1330 = private unnamed_addr constant <{ i8*, [16 x i8] }> <{ i8* getelementptr inbounds (<{ [83 x i8] }>, <{ [83 x i8] }>* @alloc1329, i32 0, i32 0, i32 0), [16 x i8] c"S\00\00\00\00\00\00\00Y\00\00\00\01\00\00\00" }>, align 8
@alloc1054 = private unnamed_addr constant <{ i8*, [0 x i8] }> <{ i8* getelementptr inbounds (<{ [8 x i8] }>, <{ [8 x i8] }>* @alloc1053, i32 0, i32 0, i32 0), [0 x i8] zeroinitializer }>, align 8
@alloc1331 = private unnamed_addr constant <{ [10 x i8] }> <{ [10 x i8] c"IdlAccount" }>, align 1
@alloc1332 = private unnamed_addr constant <{ [9 x i8] }> <{ [9 x i8] c"authority" }>, align 1
@vtable.b = private unnamed_addr constant <{ i8*, [16 x i8], i8*, [0 x i8] }> <{ i8* bitcast (void (%"solana_program::pubkey::Pubkey"**)* @"_ZN4core3ptr55drop_in_place$LT$$RF$solana_program..pubkey..Pubkey$GT$17h0eb168e8ffafeb2aE" to i8*), [16 x i8] c"\08\00\00\00\00\00\00\00\08\00\00\00\00\00\00\00", i8* bitcast (i1 (%"solana_program::pubkey::Pubkey"**, %"std::fmt::Formatter"*)* @"_ZN42_$LT$$RF$T$u20$as$u20$core..fmt..Debug$GT$3fmt17hc3f8dc946c58cf0cE" to i8*), [0 x i8] zeroinitializer }>, align 8, !dbg !286
@alloc1336 = private unnamed_addr constant <{ [4 x i8] }> <{ [4 x i8] c"data" }>, align 1
@vtable.c = private unnamed_addr constant <{ i8*, [16 x i8], i8*, [0 x i8] }> <{ i8* bitcast (void (%"std::vec::Vec<u8>"**)* @"_ZN4core3ptr50drop_in_place$LT$$RF$alloc..vec..Vec$LT$u8$GT$$GT$17hd3571a51f00bb1abE" to i8*), [16 x i8] c"\08\00\00\00\00\00\00\00\08\00\00\00\00\00\00\00", i8* bitcast (i1 (%"std::vec::Vec<u8>"**, %"std::fmt::Formatter"*)* @"_ZN42_$LT$$RF$T$u20$as$u20$core..fmt..Debug$GT$3fmt17h5e12d8a12c266649E" to i8*), [0 x i8] zeroinitializer }>, align 8, !dbg !289
@alloc1340 = private unnamed_addr constant <{ [6 x i8] }> <{ [6 x i8] c"System" }>, align 1

; <serde::de::impls::ArrayVisitor<[T; 32]> as serde::de::Visitor>::expecting
; Function Attrs: nounwind
define zeroext i1 @"_ZN100_$LT$serde..de..impls..ArrayVisitor$LT$$u5b$T$u3b$$u20$32$u5d$$GT$$u20$as$u20$serde..de..Visitor$GT$9expecting17h12e32970691bff76E"(%"serde::de::impls::ArrayVisitor<[u8; 32]>"* nonnull align 1 %self, %"std::fmt::Formatter"* align 8 dereferenceable(64) %formatter) unnamed_addr #0 !dbg !375 {
start:
  %formatter.dbg.spill = alloca %"std::fmt::Formatter"*, align 8
  %self.dbg.spill = alloca %"serde::de::impls::ArrayVisitor<[u8; 32]>"*, align 8
  store %"serde::de::impls::ArrayVisitor<[u8; 32]>"* %self, %"serde::de::impls::ArrayVisitor<[u8; 32]>"** %self.dbg.spill, align 8
  call void @llvm.dbg.declare(metadata %"serde::de::impls::ArrayVisitor<[u8; 32]>"** %self.dbg.spill, metadata !413, metadata !DIExpression()), !dbg !415
  store %"std::fmt::Formatter"* %formatter, %"std::fmt::Formatter"** %formatter.dbg.spill, align 8
  call void @llvm.dbg.declare(metadata %"std::fmt::Formatter"** %formatter.dbg.spill, metadata !414, metadata !DIExpression()), !dbg !416
; call core::fmt::Formatter::write_str
  %0 = call zeroext i1 @_ZN4core3fmt9Formatter9write_str17h1c97a1e0c2250458E(%"std::fmt::Formatter"* align 8 dereferenceable(64) %formatter, [0 x i8]* nonnull align 1 bitcast (<{ [21 x i8] }>* @alloc1159 to [0 x i8]*), i64 21), !dbg !417
  br label %bb1, !dbg !417

bb1:                                              ; preds = %start
  ret i1 %0, !dbg !418
}

; <serde::de::impls::ArrayVisitor<[T; 32]> as serde::de::Visitor>::visit_seq
; Function Attrs: inlinehint nounwind
define void @"_ZN100_$LT$serde..de..impls..ArrayVisitor$LT$$u5b$T$u3b$$u20$32$u5d$$GT$$u20$as$u20$serde..de..Visitor$GT$9visit_seq17hfdd081ceacd65edcE"(%"std::result::Result<[u8; 32], std::boxed::Box<bincode::ErrorKind>>"* noalias nocapture sret(%"std::result::Result<[u8; 32], std::boxed::Box<bincode::ErrorKind>>") dereferenceable(40) %0, i64* align 8 dereferenceable(16) %1, i64 %2) unnamed_addr #1 !dbg !419 {
start:
  %val.dbg.spill218 = alloca i8, align 1
  %val.dbg.spill216 = alloca { i8, i8 }, align 1
  %err.dbg.spill213 = alloca %"bincode::ErrorKind"*, align 8
  %3 = alloca i128, align 8
  %val.dbg.spill211 = alloca i8, align 1
  %val.dbg.spill209 = alloca { i8, i8 }, align 1
  %err.dbg.spill206 = alloca %"bincode::ErrorKind"*, align 8
  %4 = alloca i128, align 8
  %val.dbg.spill204 = alloca i8, align 1
  %val.dbg.spill202 = alloca { i8, i8 }, align 1
  %err.dbg.spill199 = alloca %"bincode::ErrorKind"*, align 8
  %5 = alloca i128, align 8
  %val.dbg.spill197 = alloca i8, align 1
  %val.dbg.spill195 = alloca { i8, i8 }, align 1
  %err.dbg.spill192 = alloca %"bincode::ErrorKind"*, align 8
  %6 = alloca i128, align 8
  %val.dbg.spill190 = alloca i8, align 1
  %val.dbg.spill188 = alloca { i8, i8 }, align 1
  %err.dbg.spill185 = alloca %"bincode::ErrorKind"*, align 8
  %7 = alloca i128, align 8
  %val.dbg.spill183 = alloca i8, align 1
  %val.dbg.spill181 = alloca { i8, i8 }, align 1
  %err.dbg.spill178 = alloca %"bincode::ErrorKind"*, align 8
  %8 = alloca i128, align 8
  %val.dbg.spill176 = alloca i8, align 1
  %val.dbg.spill174 = alloca { i8, i8 }, align 1
  %err.dbg.spill171 = alloca %"bincode::ErrorKind"*, align 8
  %9 = alloca i128, align 8
  %val.dbg.spill169 = alloca i8, align 1
  %val.dbg.spill167 = alloca { i8, i8 }, align 1
  %err.dbg.spill164 = alloca %"bincode::ErrorKind"*, align 8
  %10 = alloca i128, align 8
  %val.dbg.spill162 = alloca i8, align 1
  %val.dbg.spill160 = alloca { i8, i8 }, align 1
  %err.dbg.spill157 = alloca %"bincode::ErrorKind"*, align 8
  %11 = alloca i128, align 8
  %val.dbg.spill155 = alloca i8, align 1
  %val.dbg.spill153 = alloca { i8, i8 }, align 1
  %err.dbg.spill150 = alloca %"bincode::ErrorKind"*, align 8
  %12 = alloca i128, align 8
  %val.dbg.spill148 = alloca i8, align 1
  %val.dbg.spill146 = alloca { i8, i8 }, align 1
  %err.dbg.spill143 = alloca %"bincode::ErrorKind"*, align 8
  %13 = alloca i128, align 8
  %val.dbg.spill141 = alloca i8, align 1
  %val.dbg.spill139 = alloca { i8, i8 }, align 1
  %err.dbg.spill136 = alloca %"bincode::ErrorKind"*, align 8
  %14 = alloca i128, align 8
  %val.dbg.spill134 = alloca i8, align 1
  %val.dbg.spill132 = alloca { i8, i8 }, align 1
  %err.dbg.spill129 = alloca %"bincode::ErrorKind"*, align 8
  %15 = alloca i128, align 8
  %val.dbg.spill127 = alloca i8, align 1
  %val.dbg.spill125 = alloca { i8, i8 }, align 1
  %err.dbg.spill122 = alloca %"bincode::ErrorKind"*, align 8
  %16 = alloca i128, align 8
  %val.dbg.spill120 = alloca i8, align 1
  %val.dbg.spill118 = alloca { i8, i8 }, align 1
  %err.dbg.spill115 = alloca %"bincode::ErrorKind"*, align 8
  %17 = alloca i128, align 8
  %val.dbg.spill113 = alloca i8, align 1
  %val.dbg.spill111 = alloca { i8, i8 }, align 1
  %err.dbg.spill108 = alloca %"bincode::ErrorKind"*, align 8
  %18 = alloca i128, align 8
  %val.dbg.spill106 = alloca i8, align 1
  %val.dbg.spill104 = alloca { i8, i8 }, align 1
  %err.dbg.spill101 = alloca %"bincode::ErrorKind"*, align 8
  %19 = alloca i128, align 8
  %val.dbg.spill99 = alloca i8, align 1
  %val.dbg.spill97 = alloca { i8, i8 }, align 1
  %err.dbg.spill94 = alloca %"bincode::ErrorKind"*, align 8
  %20 = alloca i128, align 8
  %val.dbg.spill92 = alloca i8, align 1
  %val.dbg.spill90 = alloca { i8, i8 }, align 1
  %err.dbg.spill87 = alloca %"bincode::ErrorKind"*, align 8
  %21 = alloca i128, align 8
  %val.dbg.spill85 = alloca i8, align 1
  %val.dbg.spill83 = alloca { i8, i8 }, align 1
  %err.dbg.spill80 = alloca %"bincode::ErrorKind"*, align 8
  %22 = alloca i128, align 8
  %val.dbg.spill78 = alloca i8, align 1
  %val.dbg.spill76 = alloca { i8, i8 }, align 1
  %err.dbg.spill73 = alloca %"bincode::ErrorKind"*, align 8
  %23 = alloca i128, align 8
  %val.dbg.spill71 = alloca i8, align 1
  %val.dbg.spill69 = alloca { i8, i8 }, align 1
  %err.dbg.spill66 = alloca %"bincode::ErrorKind"*, align 8
  %24 = alloca i128, align 8
  %val.dbg.spill64 = alloca i8, align 1
  %val.dbg.spill62 = alloca { i8, i8 }, align 1
  %err.dbg.spill59 = alloca %"bincode::ErrorKind"*, align 8
  %25 = alloca i128, align 8
  %val.dbg.spill57 = alloca i8, align 1
  %val.dbg.spill55 = alloca { i8, i8 }, align 1
  %err.dbg.spill52 = alloca %"bincode::ErrorKind"*, align 8
  %26 = alloca i128, align 8
  %val.dbg.spill50 = alloca i8, align 1
  %val.dbg.spill48 = alloca { i8, i8 }, align 1
  %err.dbg.spill45 = alloca %"bincode::ErrorKind"*, align 8
  %27 = alloca i128, align 8
  %val.dbg.spill43 = alloca i8, align 1
  %val.dbg.spill41 = alloca { i8, i8 }, align 1
  %err.dbg.spill38 = alloca %"bincode::ErrorKind"*, align 8
  %28 = alloca i128, align 8
  %val.dbg.spill36 = alloca i8, align 1
  %val.dbg.spill34 = alloca { i8, i8 }, align 1
  %err.dbg.spill31 = alloca %"bincode::ErrorKind"*, align 8
  %29 = alloca i128, align 8
  %val.dbg.spill29 = alloca i8, align 1
  %val.dbg.spill27 = alloca { i8, i8 }, align 1
  %err.dbg.spill24 = alloca %"bincode::ErrorKind"*, align 8
  %30 = alloca i128, align 8
  %val.dbg.spill22 = alloca i8, align 1
  %val.dbg.spill20 = alloca { i8, i8 }, align 1
  %err.dbg.spill17 = alloca %"bincode::ErrorKind"*, align 8
  %31 = alloca i128, align 8
  %val.dbg.spill15 = alloca i8, align 1
  %val.dbg.spill13 = alloca { i8, i8 }, align 1
  %err.dbg.spill10 = alloca %"bincode::ErrorKind"*, align 8
  %32 = alloca i128, align 8
  %val.dbg.spill8 = alloca i8, align 1
  %val.dbg.spill6 = alloca { i8, i8 }, align 1
  %err.dbg.spill3 = alloca %"bincode::ErrorKind"*, align 8
  %33 = alloca i128, align 8
  %val.dbg.spill1 = alloca i8, align 1
  %val.dbg.spill = alloca { i8, i8 }, align 1
  %err.dbg.spill = alloca %"bincode::ErrorKind"*, align 8
  %34 = alloca i128, align 8
  %_471 = alloca %"std::result::Result<std::option::Option<u8>, std::boxed::Box<bincode::ErrorKind>>", align 8
  %_470 = alloca { i8, i8 }, align 1
  %_456 = alloca %"std::result::Result<std::option::Option<u8>, std::boxed::Box<bincode::ErrorKind>>", align 8
  %_455 = alloca { i8, i8 }, align 1
  %_441 = alloca %"std::result::Result<std::option::Option<u8>, std::boxed::Box<bincode::ErrorKind>>", align 8
  %_440 = alloca { i8, i8 }, align 1
  %_426 = alloca %"std::result::Result<std::option::Option<u8>, std::boxed::Box<bincode::ErrorKind>>", align 8
  %_425 = alloca { i8, i8 }, align 1
  %_411 = alloca %"std::result::Result<std::option::Option<u8>, std::boxed::Box<bincode::ErrorKind>>", align 8
  %_410 = alloca { i8, i8 }, align 1
  %_396 = alloca %"std::result::Result<std::option::Option<u8>, std::boxed::Box<bincode::ErrorKind>>", align 8
  %_395 = alloca { i8, i8 }, align 1
  %_381 = alloca %"std::result::Result<std::option::Option<u8>, std::boxed::Box<bincode::ErrorKind>>", align 8
  %_380 = alloca { i8, i8 }, align 1
  %_366 = alloca %"std::result::Result<std::option::Option<u8>, std::boxed::Box<bincode::ErrorKind>>", align 8
  %_365 = alloca { i8, i8 }, align 1
  %_351 = alloca %"std::result::Result<std::option::Option<u8>, std::boxed::Box<bincode::ErrorKind>>", align 8
  %_350 = alloca { i8, i8 }, align 1
  %_336 = alloca %"std::result::Result<std::option::Option<u8>, std::boxed::Box<bincode::ErrorKind>>", align 8
  %_335 = alloca { i8, i8 }, align 1
  %_321 = alloca %"std::result::Result<std::option::Option<u8>, std::boxed::Box<bincode::ErrorKind>>", align 8
  %_320 = alloca { i8, i8 }, align 1
  %_306 = alloca %"std::result::Result<std::option::Option<u8>, std::boxed::Box<bincode::ErrorKind>>", align 8
  %_305 = alloca { i8, i8 }, align 1
  %_291 = alloca %"std::result::Result<std::option::Option<u8>, std::boxed::Box<bincode::ErrorKind>>", align 8
  %_290 = alloca { i8, i8 }, align 1
  %_276 = alloca %"std::result::Result<std::option::Option<u8>, std::boxed::Box<bincode::ErrorKind>>", align 8
  %_275 = alloca { i8, i8 }, align 1
  %_261 = alloca %"std::result::Result<std::option::Option<u8>, std::boxed::Box<bincode::ErrorKind>>", align 8
  %_260 = alloca { i8, i8 }, align 1
  %_246 = alloca %"std::result::Result<std::option::Option<u8>, std::boxed::Box<bincode::ErrorKind>>", align 8
  %_245 = alloca { i8, i8 }, align 1
  %_231 = alloca %"std::result::Result<std::option::Option<u8>, std::boxed::Box<bincode::ErrorKind>>", align 8
  %_230 = alloca { i8, i8 }, align 1
  %_216 = alloca %"std::result::Result<std::option::Option<u8>, std::boxed::Box<bincode::ErrorKind>>", align 8
  %_215 = alloca { i8, i8 }, align 1
  %_201 = alloca %"std::result::Result<std::option::Option<u8>, std::boxed::Box<bincode::ErrorKind>>", align 8
  %_200 = alloca { i8, i8 }, align 1
  %_186 = alloca %"std::result::Result<std::option::Option<u8>, std::boxed::Box<bincode::ErrorKind>>", align 8
  %_185 = alloca { i8, i8 }, align 1
  %_171 = alloca %"std::result::Result<std::option::Option<u8>, std::boxed::Box<bincode::ErrorKind>>", align 8
  %_170 = alloca { i8, i8 }, align 1
  %_156 = alloca %"std::result::Result<std::option::Option<u8>, std::boxed::Box<bincode::ErrorKind>>", align 8
  %_155 = alloca { i8, i8 }, align 1
  %_141 = alloca %"std::result::Result<std::option::Option<u8>, std::boxed::Box<bincode::ErrorKind>>", align 8
  %_140 = alloca { i8, i8 }, align 1
  %_126 = alloca %"std::result::Result<std::option::Option<u8>, std::boxed::Box<bincode::ErrorKind>>", align 8
  %_125 = alloca { i8, i8 }, align 1
  %_111 = alloca %"std::result::Result<std::option::Option<u8>, std::boxed::Box<bincode::ErrorKind>>", align 8
  %_110 = alloca { i8, i8 }, align 1
  %_96 = alloca %"std::result::Result<std::option::Option<u8>, std::boxed::Box<bincode::ErrorKind>>", align 8
  %_95 = alloca { i8, i8 }, align 1
  %_81 = alloca %"std::result::Result<std::option::Option<u8>, std::boxed::Box<bincode::ErrorKind>>", align 8
  %_80 = alloca { i8, i8 }, align 1
  %_66 = alloca %"std::result::Result<std::option::Option<u8>, std::boxed::Box<bincode::ErrorKind>>", align 8
  %_65 = alloca { i8, i8 }, align 1
  %_51 = alloca %"std::result::Result<std::option::Option<u8>, std::boxed::Box<bincode::ErrorKind>>", align 8
  %_50 = alloca { i8, i8 }, align 1
  %_36 = alloca %"std::result::Result<std::option::Option<u8>, std::boxed::Box<bincode::ErrorKind>>", align 8
  %_35 = alloca { i8, i8 }, align 1
  %_21 = alloca %"std::result::Result<std::option::Option<u8>, std::boxed::Box<bincode::ErrorKind>>", align 8
  %_20 = alloca { i8, i8 }, align 1
  %_6 = alloca %"std::result::Result<std::option::Option<u8>, std::boxed::Box<bincode::ErrorKind>>", align 8
  %_5 = alloca { i8, i8 }, align 1
  %_3 = alloca [32 x i8], align 1
  %seq = alloca { i64*, i64 }, align 8
  %self = alloca %"serde::de::impls::ArrayVisitor<[u8; 32]>", align 1
  %35 = getelementptr inbounds { i64*, i64 }, { i64*, i64 }* %seq, i32 0, i32 0
  store i64* %1, i64** %35, align 8
  %36 = getelementptr inbounds { i64*, i64 }, { i64*, i64 }* %seq, i32 0, i32 1
  store i64 %2, i64* %36, align 8
  call void @llvm.dbg.declare(metadata %"serde::de::impls::ArrayVisitor<[u8; 32]>"* %self, metadata !593, metadata !DIExpression()), !dbg !854
  call void @llvm.dbg.declare(metadata { i64*, i64 }* %seq, metadata !594, metadata !DIExpression()), !dbg !855
; call serde::de::SeqAccess::next_element
  %37 = call i128 @_ZN5serde2de9SeqAccess12next_element17hab3df56b4dd3231eE({ i64*, i64 }* align 8 dereferenceable(16) %seq), !dbg !856
  store i128 %37, i128* %34, align 8, !dbg !856
  %38 = bitcast %"std::result::Result<std::option::Option<u8>, std::boxed::Box<bincode::ErrorKind>>"* %_6 to i8*, !dbg !856
  %39 = bitcast i128* %34 to i8*, !dbg !856
  call void @llvm.memcpy.p0i8.p0i8.i64(i8* align 8 %38, i8* align 8 %39, i64 16, i1 false), !dbg !856
  br label %bb1, !dbg !856

bb1:                                              ; preds = %start
  %40 = bitcast %"std::result::Result<std::option::Option<u8>, std::boxed::Box<bincode::ErrorKind>>"* %_6 to i8*, !dbg !856
  %41 = load i8, i8* %40, align 8, !dbg !856, !range !857
  %42 = trunc i8 %41 to i1, !dbg !856
  %_8 = zext i1 %42 to i64, !dbg !856
  switch i64 %_8, label %bb3 [
    i64 0, label %bb4
    i64 1, label %bb2
  ], !dbg !858

bb3:                                              ; preds = %bb1
  unreachable, !dbg !856

bb4:                                              ; preds = %bb1
  %43 = bitcast %"std::result::Result<std::option::Option<u8>, std::boxed::Box<bincode::ErrorKind>>"* %_6 to %"std::result::Result<std::option::Option<u8>, std::boxed::Box<bincode::ErrorKind>>::Ok"*, !dbg !858
  %44 = getelementptr inbounds %"std::result::Result<std::option::Option<u8>, std::boxed::Box<bincode::ErrorKind>>::Ok", %"std::result::Result<std::option::Option<u8>, std::boxed::Box<bincode::ErrorKind>>::Ok"* %43, i32 0, i32 1, !dbg !858
  %45 = getelementptr inbounds { i8, i8 }, { i8, i8 }* %44, i32 0, i32 0, !dbg !858
  %46 = load i8, i8* %45, align 1, !dbg !858, !range !857
  %val.0 = trunc i8 %46 to i1, !dbg !858
  %47 = getelementptr inbounds { i8, i8 }, { i8, i8 }* %44, i32 0, i32 1, !dbg !858
  %val.1 = load i8, i8* %47, align 1, !dbg !858
  %48 = getelementptr inbounds { i8, i8 }, { i8, i8 }* %val.dbg.spill, i32 0, i32 0, !dbg !858
  %49 = zext i1 %val.0 to i8, !dbg !858
  store i8 %49, i8* %48, align 1, !dbg !858
  %50 = getelementptr inbounds { i8, i8 }, { i8, i8 }* %val.dbg.spill, i32 0, i32 1, !dbg !858
  store i8 %val.1, i8* %50, align 1, !dbg !858
  call void @llvm.dbg.declare(metadata { i8, i8 }* %val.dbg.spill, metadata !595, metadata !DIExpression()), !dbg !859
  %51 = getelementptr inbounds { i8, i8 }, { i8, i8 }* %_5, i32 0, i32 0, !dbg !859
  %52 = zext i1 %val.0 to i8, !dbg !859
  store i8 %52, i8* %51, align 1, !dbg !859
  %53 = getelementptr inbounds { i8, i8 }, { i8, i8 }* %_5, i32 0, i32 1, !dbg !859
  store i8 %val.1, i8* %53, align 1, !dbg !859
  %54 = bitcast { i8, i8 }* %_5 to i8*, !dbg !858
  %55 = load i8, i8* %54, align 1, !dbg !858, !range !857
  %56 = trunc i8 %55 to i1, !dbg !858
  %_13 = zext i1 %56 to i64, !dbg !858
  switch i64 %_13, label %bb7 [
    i64 0, label %bb6
    i64 1, label %bb8
  ], !dbg !860

bb2:                                              ; preds = %bb1
  %57 = bitcast %"std::result::Result<std::option::Option<u8>, std::boxed::Box<bincode::ErrorKind>>"* %_6 to %"std::result::Result<std::option::Option<u8>, std::boxed::Box<bincode::ErrorKind>>::Err"*, !dbg !858
  %58 = getelementptr inbounds %"std::result::Result<std::option::Option<u8>, std::boxed::Box<bincode::ErrorKind>>::Err", %"std::result::Result<std::option::Option<u8>, std::boxed::Box<bincode::ErrorKind>>::Err"* %57, i32 0, i32 1, !dbg !858
  %err = load %"bincode::ErrorKind"*, %"bincode::ErrorKind"** %58, align 8, !dbg !858, !nonnull !4
  store %"bincode::ErrorKind"* %err, %"bincode::ErrorKind"** %err.dbg.spill, align 8, !dbg !858
  call void @llvm.dbg.declare(metadata %"bincode::ErrorKind"** %err.dbg.spill, metadata !599, metadata !DIExpression()), !dbg !863
; call <T as core::convert::From<T>>::from
  %_11 = call noalias nonnull align 8 %"bincode::ErrorKind"* @"_ZN50_$LT$T$u20$as$u20$core..convert..From$LT$T$GT$$GT$4from17ha11598da122a93ebE"(%"bincode::ErrorKind"* noalias nonnull align 8 %err), !dbg !863
  br label %bb5, !dbg !863

bb5:                                              ; preds = %bb2
  %59 = bitcast %"std::result::Result<[u8; 32], std::boxed::Box<bincode::ErrorKind>>"* %0 to %"std::result::Result<[u8; 32], std::boxed::Box<bincode::ErrorKind>>::Err"*, !dbg !863
  %60 = getelementptr inbounds %"std::result::Result<[u8; 32], std::boxed::Box<bincode::ErrorKind>>::Err", %"std::result::Result<[u8; 32], std::boxed::Box<bincode::ErrorKind>>::Err"* %59, i32 0, i32 1, !dbg !863
  store %"bincode::ErrorKind"* %_11, %"bincode::ErrorKind"** %60, align 8, !dbg !863
  %61 = bitcast %"std::result::Result<[u8; 32], std::boxed::Box<bincode::ErrorKind>>"* %0 to i8*, !dbg !863
  store i8 1, i8* %61, align 8, !dbg !863
  br label %bb1220, !dbg !860

bb1220:                                           ; preds = %bb1283, %bb5
  br label %bb1221, !dbg !864

bb7:                                              ; preds = %bb4
  unreachable, !dbg !858

bb6:                                              ; preds = %bb4
  %_16.0 = bitcast %"serde::de::impls::ArrayVisitor<[u8; 32]>"* %self to {}*, !dbg !865
; call serde::de::Error::invalid_length
  %_15 = call noalias nonnull align 8 %"bincode::ErrorKind"* @_ZN5serde2de5Error14invalid_length17h238c3f97e0eec12fE(i64 0, {}* nonnull align 1 %_16.0, [3 x i64]* align 8 dereferenceable(24) bitcast (<{ i8*, [16 x i8], i8*, [0 x i8] }>* @vtable.0 to [3 x i64]*)), !dbg !866
  br label %bb9, !dbg !866

bb8:                                              ; preds = %bb4
  %62 = bitcast { i8, i8 }* %_5 to %"std::option::Option<u8>::Some"*, !dbg !867
  %63 = getelementptr inbounds %"std::option::Option<u8>::Some", %"std::option::Option<u8>::Some"* %62, i32 0, i32 1, !dbg !867
  %val = load i8, i8* %63, align 1, !dbg !867
  store i8 %val, i8* %val.dbg.spill1, align 1, !dbg !867
  call void @llvm.dbg.declare(metadata i8* %val.dbg.spill1, metadata !602, metadata !DIExpression()), !dbg !868
; call serde::de::SeqAccess::next_element
  %64 = call i128 @_ZN5serde2de9SeqAccess12next_element17hab3df56b4dd3231eE({ i64*, i64 }* align 8 dereferenceable(16) %seq), !dbg !856
  store i128 %64, i128* %33, align 8, !dbg !856
  %65 = bitcast %"std::result::Result<std::option::Option<u8>, std::boxed::Box<bincode::ErrorKind>>"* %_21 to i8*, !dbg !856
  %66 = bitcast i128* %33 to i8*, !dbg !856
  call void @llvm.memcpy.p0i8.p0i8.i64(i8* align 8 %65, i8* align 8 %66, i64 16, i1 false), !dbg !856
  br label %bb10, !dbg !856

bb10:                                             ; preds = %bb8
  %67 = bitcast %"std::result::Result<std::option::Option<u8>, std::boxed::Box<bincode::ErrorKind>>"* %_21 to i8*, !dbg !856
  %68 = load i8, i8* %67, align 8, !dbg !856, !range !857
  %69 = trunc i8 %68 to i1, !dbg !856
  %_23 = zext i1 %69 to i64, !dbg !856
  switch i64 %_23, label %bb12 [
    i64 0, label %bb13
    i64 1, label %bb11
  ], !dbg !858

bb12:                                             ; preds = %bb10
  unreachable, !dbg !856

bb13:                                             ; preds = %bb10
  %70 = bitcast %"std::result::Result<std::option::Option<u8>, std::boxed::Box<bincode::ErrorKind>>"* %_21 to %"std::result::Result<std::option::Option<u8>, std::boxed::Box<bincode::ErrorKind>>::Ok"*, !dbg !858
  %71 = getelementptr inbounds %"std::result::Result<std::option::Option<u8>, std::boxed::Box<bincode::ErrorKind>>::Ok", %"std::result::Result<std::option::Option<u8>, std::boxed::Box<bincode::ErrorKind>>::Ok"* %70, i32 0, i32 1, !dbg !858
  %72 = getelementptr inbounds { i8, i8 }, { i8, i8 }* %71, i32 0, i32 0, !dbg !858
  %73 = load i8, i8* %72, align 1, !dbg !858, !range !857
  %val.04 = trunc i8 %73 to i1, !dbg !858
  %74 = getelementptr inbounds { i8, i8 }, { i8, i8 }* %71, i32 0, i32 1, !dbg !858
  %val.15 = load i8, i8* %74, align 1, !dbg !858
  %75 = getelementptr inbounds { i8, i8 }, { i8, i8 }* %val.dbg.spill6, i32 0, i32 0, !dbg !858
  %76 = zext i1 %val.04 to i8, !dbg !858
  store i8 %76, i8* %75, align 1, !dbg !858
  %77 = getelementptr inbounds { i8, i8 }, { i8, i8 }* %val.dbg.spill6, i32 0, i32 1, !dbg !858
  store i8 %val.15, i8* %77, align 1, !dbg !858
  call void @llvm.dbg.declare(metadata { i8, i8 }* %val.dbg.spill6, metadata !604, metadata !DIExpression()), !dbg !869
  %78 = getelementptr inbounds { i8, i8 }, { i8, i8 }* %_20, i32 0, i32 0, !dbg !869
  %79 = zext i1 %val.04 to i8, !dbg !869
  store i8 %79, i8* %78, align 1, !dbg !869
  %80 = getelementptr inbounds { i8, i8 }, { i8, i8 }* %_20, i32 0, i32 1, !dbg !869
  store i8 %val.15, i8* %80, align 1, !dbg !869
  %81 = bitcast { i8, i8 }* %_20 to i8*, !dbg !858
  %82 = load i8, i8* %81, align 1, !dbg !858, !range !857
  %83 = trunc i8 %82 to i1, !dbg !858
  %_28 = zext i1 %83 to i64, !dbg !858
  switch i64 %_28, label %bb16 [
    i64 0, label %bb15
    i64 1, label %bb17
  ], !dbg !860

bb11:                                             ; preds = %bb10
  %84 = bitcast %"std::result::Result<std::option::Option<u8>, std::boxed::Box<bincode::ErrorKind>>"* %_21 to %"std::result::Result<std::option::Option<u8>, std::boxed::Box<bincode::ErrorKind>>::Err"*, !dbg !858
  %85 = getelementptr inbounds %"std::result::Result<std::option::Option<u8>, std::boxed::Box<bincode::ErrorKind>>::Err", %"std::result::Result<std::option::Option<u8>, std::boxed::Box<bincode::ErrorKind>>::Err"* %84, i32 0, i32 1, !dbg !858
  %err2 = load %"bincode::ErrorKind"*, %"bincode::ErrorKind"** %85, align 8, !dbg !858, !nonnull !4
  store %"bincode::ErrorKind"* %err2, %"bincode::ErrorKind"** %err.dbg.spill3, align 8, !dbg !858
  call void @llvm.dbg.declare(metadata %"bincode::ErrorKind"** %err.dbg.spill3, metadata !607, metadata !DIExpression()), !dbg !870
; call <T as core::convert::From<T>>::from
  %_26 = call noalias nonnull align 8 %"bincode::ErrorKind"* @"_ZN50_$LT$T$u20$as$u20$core..convert..From$LT$T$GT$$GT$4from17ha11598da122a93ebE"(%"bincode::ErrorKind"* noalias nonnull align 8 %err2), !dbg !870
  br label %bb14, !dbg !870

bb14:                                             ; preds = %bb11
  %86 = bitcast %"std::result::Result<[u8; 32], std::boxed::Box<bincode::ErrorKind>>"* %0 to %"std::result::Result<[u8; 32], std::boxed::Box<bincode::ErrorKind>>::Err"*, !dbg !870
  %87 = getelementptr inbounds %"std::result::Result<[u8; 32], std::boxed::Box<bincode::ErrorKind>>::Err", %"std::result::Result<[u8; 32], std::boxed::Box<bincode::ErrorKind>>::Err"* %86, i32 0, i32 1, !dbg !870
  store %"bincode::ErrorKind"* %_26, %"bincode::ErrorKind"** %87, align 8, !dbg !870
  %88 = bitcast %"std::result::Result<[u8; 32], std::boxed::Box<bincode::ErrorKind>>"* %0 to i8*, !dbg !870
  store i8 1, i8* %88, align 8, !dbg !870
  br label %bb1282, !dbg !871

bb1282:                                           ; preds = %bb1281, %bb14
  br label %bb1283, !dbg !860

bb16:                                             ; preds = %bb13
  unreachable, !dbg !858

bb15:                                             ; preds = %bb13
  %_31.0 = bitcast %"serde::de::impls::ArrayVisitor<[u8; 32]>"* %self to {}*, !dbg !865
; call serde::de::Error::invalid_length
  %_30 = call noalias nonnull align 8 %"bincode::ErrorKind"* @_ZN5serde2de5Error14invalid_length17h238c3f97e0eec12fE(i64 1, {}* nonnull align 1 %_31.0, [3 x i64]* align 8 dereferenceable(24) bitcast (<{ i8*, [16 x i8], i8*, [0 x i8] }>* @vtable.0 to [3 x i64]*)), !dbg !866
  br label %bb18, !dbg !866

bb17:                                             ; preds = %bb13
  %89 = bitcast { i8, i8 }* %_20 to %"std::option::Option<u8>::Some"*, !dbg !867
  %90 = getelementptr inbounds %"std::option::Option<u8>::Some", %"std::option::Option<u8>::Some"* %89, i32 0, i32 1, !dbg !867
  %val7 = load i8, i8* %90, align 1, !dbg !867
  store i8 %val7, i8* %val.dbg.spill8, align 1, !dbg !867
  call void @llvm.dbg.declare(metadata i8* %val.dbg.spill8, metadata !610, metadata !DIExpression()), !dbg !872
; call serde::de::SeqAccess::next_element
  %91 = call i128 @_ZN5serde2de9SeqAccess12next_element17hab3df56b4dd3231eE({ i64*, i64 }* align 8 dereferenceable(16) %seq), !dbg !856
  store i128 %91, i128* %32, align 8, !dbg !856
  %92 = bitcast %"std::result::Result<std::option::Option<u8>, std::boxed::Box<bincode::ErrorKind>>"* %_36 to i8*, !dbg !856
  %93 = bitcast i128* %32 to i8*, !dbg !856
  call void @llvm.memcpy.p0i8.p0i8.i64(i8* align 8 %92, i8* align 8 %93, i64 16, i1 false), !dbg !856
  br label %bb19, !dbg !856

bb19:                                             ; preds = %bb17
  %94 = bitcast %"std::result::Result<std::option::Option<u8>, std::boxed::Box<bincode::ErrorKind>>"* %_36 to i8*, !dbg !856
  %95 = load i8, i8* %94, align 8, !dbg !856, !range !857
  %96 = trunc i8 %95 to i1, !dbg !856
  %_38 = zext i1 %96 to i64, !dbg !856
  switch i64 %_38, label %bb21 [
    i64 0, label %bb22
    i64 1, label %bb20
  ], !dbg !858

bb21:                                             ; preds = %bb19
  unreachable, !dbg !856

bb22:                                             ; preds = %bb19
  %97 = bitcast %"std::result::Result<std::option::Option<u8>, std::boxed::Box<bincode::ErrorKind>>"* %_36 to %"std::result::Result<std::option::Option<u8>, std::boxed::Box<bincode::ErrorKind>>::Ok"*, !dbg !858
  %98 = getelementptr inbounds %"std::result::Result<std::option::Option<u8>, std::boxed::Box<bincode::ErrorKind>>::Ok", %"std::result::Result<std::option::Option<u8>, std::boxed::Box<bincode::ErrorKind>>::Ok"* %97, i32 0, i32 1, !dbg !858
  %99 = getelementptr inbounds { i8, i8 }, { i8, i8 }* %98, i32 0, i32 0, !dbg !858
  %100 = load i8, i8* %99, align 1, !dbg !858, !range !857
  %val.011 = trunc i8 %100 to i1, !dbg !858
  %101 = getelementptr inbounds { i8, i8 }, { i8, i8 }* %98, i32 0, i32 1, !dbg !858
  %val.112 = load i8, i8* %101, align 1, !dbg !858
  %102 = getelementptr inbounds { i8, i8 }, { i8, i8 }* %val.dbg.spill13, i32 0, i32 0, !dbg !858
  %103 = zext i1 %val.011 to i8, !dbg !858
  store i8 %103, i8* %102, align 1, !dbg !858
  %104 = getelementptr inbounds { i8, i8 }, { i8, i8 }* %val.dbg.spill13, i32 0, i32 1, !dbg !858
  store i8 %val.112, i8* %104, align 1, !dbg !858
  call void @llvm.dbg.declare(metadata { i8, i8 }* %val.dbg.spill13, metadata !612, metadata !DIExpression()), !dbg !873
  %105 = getelementptr inbounds { i8, i8 }, { i8, i8 }* %_35, i32 0, i32 0, !dbg !873
  %106 = zext i1 %val.011 to i8, !dbg !873
  store i8 %106, i8* %105, align 1, !dbg !873
  %107 = getelementptr inbounds { i8, i8 }, { i8, i8 }* %_35, i32 0, i32 1, !dbg !873
  store i8 %val.112, i8* %107, align 1, !dbg !873
  %108 = bitcast { i8, i8 }* %_35 to i8*, !dbg !858
  %109 = load i8, i8* %108, align 1, !dbg !858, !range !857
  %110 = trunc i8 %109 to i1, !dbg !858
  %_43 = zext i1 %110 to i64, !dbg !858
  switch i64 %_43, label %bb25 [
    i64 0, label %bb24
    i64 1, label %bb26
  ], !dbg !860

bb20:                                             ; preds = %bb19
  %111 = bitcast %"std::result::Result<std::option::Option<u8>, std::boxed::Box<bincode::ErrorKind>>"* %_36 to %"std::result::Result<std::option::Option<u8>, std::boxed::Box<bincode::ErrorKind>>::Err"*, !dbg !858
  %112 = getelementptr inbounds %"std::result::Result<std::option::Option<u8>, std::boxed::Box<bincode::ErrorKind>>::Err", %"std::result::Result<std::option::Option<u8>, std::boxed::Box<bincode::ErrorKind>>::Err"* %111, i32 0, i32 1, !dbg !858
  %err9 = load %"bincode::ErrorKind"*, %"bincode::ErrorKind"** %112, align 8, !dbg !858, !nonnull !4
  store %"bincode::ErrorKind"* %err9, %"bincode::ErrorKind"** %err.dbg.spill10, align 8, !dbg !858
  call void @llvm.dbg.declare(metadata %"bincode::ErrorKind"** %err.dbg.spill10, metadata !615, metadata !DIExpression()), !dbg !874
; call <T as core::convert::From<T>>::from
  %_41 = call noalias nonnull align 8 %"bincode::ErrorKind"* @"_ZN50_$LT$T$u20$as$u20$core..convert..From$LT$T$GT$$GT$4from17ha11598da122a93ebE"(%"bincode::ErrorKind"* noalias nonnull align 8 %err9), !dbg !874
  br label %bb23, !dbg !874

bb23:                                             ; preds = %bb20
  %113 = bitcast %"std::result::Result<[u8; 32], std::boxed::Box<bincode::ErrorKind>>"* %0 to %"std::result::Result<[u8; 32], std::boxed::Box<bincode::ErrorKind>>::Err"*, !dbg !874
  %114 = getelementptr inbounds %"std::result::Result<[u8; 32], std::boxed::Box<bincode::ErrorKind>>::Err", %"std::result::Result<[u8; 32], std::boxed::Box<bincode::ErrorKind>>::Err"* %113, i32 0, i32 1, !dbg !874
  store %"bincode::ErrorKind"* %_41, %"bincode::ErrorKind"** %114, align 8, !dbg !874
  %115 = bitcast %"std::result::Result<[u8; 32], std::boxed::Box<bincode::ErrorKind>>"* %0 to i8*, !dbg !874
  store i8 1, i8* %115, align 8, !dbg !874
  br label %bb1219, !dbg !871

bb1219:                                           ; preds = %bb23
  br label %bb1280, !dbg !871

bb1280:                                           ; preds = %bb1279, %bb1219
  br label %bb1281, !dbg !860

bb25:                                             ; preds = %bb22
  unreachable, !dbg !858

bb24:                                             ; preds = %bb22
  %_46.0 = bitcast %"serde::de::impls::ArrayVisitor<[u8; 32]>"* %self to {}*, !dbg !865
; call serde::de::Error::invalid_length
  %_45 = call noalias nonnull align 8 %"bincode::ErrorKind"* @_ZN5serde2de5Error14invalid_length17h238c3f97e0eec12fE(i64 2, {}* nonnull align 1 %_46.0, [3 x i64]* align 8 dereferenceable(24) bitcast (<{ i8*, [16 x i8], i8*, [0 x i8] }>* @vtable.0 to [3 x i64]*)), !dbg !866
  br label %bb27, !dbg !866

bb26:                                             ; preds = %bb22
  %116 = bitcast { i8, i8 }* %_35 to %"std::option::Option<u8>::Some"*, !dbg !867
  %117 = getelementptr inbounds %"std::option::Option<u8>::Some", %"std::option::Option<u8>::Some"* %116, i32 0, i32 1, !dbg !867
  %val14 = load i8, i8* %117, align 1, !dbg !867
  store i8 %val14, i8* %val.dbg.spill15, align 1, !dbg !867
  call void @llvm.dbg.declare(metadata i8* %val.dbg.spill15, metadata !618, metadata !DIExpression()), !dbg !875
; call serde::de::SeqAccess::next_element
  %118 = call i128 @_ZN5serde2de9SeqAccess12next_element17hab3df56b4dd3231eE({ i64*, i64 }* align 8 dereferenceable(16) %seq), !dbg !856
  store i128 %118, i128* %31, align 8, !dbg !856
  %119 = bitcast %"std::result::Result<std::option::Option<u8>, std::boxed::Box<bincode::ErrorKind>>"* %_51 to i8*, !dbg !856
  %120 = bitcast i128* %31 to i8*, !dbg !856
  call void @llvm.memcpy.p0i8.p0i8.i64(i8* align 8 %119, i8* align 8 %120, i64 16, i1 false), !dbg !856
  br label %bb28, !dbg !856

bb28:                                             ; preds = %bb26
  %121 = bitcast %"std::result::Result<std::option::Option<u8>, std::boxed::Box<bincode::ErrorKind>>"* %_51 to i8*, !dbg !856
  %122 = load i8, i8* %121, align 8, !dbg !856, !range !857
  %123 = trunc i8 %122 to i1, !dbg !856
  %_53 = zext i1 %123 to i64, !dbg !856
  switch i64 %_53, label %bb30 [
    i64 0, label %bb31
    i64 1, label %bb29
  ], !dbg !858

bb30:                                             ; preds = %bb28
  unreachable, !dbg !856

bb31:                                             ; preds = %bb28
  %124 = bitcast %"std::result::Result<std::option::Option<u8>, std::boxed::Box<bincode::ErrorKind>>"* %_51 to %"std::result::Result<std::option::Option<u8>, std::boxed::Box<bincode::ErrorKind>>::Ok"*, !dbg !858
  %125 = getelementptr inbounds %"std::result::Result<std::option::Option<u8>, std::boxed::Box<bincode::ErrorKind>>::Ok", %"std::result::Result<std::option::Option<u8>, std::boxed::Box<bincode::ErrorKind>>::Ok"* %124, i32 0, i32 1, !dbg !858
  %126 = getelementptr inbounds { i8, i8 }, { i8, i8 }* %125, i32 0, i32 0, !dbg !858
  %127 = load i8, i8* %126, align 1, !dbg !858, !range !857
  %val.018 = trunc i8 %127 to i1, !dbg !858
  %128 = getelementptr inbounds { i8, i8 }, { i8, i8 }* %125, i32 0, i32 1, !dbg !858
  %val.119 = load i8, i8* %128, align 1, !dbg !858
  %129 = getelementptr inbounds { i8, i8 }, { i8, i8 }* %val.dbg.spill20, i32 0, i32 0, !dbg !858
  %130 = zext i1 %val.018 to i8, !dbg !858
  store i8 %130, i8* %129, align 1, !dbg !858
  %131 = getelementptr inbounds { i8, i8 }, { i8, i8 }* %val.dbg.spill20, i32 0, i32 1, !dbg !858
  store i8 %val.119, i8* %131, align 1, !dbg !858
  call void @llvm.dbg.declare(metadata { i8, i8 }* %val.dbg.spill20, metadata !620, metadata !DIExpression()), !dbg !876
  %132 = getelementptr inbounds { i8, i8 }, { i8, i8 }* %_50, i32 0, i32 0, !dbg !876
  %133 = zext i1 %val.018 to i8, !dbg !876
  store i8 %133, i8* %132, align 1, !dbg !876
  %134 = getelementptr inbounds { i8, i8 }, { i8, i8 }* %_50, i32 0, i32 1, !dbg !876
  store i8 %val.119, i8* %134, align 1, !dbg !876
  %135 = bitcast { i8, i8 }* %_50 to i8*, !dbg !858
  %136 = load i8, i8* %135, align 1, !dbg !858, !range !857
  %137 = trunc i8 %136 to i1, !dbg !858
  %_58 = zext i1 %137 to i64, !dbg !858
  switch i64 %_58, label %bb34 [
    i64 0, label %bb33
    i64 1, label %bb35
  ], !dbg !860

bb29:                                             ; preds = %bb28
  %138 = bitcast %"std::result::Result<std::option::Option<u8>, std::boxed::Box<bincode::ErrorKind>>"* %_51 to %"std::result::Result<std::option::Option<u8>, std::boxed::Box<bincode::ErrorKind>>::Err"*, !dbg !858
  %139 = getelementptr inbounds %"std::result::Result<std::option::Option<u8>, std::boxed::Box<bincode::ErrorKind>>::Err", %"std::result::Result<std::option::Option<u8>, std::boxed::Box<bincode::ErrorKind>>::Err"* %138, i32 0, i32 1, !dbg !858
  %err16 = load %"bincode::ErrorKind"*, %"bincode::ErrorKind"** %139, align 8, !dbg !858, !nonnull !4
  store %"bincode::ErrorKind"* %err16, %"bincode::ErrorKind"** %err.dbg.spill17, align 8, !dbg !858
  call void @llvm.dbg.declare(metadata %"bincode::ErrorKind"** %err.dbg.spill17, metadata !623, metadata !DIExpression()), !dbg !877
; call <T as core::convert::From<T>>::from
  %_56 = call noalias nonnull align 8 %"bincode::ErrorKind"* @"_ZN50_$LT$T$u20$as$u20$core..convert..From$LT$T$GT$$GT$4from17ha11598da122a93ebE"(%"bincode::ErrorKind"* noalias nonnull align 8 %err16), !dbg !877
  br label %bb32, !dbg !877

bb32:                                             ; preds = %bb29
  %140 = bitcast %"std::result::Result<[u8; 32], std::boxed::Box<bincode::ErrorKind>>"* %0 to %"std::result::Result<[u8; 32], std::boxed::Box<bincode::ErrorKind>>::Err"*, !dbg !877
  %141 = getelementptr inbounds %"std::result::Result<[u8; 32], std::boxed::Box<bincode::ErrorKind>>::Err", %"std::result::Result<[u8; 32], std::boxed::Box<bincode::ErrorKind>>::Err"* %140, i32 0, i32 1, !dbg !877
  store %"bincode::ErrorKind"* %_56, %"bincode::ErrorKind"** %141, align 8, !dbg !877
  %142 = bitcast %"std::result::Result<[u8; 32], std::boxed::Box<bincode::ErrorKind>>"* %0 to i8*, !dbg !877
  store i8 1, i8* %142, align 8, !dbg !877
  br label %bb1216, !dbg !871

bb1216:                                           ; preds = %bb32
  br label %bb1217, !dbg !871

bb1217:                                           ; preds = %bb1216
  br label %bb1278, !dbg !871

bb1278:                                           ; preds = %bb1277, %bb1217
  br label %bb1279, !dbg !860

bb34:                                             ; preds = %bb31
  unreachable, !dbg !858

bb33:                                             ; preds = %bb31
  %_61.0 = bitcast %"serde::de::impls::ArrayVisitor<[u8; 32]>"* %self to {}*, !dbg !865
; call serde::de::Error::invalid_length
  %_60 = call noalias nonnull align 8 %"bincode::ErrorKind"* @_ZN5serde2de5Error14invalid_length17h238c3f97e0eec12fE(i64 3, {}* nonnull align 1 %_61.0, [3 x i64]* align 8 dereferenceable(24) bitcast (<{ i8*, [16 x i8], i8*, [0 x i8] }>* @vtable.0 to [3 x i64]*)), !dbg !866
  br label %bb36, !dbg !866

bb35:                                             ; preds = %bb31
  %143 = bitcast { i8, i8 }* %_50 to %"std::option::Option<u8>::Some"*, !dbg !867
  %144 = getelementptr inbounds %"std::option::Option<u8>::Some", %"std::option::Option<u8>::Some"* %143, i32 0, i32 1, !dbg !867
  %val21 = load i8, i8* %144, align 1, !dbg !867
  store i8 %val21, i8* %val.dbg.spill22, align 1, !dbg !867
  call void @llvm.dbg.declare(metadata i8* %val.dbg.spill22, metadata !626, metadata !DIExpression()), !dbg !878
; call serde::de::SeqAccess::next_element
  %145 = call i128 @_ZN5serde2de9SeqAccess12next_element17hab3df56b4dd3231eE({ i64*, i64 }* align 8 dereferenceable(16) %seq), !dbg !856
  store i128 %145, i128* %30, align 8, !dbg !856
  %146 = bitcast %"std::result::Result<std::option::Option<u8>, std::boxed::Box<bincode::ErrorKind>>"* %_66 to i8*, !dbg !856
  %147 = bitcast i128* %30 to i8*, !dbg !856
  call void @llvm.memcpy.p0i8.p0i8.i64(i8* align 8 %146, i8* align 8 %147, i64 16, i1 false), !dbg !856
  br label %bb37, !dbg !856

bb37:                                             ; preds = %bb35
  %148 = bitcast %"std::result::Result<std::option::Option<u8>, std::boxed::Box<bincode::ErrorKind>>"* %_66 to i8*, !dbg !856
  %149 = load i8, i8* %148, align 8, !dbg !856, !range !857
  %150 = trunc i8 %149 to i1, !dbg !856
  %_68 = zext i1 %150 to i64, !dbg !856
  switch i64 %_68, label %bb39 [
    i64 0, label %bb40
    i64 1, label %bb38
  ], !dbg !858

bb39:                                             ; preds = %bb37
  unreachable, !dbg !856

bb40:                                             ; preds = %bb37
  %151 = bitcast %"std::result::Result<std::option::Option<u8>, std::boxed::Box<bincode::ErrorKind>>"* %_66 to %"std::result::Result<std::option::Option<u8>, std::boxed::Box<bincode::ErrorKind>>::Ok"*, !dbg !858
  %152 = getelementptr inbounds %"std::result::Result<std::option::Option<u8>, std::boxed::Box<bincode::ErrorKind>>::Ok", %"std::result::Result<std::option::Option<u8>, std::boxed::Box<bincode::ErrorKind>>::Ok"* %151, i32 0, i32 1, !dbg !858
  %153 = getelementptr inbounds { i8, i8 }, { i8, i8 }* %152, i32 0, i32 0, !dbg !858
  %154 = load i8, i8* %153, align 1, !dbg !858, !range !857
  %val.025 = trunc i8 %154 to i1, !dbg !858
  %155 = getelementptr inbounds { i8, i8 }, { i8, i8 }* %152, i32 0, i32 1, !dbg !858
  %val.126 = load i8, i8* %155, align 1, !dbg !858
  %156 = getelementptr inbounds { i8, i8 }, { i8, i8 }* %val.dbg.spill27, i32 0, i32 0, !dbg !858
  %157 = zext i1 %val.025 to i8, !dbg !858
  store i8 %157, i8* %156, align 1, !dbg !858
  %158 = getelementptr inbounds { i8, i8 }, { i8, i8 }* %val.dbg.spill27, i32 0, i32 1, !dbg !858
  store i8 %val.126, i8* %158, align 1, !dbg !858
  call void @llvm.dbg.declare(metadata { i8, i8 }* %val.dbg.spill27, metadata !628, metadata !DIExpression()), !dbg !879
  %159 = getelementptr inbounds { i8, i8 }, { i8, i8 }* %_65, i32 0, i32 0, !dbg !879
  %160 = zext i1 %val.025 to i8, !dbg !879
  store i8 %160, i8* %159, align 1, !dbg !879
  %161 = getelementptr inbounds { i8, i8 }, { i8, i8 }* %_65, i32 0, i32 1, !dbg !879
  store i8 %val.126, i8* %161, align 1, !dbg !879
  %162 = bitcast { i8, i8 }* %_65 to i8*, !dbg !858
  %163 = load i8, i8* %162, align 1, !dbg !858, !range !857
  %164 = trunc i8 %163 to i1, !dbg !858
  %_73 = zext i1 %164 to i64, !dbg !858
  switch i64 %_73, label %bb43 [
    i64 0, label %bb42
    i64 1, label %bb44
  ], !dbg !860

bb38:                                             ; preds = %bb37
  %165 = bitcast %"std::result::Result<std::option::Option<u8>, std::boxed::Box<bincode::ErrorKind>>"* %_66 to %"std::result::Result<std::option::Option<u8>, std::boxed::Box<bincode::ErrorKind>>::Err"*, !dbg !858
  %166 = getelementptr inbounds %"std::result::Result<std::option::Option<u8>, std::boxed::Box<bincode::ErrorKind>>::Err", %"std::result::Result<std::option::Option<u8>, std::boxed::Box<bincode::ErrorKind>>::Err"* %165, i32 0, i32 1, !dbg !858
  %err23 = load %"bincode::ErrorKind"*, %"bincode::ErrorKind"** %166, align 8, !dbg !858, !nonnull !4
  store %"bincode::ErrorKind"* %err23, %"bincode::ErrorKind"** %err.dbg.spill24, align 8, !dbg !858
  call void @llvm.dbg.declare(metadata %"bincode::ErrorKind"** %err.dbg.spill24, metadata !631, metadata !DIExpression()), !dbg !880
; call <T as core::convert::From<T>>::from
  %_71 = call noalias nonnull align 8 %"bincode::ErrorKind"* @"_ZN50_$LT$T$u20$as$u20$core..convert..From$LT$T$GT$$GT$4from17ha11598da122a93ebE"(%"bincode::ErrorKind"* noalias nonnull align 8 %err23), !dbg !880
  br label %bb41, !dbg !880

bb41:                                             ; preds = %bb38
  %167 = bitcast %"std::result::Result<[u8; 32], std::boxed::Box<bincode::ErrorKind>>"* %0 to %"std::result::Result<[u8; 32], std::boxed::Box<bincode::ErrorKind>>::Err"*, !dbg !880
  %168 = getelementptr inbounds %"std::result::Result<[u8; 32], std::boxed::Box<bincode::ErrorKind>>::Err", %"std::result::Result<[u8; 32], std::boxed::Box<bincode::ErrorKind>>::Err"* %167, i32 0, i32 1, !dbg !880
  store %"bincode::ErrorKind"* %_71, %"bincode::ErrorKind"** %168, align 8, !dbg !880
  %169 = bitcast %"std::result::Result<[u8; 32], std::boxed::Box<bincode::ErrorKind>>"* %0 to i8*, !dbg !880
  store i8 1, i8* %169, align 8, !dbg !880
  br label %bb1211, !dbg !871

bb1211:                                           ; preds = %bb41
  br label %bb1212, !dbg !871

bb1212:                                           ; preds = %bb1211
  br label %bb1213, !dbg !871

bb1213:                                           ; preds = %bb1212
  br label %bb1276, !dbg !871

bb1276:                                           ; preds = %bb1275, %bb1213
  br label %bb1277, !dbg !860

bb43:                                             ; preds = %bb40
  unreachable, !dbg !858

bb42:                                             ; preds = %bb40
  %_76.0 = bitcast %"serde::de::impls::ArrayVisitor<[u8; 32]>"* %self to {}*, !dbg !865
; call serde::de::Error::invalid_length
  %_75 = call noalias nonnull align 8 %"bincode::ErrorKind"* @_ZN5serde2de5Error14invalid_length17h238c3f97e0eec12fE(i64 4, {}* nonnull align 1 %_76.0, [3 x i64]* align 8 dereferenceable(24) bitcast (<{ i8*, [16 x i8], i8*, [0 x i8] }>* @vtable.0 to [3 x i64]*)), !dbg !866
  br label %bb45, !dbg !866

bb44:                                             ; preds = %bb40
  %170 = bitcast { i8, i8 }* %_65 to %"std::option::Option<u8>::Some"*, !dbg !867
  %171 = getelementptr inbounds %"std::option::Option<u8>::Some", %"std::option::Option<u8>::Some"* %170, i32 0, i32 1, !dbg !867
  %val28 = load i8, i8* %171, align 1, !dbg !867
  store i8 %val28, i8* %val.dbg.spill29, align 1, !dbg !867
  call void @llvm.dbg.declare(metadata i8* %val.dbg.spill29, metadata !634, metadata !DIExpression()), !dbg !881
; call serde::de::SeqAccess::next_element
  %172 = call i128 @_ZN5serde2de9SeqAccess12next_element17hab3df56b4dd3231eE({ i64*, i64 }* align 8 dereferenceable(16) %seq), !dbg !856
  store i128 %172, i128* %29, align 8, !dbg !856
  %173 = bitcast %"std::result::Result<std::option::Option<u8>, std::boxed::Box<bincode::ErrorKind>>"* %_81 to i8*, !dbg !856
  %174 = bitcast i128* %29 to i8*, !dbg !856
  call void @llvm.memcpy.p0i8.p0i8.i64(i8* align 8 %173, i8* align 8 %174, i64 16, i1 false), !dbg !856
  br label %bb46, !dbg !856

bb46:                                             ; preds = %bb44
  %175 = bitcast %"std::result::Result<std::option::Option<u8>, std::boxed::Box<bincode::ErrorKind>>"* %_81 to i8*, !dbg !856
  %176 = load i8, i8* %175, align 8, !dbg !856, !range !857
  %177 = trunc i8 %176 to i1, !dbg !856
  %_83 = zext i1 %177 to i64, !dbg !856
  switch i64 %_83, label %bb48 [
    i64 0, label %bb49
    i64 1, label %bb47
  ], !dbg !858

bb48:                                             ; preds = %bb46
  unreachable, !dbg !856

bb49:                                             ; preds = %bb46
  %178 = bitcast %"std::result::Result<std::option::Option<u8>, std::boxed::Box<bincode::ErrorKind>>"* %_81 to %"std::result::Result<std::option::Option<u8>, std::boxed::Box<bincode::ErrorKind>>::Ok"*, !dbg !858
  %179 = getelementptr inbounds %"std::result::Result<std::option::Option<u8>, std::boxed::Box<bincode::ErrorKind>>::Ok", %"std::result::Result<std::option::Option<u8>, std::boxed::Box<bincode::ErrorKind>>::Ok"* %178, i32 0, i32 1, !dbg !858
  %180 = getelementptr inbounds { i8, i8 }, { i8, i8 }* %179, i32 0, i32 0, !dbg !858
  %181 = load i8, i8* %180, align 1, !dbg !858, !range !857
  %val.032 = trunc i8 %181 to i1, !dbg !858
  %182 = getelementptr inbounds { i8, i8 }, { i8, i8 }* %179, i32 0, i32 1, !dbg !858
  %val.133 = load i8, i8* %182, align 1, !dbg !858
  %183 = getelementptr inbounds { i8, i8 }, { i8, i8 }* %val.dbg.spill34, i32 0, i32 0, !dbg !858
  %184 = zext i1 %val.032 to i8, !dbg !858
  store i8 %184, i8* %183, align 1, !dbg !858
  %185 = getelementptr inbounds { i8, i8 }, { i8, i8 }* %val.dbg.spill34, i32 0, i32 1, !dbg !858
  store i8 %val.133, i8* %185, align 1, !dbg !858
  call void @llvm.dbg.declare(metadata { i8, i8 }* %val.dbg.spill34, metadata !636, metadata !DIExpression()), !dbg !882
  %186 = getelementptr inbounds { i8, i8 }, { i8, i8 }* %_80, i32 0, i32 0, !dbg !882
  %187 = zext i1 %val.032 to i8, !dbg !882
  store i8 %187, i8* %186, align 1, !dbg !882
  %188 = getelementptr inbounds { i8, i8 }, { i8, i8 }* %_80, i32 0, i32 1, !dbg !882
  store i8 %val.133, i8* %188, align 1, !dbg !882
  %189 = bitcast { i8, i8 }* %_80 to i8*, !dbg !858
  %190 = load i8, i8* %189, align 1, !dbg !858, !range !857
  %191 = trunc i8 %190 to i1, !dbg !858
  %_88 = zext i1 %191 to i64, !dbg !858
  switch i64 %_88, label %bb52 [
    i64 0, label %bb51
    i64 1, label %bb53
  ], !dbg !860

bb47:                                             ; preds = %bb46
  %192 = bitcast %"std::result::Result<std::option::Option<u8>, std::boxed::Box<bincode::ErrorKind>>"* %_81 to %"std::result::Result<std::option::Option<u8>, std::boxed::Box<bincode::ErrorKind>>::Err"*, !dbg !858
  %193 = getelementptr inbounds %"std::result::Result<std::option::Option<u8>, std::boxed::Box<bincode::ErrorKind>>::Err", %"std::result::Result<std::option::Option<u8>, std::boxed::Box<bincode::ErrorKind>>::Err"* %192, i32 0, i32 1, !dbg !858
  %err30 = load %"bincode::ErrorKind"*, %"bincode::ErrorKind"** %193, align 8, !dbg !858, !nonnull !4
  store %"bincode::ErrorKind"* %err30, %"bincode::ErrorKind"** %err.dbg.spill31, align 8, !dbg !858
  call void @llvm.dbg.declare(metadata %"bincode::ErrorKind"** %err.dbg.spill31, metadata !639, metadata !DIExpression()), !dbg !883
; call <T as core::convert::From<T>>::from
  %_86 = call noalias nonnull align 8 %"bincode::ErrorKind"* @"_ZN50_$LT$T$u20$as$u20$core..convert..From$LT$T$GT$$GT$4from17ha11598da122a93ebE"(%"bincode::ErrorKind"* noalias nonnull align 8 %err30), !dbg !883
  br label %bb50, !dbg !883

bb50:                                             ; preds = %bb47
  %194 = bitcast %"std::result::Result<[u8; 32], std::boxed::Box<bincode::ErrorKind>>"* %0 to %"std::result::Result<[u8; 32], std::boxed::Box<bincode::ErrorKind>>::Err"*, !dbg !883
  %195 = getelementptr inbounds %"std::result::Result<[u8; 32], std::boxed::Box<bincode::ErrorKind>>::Err", %"std::result::Result<[u8; 32], std::boxed::Box<bincode::ErrorKind>>::Err"* %194, i32 0, i32 1, !dbg !883
  store %"bincode::ErrorKind"* %_86, %"bincode::ErrorKind"** %195, align 8, !dbg !883
  %196 = bitcast %"std::result::Result<[u8; 32], std::boxed::Box<bincode::ErrorKind>>"* %0 to i8*, !dbg !883
  store i8 1, i8* %196, align 8, !dbg !883
  br label %bb1204, !dbg !871

bb1204:                                           ; preds = %bb50
  br label %bb1205, !dbg !871

bb1205:                                           ; preds = %bb1204
  br label %bb1206, !dbg !871

bb1206:                                           ; preds = %bb1205
  br label %bb1207, !dbg !871

bb1207:                                           ; preds = %bb1206
  br label %bb1274, !dbg !871

bb1274:                                           ; preds = %bb1273, %bb1207
  br label %bb1275, !dbg !860

bb52:                                             ; preds = %bb49
  unreachable, !dbg !858

bb51:                                             ; preds = %bb49
  %_91.0 = bitcast %"serde::de::impls::ArrayVisitor<[u8; 32]>"* %self to {}*, !dbg !865
; call serde::de::Error::invalid_length
  %_90 = call noalias nonnull align 8 %"bincode::ErrorKind"* @_ZN5serde2de5Error14invalid_length17h238c3f97e0eec12fE(i64 5, {}* nonnull align 1 %_91.0, [3 x i64]* align 8 dereferenceable(24) bitcast (<{ i8*, [16 x i8], i8*, [0 x i8] }>* @vtable.0 to [3 x i64]*)), !dbg !866
  br label %bb54, !dbg !866

bb53:                                             ; preds = %bb49
  %197 = bitcast { i8, i8 }* %_80 to %"std::option::Option<u8>::Some"*, !dbg !867
  %198 = getelementptr inbounds %"std::option::Option<u8>::Some", %"std::option::Option<u8>::Some"* %197, i32 0, i32 1, !dbg !867
  %val35 = load i8, i8* %198, align 1, !dbg !867
  store i8 %val35, i8* %val.dbg.spill36, align 1, !dbg !867
  call void @llvm.dbg.declare(metadata i8* %val.dbg.spill36, metadata !642, metadata !DIExpression()), !dbg !884
; call serde::de::SeqAccess::next_element
  %199 = call i128 @_ZN5serde2de9SeqAccess12next_element17hab3df56b4dd3231eE({ i64*, i64 }* align 8 dereferenceable(16) %seq), !dbg !856
  store i128 %199, i128* %28, align 8, !dbg !856
  %200 = bitcast %"std::result::Result<std::option::Option<u8>, std::boxed::Box<bincode::ErrorKind>>"* %_96 to i8*, !dbg !856
  %201 = bitcast i128* %28 to i8*, !dbg !856
  call void @llvm.memcpy.p0i8.p0i8.i64(i8* align 8 %200, i8* align 8 %201, i64 16, i1 false), !dbg !856
  br label %bb55, !dbg !856

bb55:                                             ; preds = %bb53
  %202 = bitcast %"std::result::Result<std::option::Option<u8>, std::boxed::Box<bincode::ErrorKind>>"* %_96 to i8*, !dbg !856
  %203 = load i8, i8* %202, align 8, !dbg !856, !range !857
  %204 = trunc i8 %203 to i1, !dbg !856
  %_98 = zext i1 %204 to i64, !dbg !856
  switch i64 %_98, label %bb57 [
    i64 0, label %bb58
    i64 1, label %bb56
  ], !dbg !858

bb57:                                             ; preds = %bb55
  unreachable, !dbg !856

bb58:                                             ; preds = %bb55
  %205 = bitcast %"std::result::Result<std::option::Option<u8>, std::boxed::Box<bincode::ErrorKind>>"* %_96 to %"std::result::Result<std::option::Option<u8>, std::boxed::Box<bincode::ErrorKind>>::Ok"*, !dbg !858
  %206 = getelementptr inbounds %"std::result::Result<std::option::Option<u8>, std::boxed::Box<bincode::ErrorKind>>::Ok", %"std::result::Result<std::option::Option<u8>, std::boxed::Box<bincode::ErrorKind>>::Ok"* %205, i32 0, i32 1, !dbg !858
  %207 = getelementptr inbounds { i8, i8 }, { i8, i8 }* %206, i32 0, i32 0, !dbg !858
  %208 = load i8, i8* %207, align 1, !dbg !858, !range !857
  %val.039 = trunc i8 %208 to i1, !dbg !858
  %209 = getelementptr inbounds { i8, i8 }, { i8, i8 }* %206, i32 0, i32 1, !dbg !858
  %val.140 = load i8, i8* %209, align 1, !dbg !858
  %210 = getelementptr inbounds { i8, i8 }, { i8, i8 }* %val.dbg.spill41, i32 0, i32 0, !dbg !858
  %211 = zext i1 %val.039 to i8, !dbg !858
  store i8 %211, i8* %210, align 1, !dbg !858
  %212 = getelementptr inbounds { i8, i8 }, { i8, i8 }* %val.dbg.spill41, i32 0, i32 1, !dbg !858
  store i8 %val.140, i8* %212, align 1, !dbg !858
  call void @llvm.dbg.declare(metadata { i8, i8 }* %val.dbg.spill41, metadata !644, metadata !DIExpression()), !dbg !885
  %213 = getelementptr inbounds { i8, i8 }, { i8, i8 }* %_95, i32 0, i32 0, !dbg !885
  %214 = zext i1 %val.039 to i8, !dbg !885
  store i8 %214, i8* %213, align 1, !dbg !885
  %215 = getelementptr inbounds { i8, i8 }, { i8, i8 }* %_95, i32 0, i32 1, !dbg !885
  store i8 %val.140, i8* %215, align 1, !dbg !885
  %216 = bitcast { i8, i8 }* %_95 to i8*, !dbg !858
  %217 = load i8, i8* %216, align 1, !dbg !858, !range !857
  %218 = trunc i8 %217 to i1, !dbg !858
  %_103 = zext i1 %218 to i64, !dbg !858
  switch i64 %_103, label %bb61 [
    i64 0, label %bb60
    i64 1, label %bb62
  ], !dbg !860

bb56:                                             ; preds = %bb55
  %219 = bitcast %"std::result::Result<std::option::Option<u8>, std::boxed::Box<bincode::ErrorKind>>"* %_96 to %"std::result::Result<std::option::Option<u8>, std::boxed::Box<bincode::ErrorKind>>::Err"*, !dbg !858
  %220 = getelementptr inbounds %"std::result::Result<std::option::Option<u8>, std::boxed::Box<bincode::ErrorKind>>::Err", %"std::result::Result<std::option::Option<u8>, std::boxed::Box<bincode::ErrorKind>>::Err"* %219, i32 0, i32 1, !dbg !858
  %err37 = load %"bincode::ErrorKind"*, %"bincode::ErrorKind"** %220, align 8, !dbg !858, !nonnull !4
  store %"bincode::ErrorKind"* %err37, %"bincode::ErrorKind"** %err.dbg.spill38, align 8, !dbg !858
  call void @llvm.dbg.declare(metadata %"bincode::ErrorKind"** %err.dbg.spill38, metadata !647, metadata !DIExpression()), !dbg !886
; call <T as core::convert::From<T>>::from
  %_101 = call noalias nonnull align 8 %"bincode::ErrorKind"* @"_ZN50_$LT$T$u20$as$u20$core..convert..From$LT$T$GT$$GT$4from17ha11598da122a93ebE"(%"bincode::ErrorKind"* noalias nonnull align 8 %err37), !dbg !886
  br label %bb59, !dbg !886

bb59:                                             ; preds = %bb56
  %221 = bitcast %"std::result::Result<[u8; 32], std::boxed::Box<bincode::ErrorKind>>"* %0 to %"std::result::Result<[u8; 32], std::boxed::Box<bincode::ErrorKind>>::Err"*, !dbg !886
  %222 = getelementptr inbounds %"std::result::Result<[u8; 32], std::boxed::Box<bincode::ErrorKind>>::Err", %"std::result::Result<[u8; 32], std::boxed::Box<bincode::ErrorKind>>::Err"* %221, i32 0, i32 1, !dbg !886
  store %"bincode::ErrorKind"* %_101, %"bincode::ErrorKind"** %222, align 8, !dbg !886
  %223 = bitcast %"std::result::Result<[u8; 32], std::boxed::Box<bincode::ErrorKind>>"* %0 to i8*, !dbg !886
  store i8 1, i8* %223, align 8, !dbg !886
  br label %bb1195, !dbg !871

bb1195:                                           ; preds = %bb59
  br label %bb1196, !dbg !871

bb1196:                                           ; preds = %bb1195
  br label %bb1197, !dbg !871

bb1197:                                           ; preds = %bb1196
  br label %bb1198, !dbg !871

bb1198:                                           ; preds = %bb1197
  br label %bb1199, !dbg !871

bb1199:                                           ; preds = %bb1198
  br label %bb1272, !dbg !871

bb1272:                                           ; preds = %bb1271, %bb1199
  br label %bb1273, !dbg !860

bb61:                                             ; preds = %bb58
  unreachable, !dbg !858

bb60:                                             ; preds = %bb58
  %_106.0 = bitcast %"serde::de::impls::ArrayVisitor<[u8; 32]>"* %self to {}*, !dbg !865
; call serde::de::Error::invalid_length
  %_105 = call noalias nonnull align 8 %"bincode::ErrorKind"* @_ZN5serde2de5Error14invalid_length17h238c3f97e0eec12fE(i64 6, {}* nonnull align 1 %_106.0, [3 x i64]* align 8 dereferenceable(24) bitcast (<{ i8*, [16 x i8], i8*, [0 x i8] }>* @vtable.0 to [3 x i64]*)), !dbg !866
  br label %bb63, !dbg !866

bb62:                                             ; preds = %bb58
  %224 = bitcast { i8, i8 }* %_95 to %"std::option::Option<u8>::Some"*, !dbg !867
  %225 = getelementptr inbounds %"std::option::Option<u8>::Some", %"std::option::Option<u8>::Some"* %224, i32 0, i32 1, !dbg !867
  %val42 = load i8, i8* %225, align 1, !dbg !867
  store i8 %val42, i8* %val.dbg.spill43, align 1, !dbg !867
  call void @llvm.dbg.declare(metadata i8* %val.dbg.spill43, metadata !650, metadata !DIExpression()), !dbg !887
; call serde::de::SeqAccess::next_element
  %226 = call i128 @_ZN5serde2de9SeqAccess12next_element17hab3df56b4dd3231eE({ i64*, i64 }* align 8 dereferenceable(16) %seq), !dbg !856
  store i128 %226, i128* %27, align 8, !dbg !856
  %227 = bitcast %"std::result::Result<std::option::Option<u8>, std::boxed::Box<bincode::ErrorKind>>"* %_111 to i8*, !dbg !856
  %228 = bitcast i128* %27 to i8*, !dbg !856
  call void @llvm.memcpy.p0i8.p0i8.i64(i8* align 8 %227, i8* align 8 %228, i64 16, i1 false), !dbg !856
  br label %bb64, !dbg !856

bb64:                                             ; preds = %bb62
  %229 = bitcast %"std::result::Result<std::option::Option<u8>, std::boxed::Box<bincode::ErrorKind>>"* %_111 to i8*, !dbg !856
  %230 = load i8, i8* %229, align 8, !dbg !856, !range !857
  %231 = trunc i8 %230 to i1, !dbg !856
  %_113 = zext i1 %231 to i64, !dbg !856
  switch i64 %_113, label %bb66 [
    i64 0, label %bb67
    i64 1, label %bb65
  ], !dbg !858

bb66:                                             ; preds = %bb64
  unreachable, !dbg !856

bb67:                                             ; preds = %bb64
  %232 = bitcast %"std::result::Result<std::option::Option<u8>, std::boxed::Box<bincode::ErrorKind>>"* %_111 to %"std::result::Result<std::option::Option<u8>, std::boxed::Box<bincode::ErrorKind>>::Ok"*, !dbg !858
  %233 = getelementptr inbounds %"std::result::Result<std::option::Option<u8>, std::boxed::Box<bincode::ErrorKind>>::Ok", %"std::result::Result<std::option::Option<u8>, std::boxed::Box<bincode::ErrorKind>>::Ok"* %232, i32 0, i32 1, !dbg !858
  %234 = getelementptr inbounds { i8, i8 }, { i8, i8 }* %233, i32 0, i32 0, !dbg !858
  %235 = load i8, i8* %234, align 1, !dbg !858, !range !857
  %val.046 = trunc i8 %235 to i1, !dbg !858
  %236 = getelementptr inbounds { i8, i8 }, { i8, i8 }* %233, i32 0, i32 1, !dbg !858
  %val.147 = load i8, i8* %236, align 1, !dbg !858
  %237 = getelementptr inbounds { i8, i8 }, { i8, i8 }* %val.dbg.spill48, i32 0, i32 0, !dbg !858
  %238 = zext i1 %val.046 to i8, !dbg !858
  store i8 %238, i8* %237, align 1, !dbg !858
  %239 = getelementptr inbounds { i8, i8 }, { i8, i8 }* %val.dbg.spill48, i32 0, i32 1, !dbg !858
  store i8 %val.147, i8* %239, align 1, !dbg !858
  call void @llvm.dbg.declare(metadata { i8, i8 }* %val.dbg.spill48, metadata !652, metadata !DIExpression()), !dbg !888
  %240 = getelementptr inbounds { i8, i8 }, { i8, i8 }* %_110, i32 0, i32 0, !dbg !888
  %241 = zext i1 %val.046 to i8, !dbg !888
  store i8 %241, i8* %240, align 1, !dbg !888
  %242 = getelementptr inbounds { i8, i8 }, { i8, i8 }* %_110, i32 0, i32 1, !dbg !888
  store i8 %val.147, i8* %242, align 1, !dbg !888
  %243 = bitcast { i8, i8 }* %_110 to i8*, !dbg !858
  %244 = load i8, i8* %243, align 1, !dbg !858, !range !857
  %245 = trunc i8 %244 to i1, !dbg !858
  %_118 = zext i1 %245 to i64, !dbg !858
  switch i64 %_118, label %bb70 [
    i64 0, label %bb69
    i64 1, label %bb71
  ], !dbg !860

bb65:                                             ; preds = %bb64
  %246 = bitcast %"std::result::Result<std::option::Option<u8>, std::boxed::Box<bincode::ErrorKind>>"* %_111 to %"std::result::Result<std::option::Option<u8>, std::boxed::Box<bincode::ErrorKind>>::Err"*, !dbg !858
  %247 = getelementptr inbounds %"std::result::Result<std::option::Option<u8>, std::boxed::Box<bincode::ErrorKind>>::Err", %"std::result::Result<std::option::Option<u8>, std::boxed::Box<bincode::ErrorKind>>::Err"* %246, i32 0, i32 1, !dbg !858
  %err44 = load %"bincode::ErrorKind"*, %"bincode::ErrorKind"** %247, align 8, !dbg !858, !nonnull !4
  store %"bincode::ErrorKind"* %err44, %"bincode::ErrorKind"** %err.dbg.spill45, align 8, !dbg !858
  call void @llvm.dbg.declare(metadata %"bincode::ErrorKind"** %err.dbg.spill45, metadata !655, metadata !DIExpression()), !dbg !889
; call <T as core::convert::From<T>>::from
  %_116 = call noalias nonnull align 8 %"bincode::ErrorKind"* @"_ZN50_$LT$T$u20$as$u20$core..convert..From$LT$T$GT$$GT$4from17ha11598da122a93ebE"(%"bincode::ErrorKind"* noalias nonnull align 8 %err44), !dbg !889
  br label %bb68, !dbg !889

bb68:                                             ; preds = %bb65
  %248 = bitcast %"std::result::Result<[u8; 32], std::boxed::Box<bincode::ErrorKind>>"* %0 to %"std::result::Result<[u8; 32], std::boxed::Box<bincode::ErrorKind>>::Err"*, !dbg !889
  %249 = getelementptr inbounds %"std::result::Result<[u8; 32], std::boxed::Box<bincode::ErrorKind>>::Err", %"std::result::Result<[u8; 32], std::boxed::Box<bincode::ErrorKind>>::Err"* %248, i32 0, i32 1, !dbg !889
  store %"bincode::ErrorKind"* %_116, %"bincode::ErrorKind"** %249, align 8, !dbg !889
  %250 = bitcast %"std::result::Result<[u8; 32], std::boxed::Box<bincode::ErrorKind>>"* %0 to i8*, !dbg !889
  store i8 1, i8* %250, align 8, !dbg !889
  br label %bb1184, !dbg !871

bb1184:                                           ; preds = %bb68
  br label %bb1185, !dbg !871

bb1185:                                           ; preds = %bb1184
  br label %bb1186, !dbg !871

bb1186:                                           ; preds = %bb1185
  br label %bb1187, !dbg !871

bb1187:                                           ; preds = %bb1186
  br label %bb1188, !dbg !871

bb1188:                                           ; preds = %bb1187
  br label %bb1189, !dbg !871

bb1189:                                           ; preds = %bb1188
  br label %bb1270, !dbg !871

bb1270:                                           ; preds = %bb1269, %bb1189
  br label %bb1271, !dbg !860

bb70:                                             ; preds = %bb67
  unreachable, !dbg !858

bb69:                                             ; preds = %bb67
  %_121.0 = bitcast %"serde::de::impls::ArrayVisitor<[u8; 32]>"* %self to {}*, !dbg !865
; call serde::de::Error::invalid_length
  %_120 = call noalias nonnull align 8 %"bincode::ErrorKind"* @_ZN5serde2de5Error14invalid_length17h238c3f97e0eec12fE(i64 7, {}* nonnull align 1 %_121.0, [3 x i64]* align 8 dereferenceable(24) bitcast (<{ i8*, [16 x i8], i8*, [0 x i8] }>* @vtable.0 to [3 x i64]*)), !dbg !866
  br label %bb72, !dbg !866

bb71:                                             ; preds = %bb67
  %251 = bitcast { i8, i8 }* %_110 to %"std::option::Option<u8>::Some"*, !dbg !867
  %252 = getelementptr inbounds %"std::option::Option<u8>::Some", %"std::option::Option<u8>::Some"* %251, i32 0, i32 1, !dbg !867
  %val49 = load i8, i8* %252, align 1, !dbg !867
  store i8 %val49, i8* %val.dbg.spill50, align 1, !dbg !867
  call void @llvm.dbg.declare(metadata i8* %val.dbg.spill50, metadata !658, metadata !DIExpression()), !dbg !890
; call serde::de::SeqAccess::next_element
  %253 = call i128 @_ZN5serde2de9SeqAccess12next_element17hab3df56b4dd3231eE({ i64*, i64 }* align 8 dereferenceable(16) %seq), !dbg !856
  store i128 %253, i128* %26, align 8, !dbg !856
  %254 = bitcast %"std::result::Result<std::option::Option<u8>, std::boxed::Box<bincode::ErrorKind>>"* %_126 to i8*, !dbg !856
  %255 = bitcast i128* %26 to i8*, !dbg !856
  call void @llvm.memcpy.p0i8.p0i8.i64(i8* align 8 %254, i8* align 8 %255, i64 16, i1 false), !dbg !856
  br label %bb73, !dbg !856

bb73:                                             ; preds = %bb71
  %256 = bitcast %"std::result::Result<std::option::Option<u8>, std::boxed::Box<bincode::ErrorKind>>"* %_126 to i8*, !dbg !856
  %257 = load i8, i8* %256, align 8, !dbg !856, !range !857
  %258 = trunc i8 %257 to i1, !dbg !856
  %_128 = zext i1 %258 to i64, !dbg !856
  switch i64 %_128, label %bb75 [
    i64 0, label %bb76
    i64 1, label %bb74
  ], !dbg !858

bb75:                                             ; preds = %bb73
  unreachable, !dbg !856

bb76:                                             ; preds = %bb73
  %259 = bitcast %"std::result::Result<std::option::Option<u8>, std::boxed::Box<bincode::ErrorKind>>"* %_126 to %"std::result::Result<std::option::Option<u8>, std::boxed::Box<bincode::ErrorKind>>::Ok"*, !dbg !858
  %260 = getelementptr inbounds %"std::result::Result<std::option::Option<u8>, std::boxed::Box<bincode::ErrorKind>>::Ok", %"std::result::Result<std::option::Option<u8>, std::boxed::Box<bincode::ErrorKind>>::Ok"* %259, i32 0, i32 1, !dbg !858
  %261 = getelementptr inbounds { i8, i8 }, { i8, i8 }* %260, i32 0, i32 0, !dbg !858
  %262 = load i8, i8* %261, align 1, !dbg !858, !range !857
  %val.053 = trunc i8 %262 to i1, !dbg !858
  %263 = getelementptr inbounds { i8, i8 }, { i8, i8 }* %260, i32 0, i32 1, !dbg !858
  %val.154 = load i8, i8* %263, align 1, !dbg !858
  %264 = getelementptr inbounds { i8, i8 }, { i8, i8 }* %val.dbg.spill55, i32 0, i32 0, !dbg !858
  %265 = zext i1 %val.053 to i8, !dbg !858
  store i8 %265, i8* %264, align 1, !dbg !858
  %266 = getelementptr inbounds { i8, i8 }, { i8, i8 }* %val.dbg.spill55, i32 0, i32 1, !dbg !858
  store i8 %val.154, i8* %266, align 1, !dbg !858
  call void @llvm.dbg.declare(metadata { i8, i8 }* %val.dbg.spill55, metadata !660, metadata !DIExpression()), !dbg !891
  %267 = getelementptr inbounds { i8, i8 }, { i8, i8 }* %_125, i32 0, i32 0, !dbg !891
  %268 = zext i1 %val.053 to i8, !dbg !891
  store i8 %268, i8* %267, align 1, !dbg !891
  %269 = getelementptr inbounds { i8, i8 }, { i8, i8 }* %_125, i32 0, i32 1, !dbg !891
  store i8 %val.154, i8* %269, align 1, !dbg !891
  %270 = bitcast { i8, i8 }* %_125 to i8*, !dbg !858
  %271 = load i8, i8* %270, align 1, !dbg !858, !range !857
  %272 = trunc i8 %271 to i1, !dbg !858
  %_133 = zext i1 %272 to i64, !dbg !858
  switch i64 %_133, label %bb79 [
    i64 0, label %bb78
    i64 1, label %bb80
  ], !dbg !860

bb74:                                             ; preds = %bb73
  %273 = bitcast %"std::result::Result<std::option::Option<u8>, std::boxed::Box<bincode::ErrorKind>>"* %_126 to %"std::result::Result<std::option::Option<u8>, std::boxed::Box<bincode::ErrorKind>>::Err"*, !dbg !858
  %274 = getelementptr inbounds %"std::result::Result<std::option::Option<u8>, std::boxed::Box<bincode::ErrorKind>>::Err", %"std::result::Result<std::option::Option<u8>, std::boxed::Box<bincode::ErrorKind>>::Err"* %273, i32 0, i32 1, !dbg !858
  %err51 = load %"bincode::ErrorKind"*, %"bincode::ErrorKind"** %274, align 8, !dbg !858, !nonnull !4
  store %"bincode::ErrorKind"* %err51, %"bincode::ErrorKind"** %err.dbg.spill52, align 8, !dbg !858
  call void @llvm.dbg.declare(metadata %"bincode::ErrorKind"** %err.dbg.spill52, metadata !663, metadata !DIExpression()), !dbg !892
; call <T as core::convert::From<T>>::from
  %_131 = call noalias nonnull align 8 %"bincode::ErrorKind"* @"_ZN50_$LT$T$u20$as$u20$core..convert..From$LT$T$GT$$GT$4from17ha11598da122a93ebE"(%"bincode::ErrorKind"* noalias nonnull align 8 %err51), !dbg !892
  br label %bb77, !dbg !892

bb77:                                             ; preds = %bb74
  %275 = bitcast %"std::result::Result<[u8; 32], std::boxed::Box<bincode::ErrorKind>>"* %0 to %"std::result::Result<[u8; 32], std::boxed::Box<bincode::ErrorKind>>::Err"*, !dbg !892
  %276 = getelementptr inbounds %"std::result::Result<[u8; 32], std::boxed::Box<bincode::ErrorKind>>::Err", %"std::result::Result<[u8; 32], std::boxed::Box<bincode::ErrorKind>>::Err"* %275, i32 0, i32 1, !dbg !892
  store %"bincode::ErrorKind"* %_131, %"bincode::ErrorKind"** %276, align 8, !dbg !892
  %277 = bitcast %"std::result::Result<[u8; 32], std::boxed::Box<bincode::ErrorKind>>"* %0 to i8*, !dbg !892
  store i8 1, i8* %277, align 8, !dbg !892
  br label %bb1171, !dbg !871

bb1171:                                           ; preds = %bb77
  br label %bb1172, !dbg !871

bb1172:                                           ; preds = %bb1171
  br label %bb1173, !dbg !871

bb1173:                                           ; preds = %bb1172
  br label %bb1174, !dbg !871

bb1174:                                           ; preds = %bb1173
  br label %bb1175, !dbg !871

bb1175:                                           ; preds = %bb1174
  br label %bb1176, !dbg !871

bb1176:                                           ; preds = %bb1175
  br label %bb1177, !dbg !871

bb1177:                                           ; preds = %bb1176
  br label %bb1268, !dbg !871

bb1268:                                           ; preds = %bb1267, %bb1177
  br label %bb1269, !dbg !860

bb79:                                             ; preds = %bb76
  unreachable, !dbg !858

bb78:                                             ; preds = %bb76
  %_136.0 = bitcast %"serde::de::impls::ArrayVisitor<[u8; 32]>"* %self to {}*, !dbg !865
; call serde::de::Error::invalid_length
  %_135 = call noalias nonnull align 8 %"bincode::ErrorKind"* @_ZN5serde2de5Error14invalid_length17h238c3f97e0eec12fE(i64 8, {}* nonnull align 1 %_136.0, [3 x i64]* align 8 dereferenceable(24) bitcast (<{ i8*, [16 x i8], i8*, [0 x i8] }>* @vtable.0 to [3 x i64]*)), !dbg !866
  br label %bb81, !dbg !866

bb80:                                             ; preds = %bb76
  %278 = bitcast { i8, i8 }* %_125 to %"std::option::Option<u8>::Some"*, !dbg !867
  %279 = getelementptr inbounds %"std::option::Option<u8>::Some", %"std::option::Option<u8>::Some"* %278, i32 0, i32 1, !dbg !867
  %val56 = load i8, i8* %279, align 1, !dbg !867
  store i8 %val56, i8* %val.dbg.spill57, align 1, !dbg !867
  call void @llvm.dbg.declare(metadata i8* %val.dbg.spill57, metadata !666, metadata !DIExpression()), !dbg !893
; call serde::de::SeqAccess::next_element
  %280 = call i128 @_ZN5serde2de9SeqAccess12next_element17hab3df56b4dd3231eE({ i64*, i64 }* align 8 dereferenceable(16) %seq), !dbg !856
  store i128 %280, i128* %25, align 8, !dbg !856
  %281 = bitcast %"std::result::Result<std::option::Option<u8>, std::boxed::Box<bincode::ErrorKind>>"* %_141 to i8*, !dbg !856
  %282 = bitcast i128* %25 to i8*, !dbg !856
  call void @llvm.memcpy.p0i8.p0i8.i64(i8* align 8 %281, i8* align 8 %282, i64 16, i1 false), !dbg !856
  br label %bb82, !dbg !856

bb82:                                             ; preds = %bb80
  %283 = bitcast %"std::result::Result<std::option::Option<u8>, std::boxed::Box<bincode::ErrorKind>>"* %_141 to i8*, !dbg !856
  %284 = load i8, i8* %283, align 8, !dbg !856, !range !857
  %285 = trunc i8 %284 to i1, !dbg !856
  %_143 = zext i1 %285 to i64, !dbg !856
  switch i64 %_143, label %bb84 [
    i64 0, label %bb85
    i64 1, label %bb83
  ], !dbg !858

bb84:                                             ; preds = %bb82
  unreachable, !dbg !856

bb85:                                             ; preds = %bb82
  %286 = bitcast %"std::result::Result<std::option::Option<u8>, std::boxed::Box<bincode::ErrorKind>>"* %_141 to %"std::result::Result<std::option::Option<u8>, std::boxed::Box<bincode::ErrorKind>>::Ok"*, !dbg !858
  %287 = getelementptr inbounds %"std::result::Result<std::option::Option<u8>, std::boxed::Box<bincode::ErrorKind>>::Ok", %"std::result::Result<std::option::Option<u8>, std::boxed::Box<bincode::ErrorKind>>::Ok"* %286, i32 0, i32 1, !dbg !858
  %288 = getelementptr inbounds { i8, i8 }, { i8, i8 }* %287, i32 0, i32 0, !dbg !858
  %289 = load i8, i8* %288, align 1, !dbg !858, !range !857
  %val.060 = trunc i8 %289 to i1, !dbg !858
  %290 = getelementptr inbounds { i8, i8 }, { i8, i8 }* %287, i32 0, i32 1, !dbg !858
  %val.161 = load i8, i8* %290, align 1, !dbg !858
  %291 = getelementptr inbounds { i8, i8 }, { i8, i8 }* %val.dbg.spill62, i32 0, i32 0, !dbg !858
  %292 = zext i1 %val.060 to i8, !dbg !858
  store i8 %292, i8* %291, align 1, !dbg !858
  %293 = getelementptr inbounds { i8, i8 }, { i8, i8 }* %val.dbg.spill62, i32 0, i32 1, !dbg !858
  store i8 %val.161, i8* %293, align 1, !dbg !858
  call void @llvm.dbg.declare(metadata { i8, i8 }* %val.dbg.spill62, metadata !668, metadata !DIExpression()), !dbg !894
  %294 = getelementptr inbounds { i8, i8 }, { i8, i8 }* %_140, i32 0, i32 0, !dbg !894
  %295 = zext i1 %val.060 to i8, !dbg !894
  store i8 %295, i8* %294, align 1, !dbg !894
  %296 = getelementptr inbounds { i8, i8 }, { i8, i8 }* %_140, i32 0, i32 1, !dbg !894
  store i8 %val.161, i8* %296, align 1, !dbg !894
  %297 = bitcast { i8, i8 }* %_140 to i8*, !dbg !858
  %298 = load i8, i8* %297, align 1, !dbg !858, !range !857
  %299 = trunc i8 %298 to i1, !dbg !858
  %_148 = zext i1 %299 to i64, !dbg !858
  switch i64 %_148, label %bb88 [
    i64 0, label %bb87
    i64 1, label %bb89
  ], !dbg !860

bb83:                                             ; preds = %bb82
  %300 = bitcast %"std::result::Result<std::option::Option<u8>, std::boxed::Box<bincode::ErrorKind>>"* %_141 to %"std::result::Result<std::option::Option<u8>, std::boxed::Box<bincode::ErrorKind>>::Err"*, !dbg !858
  %301 = getelementptr inbounds %"std::result::Result<std::option::Option<u8>, std::boxed::Box<bincode::ErrorKind>>::Err", %"std::result::Result<std::option::Option<u8>, std::boxed::Box<bincode::ErrorKind>>::Err"* %300, i32 0, i32 1, !dbg !858
  %err58 = load %"bincode::ErrorKind"*, %"bincode::ErrorKind"** %301, align 8, !dbg !858, !nonnull !4
  store %"bincode::ErrorKind"* %err58, %"bincode::ErrorKind"** %err.dbg.spill59, align 8, !dbg !858
  call void @llvm.dbg.declare(metadata %"bincode::ErrorKind"** %err.dbg.spill59, metadata !671, metadata !DIExpression()), !dbg !895
; call <T as core::convert::From<T>>::from
  %_146 = call noalias nonnull align 8 %"bincode::ErrorKind"* @"_ZN50_$LT$T$u20$as$u20$core..convert..From$LT$T$GT$$GT$4from17ha11598da122a93ebE"(%"bincode::ErrorKind"* noalias nonnull align 8 %err58), !dbg !895
  br label %bb86, !dbg !895

bb86:                                             ; preds = %bb83
  %302 = bitcast %"std::result::Result<[u8; 32], std::boxed::Box<bincode::ErrorKind>>"* %0 to %"std::result::Result<[u8; 32], std::boxed::Box<bincode::ErrorKind>>::Err"*, !dbg !895
  %303 = getelementptr inbounds %"std::result::Result<[u8; 32], std::boxed::Box<bincode::ErrorKind>>::Err", %"std::result::Result<[u8; 32], std::boxed::Box<bincode::ErrorKind>>::Err"* %302, i32 0, i32 1, !dbg !895
  store %"bincode::ErrorKind"* %_146, %"bincode::ErrorKind"** %303, align 8, !dbg !895
  %304 = bitcast %"std::result::Result<[u8; 32], std::boxed::Box<bincode::ErrorKind>>"* %0 to i8*, !dbg !895
  store i8 1, i8* %304, align 8, !dbg !895
  br label %bb1156, !dbg !871

bb1156:                                           ; preds = %bb86
  br label %bb1157, !dbg !871

bb1157:                                           ; preds = %bb1156
  br label %bb1158, !dbg !871

bb1158:                                           ; preds = %bb1157
  br label %bb1159, !dbg !871

bb1159:                                           ; preds = %bb1158
  br label %bb1160, !dbg !871

bb1160:                                           ; preds = %bb1159
  br label %bb1161, !dbg !871

bb1161:                                           ; preds = %bb1160
  br label %bb1162, !dbg !871

bb1162:                                           ; preds = %bb1161
  br label %bb1163, !dbg !871

bb1163:                                           ; preds = %bb1162
  br label %bb1266, !dbg !871

bb1266:                                           ; preds = %bb1265, %bb1163
  br label %bb1267, !dbg !860

bb88:                                             ; preds = %bb85
  unreachable, !dbg !858

bb87:                                             ; preds = %bb85
  %_151.0 = bitcast %"serde::de::impls::ArrayVisitor<[u8; 32]>"* %self to {}*, !dbg !865
; call serde::de::Error::invalid_length
  %_150 = call noalias nonnull align 8 %"bincode::ErrorKind"* @_ZN5serde2de5Error14invalid_length17h238c3f97e0eec12fE(i64 9, {}* nonnull align 1 %_151.0, [3 x i64]* align 8 dereferenceable(24) bitcast (<{ i8*, [16 x i8], i8*, [0 x i8] }>* @vtable.0 to [3 x i64]*)), !dbg !866
  br label %bb90, !dbg !866

bb89:                                             ; preds = %bb85
  %305 = bitcast { i8, i8 }* %_140 to %"std::option::Option<u8>::Some"*, !dbg !867
  %306 = getelementptr inbounds %"std::option::Option<u8>::Some", %"std::option::Option<u8>::Some"* %305, i32 0, i32 1, !dbg !867
  %val63 = load i8, i8* %306, align 1, !dbg !867
  store i8 %val63, i8* %val.dbg.spill64, align 1, !dbg !867
  call void @llvm.dbg.declare(metadata i8* %val.dbg.spill64, metadata !674, metadata !DIExpression()), !dbg !896
; call serde::de::SeqAccess::next_element
  %307 = call i128 @_ZN5serde2de9SeqAccess12next_element17hab3df56b4dd3231eE({ i64*, i64 }* align 8 dereferenceable(16) %seq), !dbg !856
  store i128 %307, i128* %24, align 8, !dbg !856
  %308 = bitcast %"std::result::Result<std::option::Option<u8>, std::boxed::Box<bincode::ErrorKind>>"* %_156 to i8*, !dbg !856
  %309 = bitcast i128* %24 to i8*, !dbg !856
  call void @llvm.memcpy.p0i8.p0i8.i64(i8* align 8 %308, i8* align 8 %309, i64 16, i1 false), !dbg !856
  br label %bb91, !dbg !856

bb91:                                             ; preds = %bb89
  %310 = bitcast %"std::result::Result<std::option::Option<u8>, std::boxed::Box<bincode::ErrorKind>>"* %_156 to i8*, !dbg !856
  %311 = load i8, i8* %310, align 8, !dbg !856, !range !857
  %312 = trunc i8 %311 to i1, !dbg !856
  %_158 = zext i1 %312 to i64, !dbg !856
  switch i64 %_158, label %bb93 [
    i64 0, label %bb94
    i64 1, label %bb92
  ], !dbg !858

bb93:                                             ; preds = %bb91
  unreachable, !dbg !856

bb94:                                             ; preds = %bb91
  %313 = bitcast %"std::result::Result<std::option::Option<u8>, std::boxed::Box<bincode::ErrorKind>>"* %_156 to %"std::result::Result<std::option::Option<u8>, std::boxed::Box<bincode::ErrorKind>>::Ok"*, !dbg !858
  %314 = getelementptr inbounds %"std::result::Result<std::option::Option<u8>, std::boxed::Box<bincode::ErrorKind>>::Ok", %"std::result::Result<std::option::Option<u8>, std::boxed::Box<bincode::ErrorKind>>::Ok"* %313, i32 0, i32 1, !dbg !858
  %315 = getelementptr inbounds { i8, i8 }, { i8, i8 }* %314, i32 0, i32 0, !dbg !858
  %316 = load i8, i8* %315, align 1, !dbg !858, !range !857
  %val.067 = trunc i8 %316 to i1, !dbg !858
  %317 = getelementptr inbounds { i8, i8 }, { i8, i8 }* %314, i32 0, i32 1, !dbg !858
  %val.168 = load i8, i8* %317, align 1, !dbg !858
  %318 = getelementptr inbounds { i8, i8 }, { i8, i8 }* %val.dbg.spill69, i32 0, i32 0, !dbg !858
  %319 = zext i1 %val.067 to i8, !dbg !858
  store i8 %319, i8* %318, align 1, !dbg !858
  %320 = getelementptr inbounds { i8, i8 }, { i8, i8 }* %val.dbg.spill69, i32 0, i32 1, !dbg !858
  store i8 %val.168, i8* %320, align 1, !dbg !858
  call void @llvm.dbg.declare(metadata { i8, i8 }* %val.dbg.spill69, metadata !676, metadata !DIExpression()), !dbg !897
  %321 = getelementptr inbounds { i8, i8 }, { i8, i8 }* %_155, i32 0, i32 0, !dbg !897
  %322 = zext i1 %val.067 to i8, !dbg !897
  store i8 %322, i8* %321, align 1, !dbg !897
  %323 = getelementptr inbounds { i8, i8 }, { i8, i8 }* %_155, i32 0, i32 1, !dbg !897
  store i8 %val.168, i8* %323, align 1, !dbg !897
  %324 = bitcast { i8, i8 }* %_155 to i8*, !dbg !858
  %325 = load i8, i8* %324, align 1, !dbg !858, !range !857
  %326 = trunc i8 %325 to i1, !dbg !858
  %_163 = zext i1 %326 to i64, !dbg !858
  switch i64 %_163, label %bb97 [
    i64 0, label %bb96
    i64 1, label %bb98
  ], !dbg !860

bb92:                                             ; preds = %bb91
  %327 = bitcast %"std::result::Result<std::option::Option<u8>, std::boxed::Box<bincode::ErrorKind>>"* %_156 to %"std::result::Result<std::option::Option<u8>, std::boxed::Box<bincode::ErrorKind>>::Err"*, !dbg !858
  %328 = getelementptr inbounds %"std::result::Result<std::option::Option<u8>, std::boxed::Box<bincode::ErrorKind>>::Err", %"std::result::Result<std::option::Option<u8>, std::boxed::Box<bincode::ErrorKind>>::Err"* %327, i32 0, i32 1, !dbg !858
  %err65 = load %"bincode::ErrorKind"*, %"bincode::ErrorKind"** %328, align 8, !dbg !858, !nonnull !4
  store %"bincode::ErrorKind"* %err65, %"bincode::ErrorKind"** %err.dbg.spill66, align 8, !dbg !858
  call void @llvm.dbg.declare(metadata %"bincode::ErrorKind"** %err.dbg.spill66, metadata !679, metadata !DIExpression()), !dbg !898
; call <T as core::convert::From<T>>::from
  %_161 = call noalias nonnull align 8 %"bincode::ErrorKind"* @"_ZN50_$LT$T$u20$as$u20$core..convert..From$LT$T$GT$$GT$4from17ha11598da122a93ebE"(%"bincode::ErrorKind"* noalias nonnull align 8 %err65), !dbg !898
  br label %bb95, !dbg !898

bb95:                                             ; preds = %bb92
  %329 = bitcast %"std::result::Result<[u8; 32], std::boxed::Box<bincode::ErrorKind>>"* %0 to %"std::result::Result<[u8; 32], std::boxed::Box<bincode::ErrorKind>>::Err"*, !dbg !898
  %330 = getelementptr inbounds %"std::result::Result<[u8; 32], std::boxed::Box<bincode::ErrorKind>>::Err", %"std::result::Result<[u8; 32], std::boxed::Box<bincode::ErrorKind>>::Err"* %329, i32 0, i32 1, !dbg !898
  store %"bincode::ErrorKind"* %_161, %"bincode::ErrorKind"** %330, align 8, !dbg !898
  %331 = bitcast %"std::result::Result<[u8; 32], std::boxed::Box<bincode::ErrorKind>>"* %0 to i8*, !dbg !898
  store i8 1, i8* %331, align 8, !dbg !898
  br label %bb1139, !dbg !871

bb1139:                                           ; preds = %bb95
  br label %bb1140, !dbg !871

bb1140:                                           ; preds = %bb1139
  br label %bb1141, !dbg !871

bb1141:                                           ; preds = %bb1140
  br label %bb1142, !dbg !871

bb1142:                                           ; preds = %bb1141
  br label %bb1143, !dbg !871

bb1143:                                           ; preds = %bb1142
  br label %bb1144, !dbg !871

bb1144:                                           ; preds = %bb1143
  br label %bb1145, !dbg !871

bb1145:                                           ; preds = %bb1144
  br label %bb1146, !dbg !871

bb1146:                                           ; preds = %bb1145
  br label %bb1147, !dbg !871

bb1147:                                           ; preds = %bb1146
  br label %bb1264, !dbg !871

bb1264:                                           ; preds = %bb1263, %bb1147
  br label %bb1265, !dbg !860

bb97:                                             ; preds = %bb94
  unreachable, !dbg !858

bb96:                                             ; preds = %bb94
  %_166.0 = bitcast %"serde::de::impls::ArrayVisitor<[u8; 32]>"* %self to {}*, !dbg !865
; call serde::de::Error::invalid_length
  %_165 = call noalias nonnull align 8 %"bincode::ErrorKind"* @_ZN5serde2de5Error14invalid_length17h238c3f97e0eec12fE(i64 10, {}* nonnull align 1 %_166.0, [3 x i64]* align 8 dereferenceable(24) bitcast (<{ i8*, [16 x i8], i8*, [0 x i8] }>* @vtable.0 to [3 x i64]*)), !dbg !866
  br label %bb99, !dbg !866

bb98:                                             ; preds = %bb94
  %332 = bitcast { i8, i8 }* %_155 to %"std::option::Option<u8>::Some"*, !dbg !867
  %333 = getelementptr inbounds %"std::option::Option<u8>::Some", %"std::option::Option<u8>::Some"* %332, i32 0, i32 1, !dbg !867
  %val70 = load i8, i8* %333, align 1, !dbg !867
  store i8 %val70, i8* %val.dbg.spill71, align 1, !dbg !867
  call void @llvm.dbg.declare(metadata i8* %val.dbg.spill71, metadata !682, metadata !DIExpression()), !dbg !899
; call serde::de::SeqAccess::next_element
  %334 = call i128 @_ZN5serde2de9SeqAccess12next_element17hab3df56b4dd3231eE({ i64*, i64 }* align 8 dereferenceable(16) %seq), !dbg !856
  store i128 %334, i128* %23, align 8, !dbg !856
  %335 = bitcast %"std::result::Result<std::option::Option<u8>, std::boxed::Box<bincode::ErrorKind>>"* %_171 to i8*, !dbg !856
  %336 = bitcast i128* %23 to i8*, !dbg !856
  call void @llvm.memcpy.p0i8.p0i8.i64(i8* align 8 %335, i8* align 8 %336, i64 16, i1 false), !dbg !856
  br label %bb100, !dbg !856

bb100:                                            ; preds = %bb98
  %337 = bitcast %"std::result::Result<std::option::Option<u8>, std::boxed::Box<bincode::ErrorKind>>"* %_171 to i8*, !dbg !856
  %338 = load i8, i8* %337, align 8, !dbg !856, !range !857
  %339 = trunc i8 %338 to i1, !dbg !856
  %_173 = zext i1 %339 to i64, !dbg !856
  switch i64 %_173, label %bb102 [
    i64 0, label %bb103
    i64 1, label %bb101
  ], !dbg !858

bb102:                                            ; preds = %bb100
  unreachable, !dbg !856

bb103:                                            ; preds = %bb100
  %340 = bitcast %"std::result::Result<std::option::Option<u8>, std::boxed::Box<bincode::ErrorKind>>"* %_171 to %"std::result::Result<std::option::Option<u8>, std::boxed::Box<bincode::ErrorKind>>::Ok"*, !dbg !858
  %341 = getelementptr inbounds %"std::result::Result<std::option::Option<u8>, std::boxed::Box<bincode::ErrorKind>>::Ok", %"std::result::Result<std::option::Option<u8>, std::boxed::Box<bincode::ErrorKind>>::Ok"* %340, i32 0, i32 1, !dbg !858
  %342 = getelementptr inbounds { i8, i8 }, { i8, i8 }* %341, i32 0, i32 0, !dbg !858
  %343 = load i8, i8* %342, align 1, !dbg !858, !range !857
  %val.074 = trunc i8 %343 to i1, !dbg !858
  %344 = getelementptr inbounds { i8, i8 }, { i8, i8 }* %341, i32 0, i32 1, !dbg !858
  %val.175 = load i8, i8* %344, align 1, !dbg !858
  %345 = getelementptr inbounds { i8, i8 }, { i8, i8 }* %val.dbg.spill76, i32 0, i32 0, !dbg !858
  %346 = zext i1 %val.074 to i8, !dbg !858
  store i8 %346, i8* %345, align 1, !dbg !858
  %347 = getelementptr inbounds { i8, i8 }, { i8, i8 }* %val.dbg.spill76, i32 0, i32 1, !dbg !858
  store i8 %val.175, i8* %347, align 1, !dbg !858
  call void @llvm.dbg.declare(metadata { i8, i8 }* %val.dbg.spill76, metadata !684, metadata !DIExpression()), !dbg !900
  %348 = getelementptr inbounds { i8, i8 }, { i8, i8 }* %_170, i32 0, i32 0, !dbg !900
  %349 = zext i1 %val.074 to i8, !dbg !900
  store i8 %349, i8* %348, align 1, !dbg !900
  %350 = getelementptr inbounds { i8, i8 }, { i8, i8 }* %_170, i32 0, i32 1, !dbg !900
  store i8 %val.175, i8* %350, align 1, !dbg !900
  %351 = bitcast { i8, i8 }* %_170 to i8*, !dbg !858
  %352 = load i8, i8* %351, align 1, !dbg !858, !range !857
  %353 = trunc i8 %352 to i1, !dbg !858
  %_178 = zext i1 %353 to i64, !dbg !858
  switch i64 %_178, label %bb106 [
    i64 0, label %bb105
    i64 1, label %bb107
  ], !dbg !860

bb101:                                            ; preds = %bb100
  %354 = bitcast %"std::result::Result<std::option::Option<u8>, std::boxed::Box<bincode::ErrorKind>>"* %_171 to %"std::result::Result<std::option::Option<u8>, std::boxed::Box<bincode::ErrorKind>>::Err"*, !dbg !858
  %355 = getelementptr inbounds %"std::result::Result<std::option::Option<u8>, std::boxed::Box<bincode::ErrorKind>>::Err", %"std::result::Result<std::option::Option<u8>, std::boxed::Box<bincode::ErrorKind>>::Err"* %354, i32 0, i32 1, !dbg !858
  %err72 = load %"bincode::ErrorKind"*, %"bincode::ErrorKind"** %355, align 8, !dbg !858, !nonnull !4
  store %"bincode::ErrorKind"* %err72, %"bincode::ErrorKind"** %err.dbg.spill73, align 8, !dbg !858
  call void @llvm.dbg.declare(metadata %"bincode::ErrorKind"** %err.dbg.spill73, metadata !687, metadata !DIExpression()), !dbg !901
; call <T as core::convert::From<T>>::from
  %_176 = call noalias nonnull align 8 %"bincode::ErrorKind"* @"_ZN50_$LT$T$u20$as$u20$core..convert..From$LT$T$GT$$GT$4from17ha11598da122a93ebE"(%"bincode::ErrorKind"* noalias nonnull align 8 %err72), !dbg !901
  br label %bb104, !dbg !901

bb104:                                            ; preds = %bb101
  %356 = bitcast %"std::result::Result<[u8; 32], std::boxed::Box<bincode::ErrorKind>>"* %0 to %"std::result::Result<[u8; 32], std::boxed::Box<bincode::ErrorKind>>::Err"*, !dbg !901
  %357 = getelementptr inbounds %"std::result::Result<[u8; 32], std::boxed::Box<bincode::ErrorKind>>::Err", %"std::result::Result<[u8; 32], std::boxed::Box<bincode::ErrorKind>>::Err"* %356, i32 0, i32 1, !dbg !901
  store %"bincode::ErrorKind"* %_176, %"bincode::ErrorKind"** %357, align 8, !dbg !901
  %358 = bitcast %"std::result::Result<[u8; 32], std::boxed::Box<bincode::ErrorKind>>"* %0 to i8*, !dbg !901
  store i8 1, i8* %358, align 8, !dbg !901
  br label %bb1120, !dbg !871

bb1120:                                           ; preds = %bb104
  br label %bb1121, !dbg !871

bb1121:                                           ; preds = %bb1120
  br label %bb1122, !dbg !871

bb1122:                                           ; preds = %bb1121
  br label %bb1123, !dbg !871

bb1123:                                           ; preds = %bb1122
  br label %bb1124, !dbg !871

bb1124:                                           ; preds = %bb1123
  br label %bb1125, !dbg !871

bb1125:                                           ; preds = %bb1124
  br label %bb1126, !dbg !871

bb1126:                                           ; preds = %bb1125
  br label %bb1127, !dbg !871

bb1127:                                           ; preds = %bb1126
  br label %bb1128, !dbg !871

bb1128:                                           ; preds = %bb1127
  br label %bb1129, !dbg !871

bb1129:                                           ; preds = %bb1128
  br label %bb1262, !dbg !871

bb1262:                                           ; preds = %bb1261, %bb1129
  br label %bb1263, !dbg !860

bb106:                                            ; preds = %bb103
  unreachable, !dbg !858

bb105:                                            ; preds = %bb103
  %_181.0 = bitcast %"serde::de::impls::ArrayVisitor<[u8; 32]>"* %self to {}*, !dbg !865
; call serde::de::Error::invalid_length
  %_180 = call noalias nonnull align 8 %"bincode::ErrorKind"* @_ZN5serde2de5Error14invalid_length17h238c3f97e0eec12fE(i64 11, {}* nonnull align 1 %_181.0, [3 x i64]* align 8 dereferenceable(24) bitcast (<{ i8*, [16 x i8], i8*, [0 x i8] }>* @vtable.0 to [3 x i64]*)), !dbg !866
  br label %bb108, !dbg !866

bb107:                                            ; preds = %bb103
  %359 = bitcast { i8, i8 }* %_170 to %"std::option::Option<u8>::Some"*, !dbg !867
  %360 = getelementptr inbounds %"std::option::Option<u8>::Some", %"std::option::Option<u8>::Some"* %359, i32 0, i32 1, !dbg !867
  %val77 = load i8, i8* %360, align 1, !dbg !867
  store i8 %val77, i8* %val.dbg.spill78, align 1, !dbg !867
  call void @llvm.dbg.declare(metadata i8* %val.dbg.spill78, metadata !690, metadata !DIExpression()), !dbg !902
; call serde::de::SeqAccess::next_element
  %361 = call i128 @_ZN5serde2de9SeqAccess12next_element17hab3df56b4dd3231eE({ i64*, i64 }* align 8 dereferenceable(16) %seq), !dbg !856
  store i128 %361, i128* %22, align 8, !dbg !856
  %362 = bitcast %"std::result::Result<std::option::Option<u8>, std::boxed::Box<bincode::ErrorKind>>"* %_186 to i8*, !dbg !856
  %363 = bitcast i128* %22 to i8*, !dbg !856
  call void @llvm.memcpy.p0i8.p0i8.i64(i8* align 8 %362, i8* align 8 %363, i64 16, i1 false), !dbg !856
  br label %bb109, !dbg !856

bb109:                                            ; preds = %bb107
  %364 = bitcast %"std::result::Result<std::option::Option<u8>, std::boxed::Box<bincode::ErrorKind>>"* %_186 to i8*, !dbg !856
  %365 = load i8, i8* %364, align 8, !dbg !856, !range !857
  %366 = trunc i8 %365 to i1, !dbg !856
  %_188 = zext i1 %366 to i64, !dbg !856
  switch i64 %_188, label %bb111 [
    i64 0, label %bb112
    i64 1, label %bb110
  ], !dbg !858

bb111:                                            ; preds = %bb109
  unreachable, !dbg !856

bb112:                                            ; preds = %bb109
  %367 = bitcast %"std::result::Result<std::option::Option<u8>, std::boxed::Box<bincode::ErrorKind>>"* %_186 to %"std::result::Result<std::option::Option<u8>, std::boxed::Box<bincode::ErrorKind>>::Ok"*, !dbg !858
  %368 = getelementptr inbounds %"std::result::Result<std::option::Option<u8>, std::boxed::Box<bincode::ErrorKind>>::Ok", %"std::result::Result<std::option::Option<u8>, std::boxed::Box<bincode::ErrorKind>>::Ok"* %367, i32 0, i32 1, !dbg !858
  %369 = getelementptr inbounds { i8, i8 }, { i8, i8 }* %368, i32 0, i32 0, !dbg !858
  %370 = load i8, i8* %369, align 1, !dbg !858, !range !857
  %val.081 = trunc i8 %370 to i1, !dbg !858
  %371 = getelementptr inbounds { i8, i8 }, { i8, i8 }* %368, i32 0, i32 1, !dbg !858
  %val.182 = load i8, i8* %371, align 1, !dbg !858
  %372 = getelementptr inbounds { i8, i8 }, { i8, i8 }* %val.dbg.spill83, i32 0, i32 0, !dbg !858
  %373 = zext i1 %val.081 to i8, !dbg !858
  store i8 %373, i8* %372, align 1, !dbg !858
  %374 = getelementptr inbounds { i8, i8 }, { i8, i8 }* %val.dbg.spill83, i32 0, i32 1, !dbg !858
  store i8 %val.182, i8* %374, align 1, !dbg !858
  call void @llvm.dbg.declare(metadata { i8, i8 }* %val.dbg.spill83, metadata !692, metadata !DIExpression()), !dbg !903
  %375 = getelementptr inbounds { i8, i8 }, { i8, i8 }* %_185, i32 0, i32 0, !dbg !903
  %376 = zext i1 %val.081 to i8, !dbg !903
  store i8 %376, i8* %375, align 1, !dbg !903
  %377 = getelementptr inbounds { i8, i8 }, { i8, i8 }* %_185, i32 0, i32 1, !dbg !903
  store i8 %val.182, i8* %377, align 1, !dbg !903
  %378 = bitcast { i8, i8 }* %_185 to i8*, !dbg !858
  %379 = load i8, i8* %378, align 1, !dbg !858, !range !857
  %380 = trunc i8 %379 to i1, !dbg !858
  %_193 = zext i1 %380 to i64, !dbg !858
  switch i64 %_193, label %bb115 [
    i64 0, label %bb114
    i64 1, label %bb116
  ], !dbg !860

bb110:                                            ; preds = %bb109
  %381 = bitcast %"std::result::Result<std::option::Option<u8>, std::boxed::Box<bincode::ErrorKind>>"* %_186 to %"std::result::Result<std::option::Option<u8>, std::boxed::Box<bincode::ErrorKind>>::Err"*, !dbg !858
  %382 = getelementptr inbounds %"std::result::Result<std::option::Option<u8>, std::boxed::Box<bincode::ErrorKind>>::Err", %"std::result::Result<std::option::Option<u8>, std::boxed::Box<bincode::ErrorKind>>::Err"* %381, i32 0, i32 1, !dbg !858
  %err79 = load %"bincode::ErrorKind"*, %"bincode::ErrorKind"** %382, align 8, !dbg !858, !nonnull !4
  store %"bincode::ErrorKind"* %err79, %"bincode::ErrorKind"** %err.dbg.spill80, align 8, !dbg !858
  call void @llvm.dbg.declare(metadata %"bincode::ErrorKind"** %err.dbg.spill80, metadata !695, metadata !DIExpression()), !dbg !904
; call <T as core::convert::From<T>>::from
  %_191 = call noalias nonnull align 8 %"bincode::ErrorKind"* @"_ZN50_$LT$T$u20$as$u20$core..convert..From$LT$T$GT$$GT$4from17ha11598da122a93ebE"(%"bincode::ErrorKind"* noalias nonnull align 8 %err79), !dbg !904
  br label %bb113, !dbg !904

bb113:                                            ; preds = %bb110
  %383 = bitcast %"std::result::Result<[u8; 32], std::boxed::Box<bincode::ErrorKind>>"* %0 to %"std::result::Result<[u8; 32], std::boxed::Box<bincode::ErrorKind>>::Err"*, !dbg !904
  %384 = getelementptr inbounds %"std::result::Result<[u8; 32], std::boxed::Box<bincode::ErrorKind>>::Err", %"std::result::Result<[u8; 32], std::boxed::Box<bincode::ErrorKind>>::Err"* %383, i32 0, i32 1, !dbg !904
  store %"bincode::ErrorKind"* %_191, %"bincode::ErrorKind"** %384, align 8, !dbg !904
  %385 = bitcast %"std::result::Result<[u8; 32], std::boxed::Box<bincode::ErrorKind>>"* %0 to i8*, !dbg !904
  store i8 1, i8* %385, align 8, !dbg !904
  br label %bb1099, !dbg !871

bb1099:                                           ; preds = %bb113
  br label %bb1100, !dbg !871

bb1100:                                           ; preds = %bb1099
  br label %bb1101, !dbg !871

bb1101:                                           ; preds = %bb1100
  br label %bb1102, !dbg !871

bb1102:                                           ; preds = %bb1101
  br label %bb1103, !dbg !871

bb1103:                                           ; preds = %bb1102
  br label %bb1104, !dbg !871

bb1104:                                           ; preds = %bb1103
  br label %bb1105, !dbg !871

bb1105:                                           ; preds = %bb1104
  br label %bb1106, !dbg !871

bb1106:                                           ; preds = %bb1105
  br label %bb1107, !dbg !871

bb1107:                                           ; preds = %bb1106
  br label %bb1108, !dbg !871

bb1108:                                           ; preds = %bb1107
  br label %bb1109, !dbg !871

bb1109:                                           ; preds = %bb1108
  br label %bb1260, !dbg !871

bb1260:                                           ; preds = %bb1259, %bb1109
  br label %bb1261, !dbg !860

bb115:                                            ; preds = %bb112
  unreachable, !dbg !858

bb114:                                            ; preds = %bb112
  %_196.0 = bitcast %"serde::de::impls::ArrayVisitor<[u8; 32]>"* %self to {}*, !dbg !865
; call serde::de::Error::invalid_length
  %_195 = call noalias nonnull align 8 %"bincode::ErrorKind"* @_ZN5serde2de5Error14invalid_length17h238c3f97e0eec12fE(i64 12, {}* nonnull align 1 %_196.0, [3 x i64]* align 8 dereferenceable(24) bitcast (<{ i8*, [16 x i8], i8*, [0 x i8] }>* @vtable.0 to [3 x i64]*)), !dbg !866
  br label %bb117, !dbg !866

bb116:                                            ; preds = %bb112
  %386 = bitcast { i8, i8 }* %_185 to %"std::option::Option<u8>::Some"*, !dbg !867
  %387 = getelementptr inbounds %"std::option::Option<u8>::Some", %"std::option::Option<u8>::Some"* %386, i32 0, i32 1, !dbg !867
  %val84 = load i8, i8* %387, align 1, !dbg !867
  store i8 %val84, i8* %val.dbg.spill85, align 1, !dbg !867
  call void @llvm.dbg.declare(metadata i8* %val.dbg.spill85, metadata !698, metadata !DIExpression()), !dbg !905
; call serde::de::SeqAccess::next_element
  %388 = call i128 @_ZN5serde2de9SeqAccess12next_element17hab3df56b4dd3231eE({ i64*, i64 }* align 8 dereferenceable(16) %seq), !dbg !856
  store i128 %388, i128* %21, align 8, !dbg !856
  %389 = bitcast %"std::result::Result<std::option::Option<u8>, std::boxed::Box<bincode::ErrorKind>>"* %_201 to i8*, !dbg !856
  %390 = bitcast i128* %21 to i8*, !dbg !856
  call void @llvm.memcpy.p0i8.p0i8.i64(i8* align 8 %389, i8* align 8 %390, i64 16, i1 false), !dbg !856
  br label %bb118, !dbg !856

bb118:                                            ; preds = %bb116
  %391 = bitcast %"std::result::Result<std::option::Option<u8>, std::boxed::Box<bincode::ErrorKind>>"* %_201 to i8*, !dbg !856
  %392 = load i8, i8* %391, align 8, !dbg !856, !range !857
  %393 = trunc i8 %392 to i1, !dbg !856
  %_203 = zext i1 %393 to i64, !dbg !856
  switch i64 %_203, label %bb120 [
    i64 0, label %bb121
    i64 1, label %bb119
  ], !dbg !858

bb120:                                            ; preds = %bb118
  unreachable, !dbg !856

bb121:                                            ; preds = %bb118
  %394 = bitcast %"std::result::Result<std::option::Option<u8>, std::boxed::Box<bincode::ErrorKind>>"* %_201 to %"std::result::Result<std::option::Option<u8>, std::boxed::Box<bincode::ErrorKind>>::Ok"*, !dbg !858
  %395 = getelementptr inbounds %"std::result::Result<std::option::Option<u8>, std::boxed::Box<bincode::ErrorKind>>::Ok", %"std::result::Result<std::option::Option<u8>, std::boxed::Box<bincode::ErrorKind>>::Ok"* %394, i32 0, i32 1, !dbg !858
  %396 = getelementptr inbounds { i8, i8 }, { i8, i8 }* %395, i32 0, i32 0, !dbg !858
  %397 = load i8, i8* %396, align 1, !dbg !858, !range !857
  %val.088 = trunc i8 %397 to i1, !dbg !858
  %398 = getelementptr inbounds { i8, i8 }, { i8, i8 }* %395, i32 0, i32 1, !dbg !858
  %val.189 = load i8, i8* %398, align 1, !dbg !858
  %399 = getelementptr inbounds { i8, i8 }, { i8, i8 }* %val.dbg.spill90, i32 0, i32 0, !dbg !858
  %400 = zext i1 %val.088 to i8, !dbg !858
  store i8 %400, i8* %399, align 1, !dbg !858
  %401 = getelementptr inbounds { i8, i8 }, { i8, i8 }* %val.dbg.spill90, i32 0, i32 1, !dbg !858
  store i8 %val.189, i8* %401, align 1, !dbg !858
  call void @llvm.dbg.declare(metadata { i8, i8 }* %val.dbg.spill90, metadata !700, metadata !DIExpression()), !dbg !906
  %402 = getelementptr inbounds { i8, i8 }, { i8, i8 }* %_200, i32 0, i32 0, !dbg !906
  %403 = zext i1 %val.088 to i8, !dbg !906
  store i8 %403, i8* %402, align 1, !dbg !906
  %404 = getelementptr inbounds { i8, i8 }, { i8, i8 }* %_200, i32 0, i32 1, !dbg !906
  store i8 %val.189, i8* %404, align 1, !dbg !906
  %405 = bitcast { i8, i8 }* %_200 to i8*, !dbg !858
  %406 = load i8, i8* %405, align 1, !dbg !858, !range !857
  %407 = trunc i8 %406 to i1, !dbg !858
  %_208 = zext i1 %407 to i64, !dbg !858
  switch i64 %_208, label %bb124 [
    i64 0, label %bb123
    i64 1, label %bb125
  ], !dbg !860

bb119:                                            ; preds = %bb118
  %408 = bitcast %"std::result::Result<std::option::Option<u8>, std::boxed::Box<bincode::ErrorKind>>"* %_201 to %"std::result::Result<std::option::Option<u8>, std::boxed::Box<bincode::ErrorKind>>::Err"*, !dbg !858
  %409 = getelementptr inbounds %"std::result::Result<std::option::Option<u8>, std::boxed::Box<bincode::ErrorKind>>::Err", %"std::result::Result<std::option::Option<u8>, std::boxed::Box<bincode::ErrorKind>>::Err"* %408, i32 0, i32 1, !dbg !858
  %err86 = load %"bincode::ErrorKind"*, %"bincode::ErrorKind"** %409, align 8, !dbg !858, !nonnull !4
  store %"bincode::ErrorKind"* %err86, %"bincode::ErrorKind"** %err.dbg.spill87, align 8, !dbg !858
  call void @llvm.dbg.declare(metadata %"bincode::ErrorKind"** %err.dbg.spill87, metadata !703, metadata !DIExpression()), !dbg !907
; call <T as core::convert::From<T>>::from
  %_206 = call noalias nonnull align 8 %"bincode::ErrorKind"* @"_ZN50_$LT$T$u20$as$u20$core..convert..From$LT$T$GT$$GT$4from17ha11598da122a93ebE"(%"bincode::ErrorKind"* noalias nonnull align 8 %err86), !dbg !907
  br label %bb122, !dbg !907

bb122:                                            ; preds = %bb119
  %410 = bitcast %"std::result::Result<[u8; 32], std::boxed::Box<bincode::ErrorKind>>"* %0 to %"std::result::Result<[u8; 32], std::boxed::Box<bincode::ErrorKind>>::Err"*, !dbg !907
  %411 = getelementptr inbounds %"std::result::Result<[u8; 32], std::boxed::Box<bincode::ErrorKind>>::Err", %"std::result::Result<[u8; 32], std::boxed::Box<bincode::ErrorKind>>::Err"* %410, i32 0, i32 1, !dbg !907
  store %"bincode::ErrorKind"* %_206, %"bincode::ErrorKind"** %411, align 8, !dbg !907
  %412 = bitcast %"std::result::Result<[u8; 32], std::boxed::Box<bincode::ErrorKind>>"* %0 to i8*, !dbg !907
  store i8 1, i8* %412, align 8, !dbg !907
  br label %bb1076, !dbg !871

bb1076:                                           ; preds = %bb122
  br label %bb1077, !dbg !871

bb1077:                                           ; preds = %bb1076
  br label %bb1078, !dbg !871

bb1078:                                           ; preds = %bb1077
  br label %bb1079, !dbg !871

bb1079:                                           ; preds = %bb1078
  br label %bb1080, !dbg !871

bb1080:                                           ; preds = %bb1079
  br label %bb1081, !dbg !871

bb1081:                                           ; preds = %bb1080
  br label %bb1082, !dbg !871

bb1082:                                           ; preds = %bb1081
  br label %bb1083, !dbg !871

bb1083:                                           ; preds = %bb1082
  br label %bb1084, !dbg !871

bb1084:                                           ; preds = %bb1083
  br label %bb1085, !dbg !871

bb1085:                                           ; preds = %bb1084
  br label %bb1086, !dbg !871

bb1086:                                           ; preds = %bb1085
  br label %bb1087, !dbg !871

bb1087:                                           ; preds = %bb1086
  br label %bb1258, !dbg !871

bb1258:                                           ; preds = %bb1257, %bb1087
  br label %bb1259, !dbg !860

bb124:                                            ; preds = %bb121
  unreachable, !dbg !858

bb123:                                            ; preds = %bb121
  %_211.0 = bitcast %"serde::de::impls::ArrayVisitor<[u8; 32]>"* %self to {}*, !dbg !865
; call serde::de::Error::invalid_length
  %_210 = call noalias nonnull align 8 %"bincode::ErrorKind"* @_ZN5serde2de5Error14invalid_length17h238c3f97e0eec12fE(i64 13, {}* nonnull align 1 %_211.0, [3 x i64]* align 8 dereferenceable(24) bitcast (<{ i8*, [16 x i8], i8*, [0 x i8] }>* @vtable.0 to [3 x i64]*)), !dbg !866
  br label %bb126, !dbg !866

bb125:                                            ; preds = %bb121
  %413 = bitcast { i8, i8 }* %_200 to %"std::option::Option<u8>::Some"*, !dbg !867
  %414 = getelementptr inbounds %"std::option::Option<u8>::Some", %"std::option::Option<u8>::Some"* %413, i32 0, i32 1, !dbg !867
  %val91 = load i8, i8* %414, align 1, !dbg !867
  store i8 %val91, i8* %val.dbg.spill92, align 1, !dbg !867
  call void @llvm.dbg.declare(metadata i8* %val.dbg.spill92, metadata !706, metadata !DIExpression()), !dbg !908
; call serde::de::SeqAccess::next_element
  %415 = call i128 @_ZN5serde2de9SeqAccess12next_element17hab3df56b4dd3231eE({ i64*, i64 }* align 8 dereferenceable(16) %seq), !dbg !856
  store i128 %415, i128* %20, align 8, !dbg !856
  %416 = bitcast %"std::result::Result<std::option::Option<u8>, std::boxed::Box<bincode::ErrorKind>>"* %_216 to i8*, !dbg !856
  %417 = bitcast i128* %20 to i8*, !dbg !856
  call void @llvm.memcpy.p0i8.p0i8.i64(i8* align 8 %416, i8* align 8 %417, i64 16, i1 false), !dbg !856
  br label %bb127, !dbg !856

bb127:                                            ; preds = %bb125
  %418 = bitcast %"std::result::Result<std::option::Option<u8>, std::boxed::Box<bincode::ErrorKind>>"* %_216 to i8*, !dbg !856
  %419 = load i8, i8* %418, align 8, !dbg !856, !range !857
  %420 = trunc i8 %419 to i1, !dbg !856
  %_218 = zext i1 %420 to i64, !dbg !856
  switch i64 %_218, label %bb129 [
    i64 0, label %bb130
    i64 1, label %bb128
  ], !dbg !858

bb129:                                            ; preds = %bb127
  unreachable, !dbg !856

bb130:                                            ; preds = %bb127
  %421 = bitcast %"std::result::Result<std::option::Option<u8>, std::boxed::Box<bincode::ErrorKind>>"* %_216 to %"std::result::Result<std::option::Option<u8>, std::boxed::Box<bincode::ErrorKind>>::Ok"*, !dbg !858
  %422 = getelementptr inbounds %"std::result::Result<std::option::Option<u8>, std::boxed::Box<bincode::ErrorKind>>::Ok", %"std::result::Result<std::option::Option<u8>, std::boxed::Box<bincode::ErrorKind>>::Ok"* %421, i32 0, i32 1, !dbg !858
  %423 = getelementptr inbounds { i8, i8 }, { i8, i8 }* %422, i32 0, i32 0, !dbg !858
  %424 = load i8, i8* %423, align 1, !dbg !858, !range !857
  %val.095 = trunc i8 %424 to i1, !dbg !858
  %425 = getelementptr inbounds { i8, i8 }, { i8, i8 }* %422, i32 0, i32 1, !dbg !858
  %val.196 = load i8, i8* %425, align 1, !dbg !858
  %426 = getelementptr inbounds { i8, i8 }, { i8, i8 }* %val.dbg.spill97, i32 0, i32 0, !dbg !858
  %427 = zext i1 %val.095 to i8, !dbg !858
  store i8 %427, i8* %426, align 1, !dbg !858
  %428 = getelementptr inbounds { i8, i8 }, { i8, i8 }* %val.dbg.spill97, i32 0, i32 1, !dbg !858
  store i8 %val.196, i8* %428, align 1, !dbg !858
  call void @llvm.dbg.declare(metadata { i8, i8 }* %val.dbg.spill97, metadata !708, metadata !DIExpression()), !dbg !909
  %429 = getelementptr inbounds { i8, i8 }, { i8, i8 }* %_215, i32 0, i32 0, !dbg !909
  %430 = zext i1 %val.095 to i8, !dbg !909
  store i8 %430, i8* %429, align 1, !dbg !909
  %431 = getelementptr inbounds { i8, i8 }, { i8, i8 }* %_215, i32 0, i32 1, !dbg !909
  store i8 %val.196, i8* %431, align 1, !dbg !909
  %432 = bitcast { i8, i8 }* %_215 to i8*, !dbg !858
  %433 = load i8, i8* %432, align 1, !dbg !858, !range !857
  %434 = trunc i8 %433 to i1, !dbg !858
  %_223 = zext i1 %434 to i64, !dbg !858
  switch i64 %_223, label %bb133 [
    i64 0, label %bb132
    i64 1, label %bb134
  ], !dbg !860

bb128:                                            ; preds = %bb127
  %435 = bitcast %"std::result::Result<std::option::Option<u8>, std::boxed::Box<bincode::ErrorKind>>"* %_216 to %"std::result::Result<std::option::Option<u8>, std::boxed::Box<bincode::ErrorKind>>::Err"*, !dbg !858
  %436 = getelementptr inbounds %"std::result::Result<std::option::Option<u8>, std::boxed::Box<bincode::ErrorKind>>::Err", %"std::result::Result<std::option::Option<u8>, std::boxed::Box<bincode::ErrorKind>>::Err"* %435, i32 0, i32 1, !dbg !858
  %err93 = load %"bincode::ErrorKind"*, %"bincode::ErrorKind"** %436, align 8, !dbg !858, !nonnull !4
  store %"bincode::ErrorKind"* %err93, %"bincode::ErrorKind"** %err.dbg.spill94, align 8, !dbg !858
  call void @llvm.dbg.declare(metadata %"bincode::ErrorKind"** %err.dbg.spill94, metadata !711, metadata !DIExpression()), !dbg !910
; call <T as core::convert::From<T>>::from
  %_221 = call noalias nonnull align 8 %"bincode::ErrorKind"* @"_ZN50_$LT$T$u20$as$u20$core..convert..From$LT$T$GT$$GT$4from17ha11598da122a93ebE"(%"bincode::ErrorKind"* noalias nonnull align 8 %err93), !dbg !910
  br label %bb131, !dbg !910

bb131:                                            ; preds = %bb128
  %437 = bitcast %"std::result::Result<[u8; 32], std::boxed::Box<bincode::ErrorKind>>"* %0 to %"std::result::Result<[u8; 32], std::boxed::Box<bincode::ErrorKind>>::Err"*, !dbg !910
  %438 = getelementptr inbounds %"std::result::Result<[u8; 32], std::boxed::Box<bincode::ErrorKind>>::Err", %"std::result::Result<[u8; 32], std::boxed::Box<bincode::ErrorKind>>::Err"* %437, i32 0, i32 1, !dbg !910
  store %"bincode::ErrorKind"* %_221, %"bincode::ErrorKind"** %438, align 8, !dbg !910
  %439 = bitcast %"std::result::Result<[u8; 32], std::boxed::Box<bincode::ErrorKind>>"* %0 to i8*, !dbg !910
  store i8 1, i8* %439, align 8, !dbg !910
  br label %bb1051, !dbg !871

bb1051:                                           ; preds = %bb131
  br label %bb1052, !dbg !871

bb1052:                                           ; preds = %bb1051
  br label %bb1053, !dbg !871

bb1053:                                           ; preds = %bb1052
  br label %bb1054, !dbg !871

bb1054:                                           ; preds = %bb1053
  br label %bb1055, !dbg !871

bb1055:                                           ; preds = %bb1054
  br label %bb1056, !dbg !871

bb1056:                                           ; preds = %bb1055
  br label %bb1057, !dbg !871

bb1057:                                           ; preds = %bb1056
  br label %bb1058, !dbg !871

bb1058:                                           ; preds = %bb1057
  br label %bb1059, !dbg !871

bb1059:                                           ; preds = %bb1058
  br label %bb1060, !dbg !871

bb1060:                                           ; preds = %bb1059
  br label %bb1061, !dbg !871

bb1061:                                           ; preds = %bb1060
  br label %bb1062, !dbg !871

bb1062:                                           ; preds = %bb1061
  br label %bb1063, !dbg !871

bb1063:                                           ; preds = %bb1062
  br label %bb1256, !dbg !871

bb1256:                                           ; preds = %bb1255, %bb1063
  br label %bb1257, !dbg !860

bb133:                                            ; preds = %bb130
  unreachable, !dbg !858

bb132:                                            ; preds = %bb130
  %_226.0 = bitcast %"serde::de::impls::ArrayVisitor<[u8; 32]>"* %self to {}*, !dbg !865
; call serde::de::Error::invalid_length
  %_225 = call noalias nonnull align 8 %"bincode::ErrorKind"* @_ZN5serde2de5Error14invalid_length17h238c3f97e0eec12fE(i64 14, {}* nonnull align 1 %_226.0, [3 x i64]* align 8 dereferenceable(24) bitcast (<{ i8*, [16 x i8], i8*, [0 x i8] }>* @vtable.0 to [3 x i64]*)), !dbg !866
  br label %bb135, !dbg !866

bb134:                                            ; preds = %bb130
  %440 = bitcast { i8, i8 }* %_215 to %"std::option::Option<u8>::Some"*, !dbg !867
  %441 = getelementptr inbounds %"std::option::Option<u8>::Some", %"std::option::Option<u8>::Some"* %440, i32 0, i32 1, !dbg !867
  %val98 = load i8, i8* %441, align 1, !dbg !867
  store i8 %val98, i8* %val.dbg.spill99, align 1, !dbg !867
  call void @llvm.dbg.declare(metadata i8* %val.dbg.spill99, metadata !714, metadata !DIExpression()), !dbg !911
; call serde::de::SeqAccess::next_element
  %442 = call i128 @_ZN5serde2de9SeqAccess12next_element17hab3df56b4dd3231eE({ i64*, i64 }* align 8 dereferenceable(16) %seq), !dbg !856
  store i128 %442, i128* %19, align 8, !dbg !856
  %443 = bitcast %"std::result::Result<std::option::Option<u8>, std::boxed::Box<bincode::ErrorKind>>"* %_231 to i8*, !dbg !856
  %444 = bitcast i128* %19 to i8*, !dbg !856
  call void @llvm.memcpy.p0i8.p0i8.i64(i8* align 8 %443, i8* align 8 %444, i64 16, i1 false), !dbg !856
  br label %bb136, !dbg !856

bb136:                                            ; preds = %bb134
  %445 = bitcast %"std::result::Result<std::option::Option<u8>, std::boxed::Box<bincode::ErrorKind>>"* %_231 to i8*, !dbg !856
  %446 = load i8, i8* %445, align 8, !dbg !856, !range !857
  %447 = trunc i8 %446 to i1, !dbg !856
  %_233 = zext i1 %447 to i64, !dbg !856
  switch i64 %_233, label %bb138 [
    i64 0, label %bb139
    i64 1, label %bb137
  ], !dbg !858

bb138:                                            ; preds = %bb136
  unreachable, !dbg !856

bb139:                                            ; preds = %bb136
  %448 = bitcast %"std::result::Result<std::option::Option<u8>, std::boxed::Box<bincode::ErrorKind>>"* %_231 to %"std::result::Result<std::option::Option<u8>, std::boxed::Box<bincode::ErrorKind>>::Ok"*, !dbg !858
  %449 = getelementptr inbounds %"std::result::Result<std::option::Option<u8>, std::boxed::Box<bincode::ErrorKind>>::Ok", %"std::result::Result<std::option::Option<u8>, std::boxed::Box<bincode::ErrorKind>>::Ok"* %448, i32 0, i32 1, !dbg !858
  %450 = getelementptr inbounds { i8, i8 }, { i8, i8 }* %449, i32 0, i32 0, !dbg !858
  %451 = load i8, i8* %450, align 1, !dbg !858, !range !857
  %val.0102 = trunc i8 %451 to i1, !dbg !858
  %452 = getelementptr inbounds { i8, i8 }, { i8, i8 }* %449, i32 0, i32 1, !dbg !858
  %val.1103 = load i8, i8* %452, align 1, !dbg !858
  %453 = getelementptr inbounds { i8, i8 }, { i8, i8 }* %val.dbg.spill104, i32 0, i32 0, !dbg !858
  %454 = zext i1 %val.0102 to i8, !dbg !858
  store i8 %454, i8* %453, align 1, !dbg !858
  %455 = getelementptr inbounds { i8, i8 }, { i8, i8 }* %val.dbg.spill104, i32 0, i32 1, !dbg !858
  store i8 %val.1103, i8* %455, align 1, !dbg !858
  call void @llvm.dbg.declare(metadata { i8, i8 }* %val.dbg.spill104, metadata !716, metadata !DIExpression()), !dbg !912
  %456 = getelementptr inbounds { i8, i8 }, { i8, i8 }* %_230, i32 0, i32 0, !dbg !912
  %457 = zext i1 %val.0102 to i8, !dbg !912
  store i8 %457, i8* %456, align 1, !dbg !912
  %458 = getelementptr inbounds { i8, i8 }, { i8, i8 }* %_230, i32 0, i32 1, !dbg !912
  store i8 %val.1103, i8* %458, align 1, !dbg !912
  %459 = bitcast { i8, i8 }* %_230 to i8*, !dbg !858
  %460 = load i8, i8* %459, align 1, !dbg !858, !range !857
  %461 = trunc i8 %460 to i1, !dbg !858
  %_238 = zext i1 %461 to i64, !dbg !858
  switch i64 %_238, label %bb142 [
    i64 0, label %bb141
    i64 1, label %bb143
  ], !dbg !860

bb137:                                            ; preds = %bb136
  %462 = bitcast %"std::result::Result<std::option::Option<u8>, std::boxed::Box<bincode::ErrorKind>>"* %_231 to %"std::result::Result<std::option::Option<u8>, std::boxed::Box<bincode::ErrorKind>>::Err"*, !dbg !858
  %463 = getelementptr inbounds %"std::result::Result<std::option::Option<u8>, std::boxed::Box<bincode::ErrorKind>>::Err", %"std::result::Result<std::option::Option<u8>, std::boxed::Box<bincode::ErrorKind>>::Err"* %462, i32 0, i32 1, !dbg !858
  %err100 = load %"bincode::ErrorKind"*, %"bincode::ErrorKind"** %463, align 8, !dbg !858, !nonnull !4
  store %"bincode::ErrorKind"* %err100, %"bincode::ErrorKind"** %err.dbg.spill101, align 8, !dbg !858
  call void @llvm.dbg.declare(metadata %"bincode::ErrorKind"** %err.dbg.spill101, metadata !719, metadata !DIExpression()), !dbg !913
; call <T as core::convert::From<T>>::from
  %_236 = call noalias nonnull align 8 %"bincode::ErrorKind"* @"_ZN50_$LT$T$u20$as$u20$core..convert..From$LT$T$GT$$GT$4from17ha11598da122a93ebE"(%"bincode::ErrorKind"* noalias nonnull align 8 %err100), !dbg !913
  br label %bb140, !dbg !913

bb140:                                            ; preds = %bb137
  %464 = bitcast %"std::result::Result<[u8; 32], std::boxed::Box<bincode::ErrorKind>>"* %0 to %"std::result::Result<[u8; 32], std::boxed::Box<bincode::ErrorKind>>::Err"*, !dbg !913
  %465 = getelementptr inbounds %"std::result::Result<[u8; 32], std::boxed::Box<bincode::ErrorKind>>::Err", %"std::result::Result<[u8; 32], std::boxed::Box<bincode::ErrorKind>>::Err"* %464, i32 0, i32 1, !dbg !913
  store %"bincode::ErrorKind"* %_236, %"bincode::ErrorKind"** %465, align 8, !dbg !913
  %466 = bitcast %"std::result::Result<[u8; 32], std::boxed::Box<bincode::ErrorKind>>"* %0 to i8*, !dbg !913
  store i8 1, i8* %466, align 8, !dbg !913
  br label %bb1024, !dbg !871

bb1024:                                           ; preds = %bb140
  br label %bb1025, !dbg !871

bb1025:                                           ; preds = %bb1024
  br label %bb1026, !dbg !871

bb1026:                                           ; preds = %bb1025
  br label %bb1027, !dbg !871

bb1027:                                           ; preds = %bb1026
  br label %bb1028, !dbg !871

bb1028:                                           ; preds = %bb1027
  br label %bb1029, !dbg !871

bb1029:                                           ; preds = %bb1028
  br label %bb1030, !dbg !871

bb1030:                                           ; preds = %bb1029
  br label %bb1031, !dbg !871

bb1031:                                           ; preds = %bb1030
  br label %bb1032, !dbg !871

bb1032:                                           ; preds = %bb1031
  br label %bb1033, !dbg !871

bb1033:                                           ; preds = %bb1032
  br label %bb1034, !dbg !871

bb1034:                                           ; preds = %bb1033
  br label %bb1035, !dbg !871

bb1035:                                           ; preds = %bb1034
  br label %bb1036, !dbg !871

bb1036:                                           ; preds = %bb1035
  br label %bb1037, !dbg !871

bb1037:                                           ; preds = %bb1036
  br label %bb1254, !dbg !871

bb1254:                                           ; preds = %bb1253, %bb1037
  br label %bb1255, !dbg !860

bb142:                                            ; preds = %bb139
  unreachable, !dbg !858

bb141:                                            ; preds = %bb139
  %_241.0 = bitcast %"serde::de::impls::ArrayVisitor<[u8; 32]>"* %self to {}*, !dbg !865
; call serde::de::Error::invalid_length
  %_240 = call noalias nonnull align 8 %"bincode::ErrorKind"* @_ZN5serde2de5Error14invalid_length17h238c3f97e0eec12fE(i64 15, {}* nonnull align 1 %_241.0, [3 x i64]* align 8 dereferenceable(24) bitcast (<{ i8*, [16 x i8], i8*, [0 x i8] }>* @vtable.0 to [3 x i64]*)), !dbg !866
  br label %bb144, !dbg !866

bb143:                                            ; preds = %bb139
  %467 = bitcast { i8, i8 }* %_230 to %"std::option::Option<u8>::Some"*, !dbg !867
  %468 = getelementptr inbounds %"std::option::Option<u8>::Some", %"std::option::Option<u8>::Some"* %467, i32 0, i32 1, !dbg !867
  %val105 = load i8, i8* %468, align 1, !dbg !867
  store i8 %val105, i8* %val.dbg.spill106, align 1, !dbg !867
  call void @llvm.dbg.declare(metadata i8* %val.dbg.spill106, metadata !722, metadata !DIExpression()), !dbg !914
; call serde::de::SeqAccess::next_element
  %469 = call i128 @_ZN5serde2de9SeqAccess12next_element17hab3df56b4dd3231eE({ i64*, i64 }* align 8 dereferenceable(16) %seq), !dbg !856
  store i128 %469, i128* %18, align 8, !dbg !856
  %470 = bitcast %"std::result::Result<std::option::Option<u8>, std::boxed::Box<bincode::ErrorKind>>"* %_246 to i8*, !dbg !856
  %471 = bitcast i128* %18 to i8*, !dbg !856
  call void @llvm.memcpy.p0i8.p0i8.i64(i8* align 8 %470, i8* align 8 %471, i64 16, i1 false), !dbg !856
  br label %bb145, !dbg !856

bb145:                                            ; preds = %bb143
  %472 = bitcast %"std::result::Result<std::option::Option<u8>, std::boxed::Box<bincode::ErrorKind>>"* %_246 to i8*, !dbg !856
  %473 = load i8, i8* %472, align 8, !dbg !856, !range !857
  %474 = trunc i8 %473 to i1, !dbg !856
  %_248 = zext i1 %474 to i64, !dbg !856
  switch i64 %_248, label %bb147 [
    i64 0, label %bb148
    i64 1, label %bb146
  ], !dbg !858

bb147:                                            ; preds = %bb145
  unreachable, !dbg !856

bb148:                                            ; preds = %bb145
  %475 = bitcast %"std::result::Result<std::option::Option<u8>, std::boxed::Box<bincode::ErrorKind>>"* %_246 to %"std::result::Result<std::option::Option<u8>, std::boxed::Box<bincode::ErrorKind>>::Ok"*, !dbg !858
  %476 = getelementptr inbounds %"std::result::Result<std::option::Option<u8>, std::boxed::Box<bincode::ErrorKind>>::Ok", %"std::result::Result<std::option::Option<u8>, std::boxed::Box<bincode::ErrorKind>>::Ok"* %475, i32 0, i32 1, !dbg !858
  %477 = getelementptr inbounds { i8, i8 }, { i8, i8 }* %476, i32 0, i32 0, !dbg !858
  %478 = load i8, i8* %477, align 1, !dbg !858, !range !857
  %val.0109 = trunc i8 %478 to i1, !dbg !858
  %479 = getelementptr inbounds { i8, i8 }, { i8, i8 }* %476, i32 0, i32 1, !dbg !858
  %val.1110 = load i8, i8* %479, align 1, !dbg !858
  %480 = getelementptr inbounds { i8, i8 }, { i8, i8 }* %val.dbg.spill111, i32 0, i32 0, !dbg !858
  %481 = zext i1 %val.0109 to i8, !dbg !858
  store i8 %481, i8* %480, align 1, !dbg !858
  %482 = getelementptr inbounds { i8, i8 }, { i8, i8 }* %val.dbg.spill111, i32 0, i32 1, !dbg !858
  store i8 %val.1110, i8* %482, align 1, !dbg !858
  call void @llvm.dbg.declare(metadata { i8, i8 }* %val.dbg.spill111, metadata !724, metadata !DIExpression()), !dbg !915
  %483 = getelementptr inbounds { i8, i8 }, { i8, i8 }* %_245, i32 0, i32 0, !dbg !915
  %484 = zext i1 %val.0109 to i8, !dbg !915
  store i8 %484, i8* %483, align 1, !dbg !915
  %485 = getelementptr inbounds { i8, i8 }, { i8, i8 }* %_245, i32 0, i32 1, !dbg !915
  store i8 %val.1110, i8* %485, align 1, !dbg !915
  %486 = bitcast { i8, i8 }* %_245 to i8*, !dbg !858
  %487 = load i8, i8* %486, align 1, !dbg !858, !range !857
  %488 = trunc i8 %487 to i1, !dbg !858
  %_253 = zext i1 %488 to i64, !dbg !858
  switch i64 %_253, label %bb151 [
    i64 0, label %bb150
    i64 1, label %bb152
  ], !dbg !860

bb146:                                            ; preds = %bb145
  %489 = bitcast %"std::result::Result<std::option::Option<u8>, std::boxed::Box<bincode::ErrorKind>>"* %_246 to %"std::result::Result<std::option::Option<u8>, std::boxed::Box<bincode::ErrorKind>>::Err"*, !dbg !858
  %490 = getelementptr inbounds %"std::result::Result<std::option::Option<u8>, std::boxed::Box<bincode::ErrorKind>>::Err", %"std::result::Result<std::option::Option<u8>, std::boxed::Box<bincode::ErrorKind>>::Err"* %489, i32 0, i32 1, !dbg !858
  %err107 = load %"bincode::ErrorKind"*, %"bincode::ErrorKind"** %490, align 8, !dbg !858, !nonnull !4
  store %"bincode::ErrorKind"* %err107, %"bincode::ErrorKind"** %err.dbg.spill108, align 8, !dbg !858
  call void @llvm.dbg.declare(metadata %"bincode::ErrorKind"** %err.dbg.spill108, metadata !727, metadata !DIExpression()), !dbg !916
; call <T as core::convert::From<T>>::from
  %_251 = call noalias nonnull align 8 %"bincode::ErrorKind"* @"_ZN50_$LT$T$u20$as$u20$core..convert..From$LT$T$GT$$GT$4from17ha11598da122a93ebE"(%"bincode::ErrorKind"* noalias nonnull align 8 %err107), !dbg !916
  br label %bb149, !dbg !916

bb149:                                            ; preds = %bb146
  %491 = bitcast %"std::result::Result<[u8; 32], std::boxed::Box<bincode::ErrorKind>>"* %0 to %"std::result::Result<[u8; 32], std::boxed::Box<bincode::ErrorKind>>::Err"*, !dbg !916
  %492 = getelementptr inbounds %"std::result::Result<[u8; 32], std::boxed::Box<bincode::ErrorKind>>::Err", %"std::result::Result<[u8; 32], std::boxed::Box<bincode::ErrorKind>>::Err"* %491, i32 0, i32 1, !dbg !916
  store %"bincode::ErrorKind"* %_251, %"bincode::ErrorKind"** %492, align 8, !dbg !916
  %493 = bitcast %"std::result::Result<[u8; 32], std::boxed::Box<bincode::ErrorKind>>"* %0 to i8*, !dbg !916
  store i8 1, i8* %493, align 8, !dbg !916
  br label %bb995, !dbg !871

bb995:                                            ; preds = %bb149
  br label %bb996, !dbg !871

bb996:                                            ; preds = %bb995
  br label %bb997, !dbg !871

bb997:                                            ; preds = %bb996
  br label %bb998, !dbg !871

bb998:                                            ; preds = %bb997
  br label %bb999, !dbg !871

bb999:                                            ; preds = %bb998
  br label %bb1000, !dbg !871

bb1000:                                           ; preds = %bb999
  br label %bb1001, !dbg !871

bb1001:                                           ; preds = %bb1000
  br label %bb1002, !dbg !871

bb1002:                                           ; preds = %bb1001
  br label %bb1003, !dbg !871

bb1003:                                           ; preds = %bb1002
  br label %bb1004, !dbg !871

bb1004:                                           ; preds = %bb1003
  br label %bb1005, !dbg !871

bb1005:                                           ; preds = %bb1004
  br label %bb1006, !dbg !871

bb1006:                                           ; preds = %bb1005
  br label %bb1007, !dbg !871

bb1007:                                           ; preds = %bb1006
  br label %bb1008, !dbg !871

bb1008:                                           ; preds = %bb1007
  br label %bb1009, !dbg !871

bb1009:                                           ; preds = %bb1008
  br label %bb1252, !dbg !871

bb1252:                                           ; preds = %bb1251, %bb1009
  br label %bb1253, !dbg !860

bb151:                                            ; preds = %bb148
  unreachable, !dbg !858

bb150:                                            ; preds = %bb148
  %_256.0 = bitcast %"serde::de::impls::ArrayVisitor<[u8; 32]>"* %self to {}*, !dbg !865
; call serde::de::Error::invalid_length
  %_255 = call noalias nonnull align 8 %"bincode::ErrorKind"* @_ZN5serde2de5Error14invalid_length17h238c3f97e0eec12fE(i64 16, {}* nonnull align 1 %_256.0, [3 x i64]* align 8 dereferenceable(24) bitcast (<{ i8*, [16 x i8], i8*, [0 x i8] }>* @vtable.0 to [3 x i64]*)), !dbg !866
  br label %bb153, !dbg !866

bb152:                                            ; preds = %bb148
  %494 = bitcast { i8, i8 }* %_245 to %"std::option::Option<u8>::Some"*, !dbg !867
  %495 = getelementptr inbounds %"std::option::Option<u8>::Some", %"std::option::Option<u8>::Some"* %494, i32 0, i32 1, !dbg !867
  %val112 = load i8, i8* %495, align 1, !dbg !867
  store i8 %val112, i8* %val.dbg.spill113, align 1, !dbg !867
  call void @llvm.dbg.declare(metadata i8* %val.dbg.spill113, metadata !730, metadata !DIExpression()), !dbg !917
; call serde::de::SeqAccess::next_element
  %496 = call i128 @_ZN5serde2de9SeqAccess12next_element17hab3df56b4dd3231eE({ i64*, i64 }* align 8 dereferenceable(16) %seq), !dbg !856
  store i128 %496, i128* %17, align 8, !dbg !856
  %497 = bitcast %"std::result::Result<std::option::Option<u8>, std::boxed::Box<bincode::ErrorKind>>"* %_261 to i8*, !dbg !856
  %498 = bitcast i128* %17 to i8*, !dbg !856
  call void @llvm.memcpy.p0i8.p0i8.i64(i8* align 8 %497, i8* align 8 %498, i64 16, i1 false), !dbg !856
  br label %bb154, !dbg !856

bb154:                                            ; preds = %bb152
  %499 = bitcast %"std::result::Result<std::option::Option<u8>, std::boxed::Box<bincode::ErrorKind>>"* %_261 to i8*, !dbg !856
  %500 = load i8, i8* %499, align 8, !dbg !856, !range !857
  %501 = trunc i8 %500 to i1, !dbg !856
  %_263 = zext i1 %501 to i64, !dbg !856
  switch i64 %_263, label %bb156 [
    i64 0, label %bb157
    i64 1, label %bb155
  ], !dbg !858

bb156:                                            ; preds = %bb154
  unreachable, !dbg !856

bb157:                                            ; preds = %bb154
  %502 = bitcast %"std::result::Result<std::option::Option<u8>, std::boxed::Box<bincode::ErrorKind>>"* %_261 to %"std::result::Result<std::option::Option<u8>, std::boxed::Box<bincode::ErrorKind>>::Ok"*, !dbg !858
  %503 = getelementptr inbounds %"std::result::Result<std::option::Option<u8>, std::boxed::Box<bincode::ErrorKind>>::Ok", %"std::result::Result<std::option::Option<u8>, std::boxed::Box<bincode::ErrorKind>>::Ok"* %502, i32 0, i32 1, !dbg !858
  %504 = getelementptr inbounds { i8, i8 }, { i8, i8 }* %503, i32 0, i32 0, !dbg !858
  %505 = load i8, i8* %504, align 1, !dbg !858, !range !857
  %val.0116 = trunc i8 %505 to i1, !dbg !858
  %506 = getelementptr inbounds { i8, i8 }, { i8, i8 }* %503, i32 0, i32 1, !dbg !858
  %val.1117 = load i8, i8* %506, align 1, !dbg !858
  %507 = getelementptr inbounds { i8, i8 }, { i8, i8 }* %val.dbg.spill118, i32 0, i32 0, !dbg !858
  %508 = zext i1 %val.0116 to i8, !dbg !858
  store i8 %508, i8* %507, align 1, !dbg !858
  %509 = getelementptr inbounds { i8, i8 }, { i8, i8 }* %val.dbg.spill118, i32 0, i32 1, !dbg !858
  store i8 %val.1117, i8* %509, align 1, !dbg !858
  call void @llvm.dbg.declare(metadata { i8, i8 }* %val.dbg.spill118, metadata !732, metadata !DIExpression()), !dbg !918
  %510 = getelementptr inbounds { i8, i8 }, { i8, i8 }* %_260, i32 0, i32 0, !dbg !918
  %511 = zext i1 %val.0116 to i8, !dbg !918
  store i8 %511, i8* %510, align 1, !dbg !918
  %512 = getelementptr inbounds { i8, i8 }, { i8, i8 }* %_260, i32 0, i32 1, !dbg !918
  store i8 %val.1117, i8* %512, align 1, !dbg !918
  %513 = bitcast { i8, i8 }* %_260 to i8*, !dbg !858
  %514 = load i8, i8* %513, align 1, !dbg !858, !range !857
  %515 = trunc i8 %514 to i1, !dbg !858
  %_268 = zext i1 %515 to i64, !dbg !858
  switch i64 %_268, label %bb160 [
    i64 0, label %bb159
    i64 1, label %bb161
  ], !dbg !860

bb155:                                            ; preds = %bb154
  %516 = bitcast %"std::result::Result<std::option::Option<u8>, std::boxed::Box<bincode::ErrorKind>>"* %_261 to %"std::result::Result<std::option::Option<u8>, std::boxed::Box<bincode::ErrorKind>>::Err"*, !dbg !858
  %517 = getelementptr inbounds %"std::result::Result<std::option::Option<u8>, std::boxed::Box<bincode::ErrorKind>>::Err", %"std::result::Result<std::option::Option<u8>, std::boxed::Box<bincode::ErrorKind>>::Err"* %516, i32 0, i32 1, !dbg !858
  %err114 = load %"bincode::ErrorKind"*, %"bincode::ErrorKind"** %517, align 8, !dbg !858, !nonnull !4
  store %"bincode::ErrorKind"* %err114, %"bincode::ErrorKind"** %err.dbg.spill115, align 8, !dbg !858
  call void @llvm.dbg.declare(metadata %"bincode::ErrorKind"** %err.dbg.spill115, metadata !735, metadata !DIExpression()), !dbg !919
; call <T as core::convert::From<T>>::from
  %_266 = call noalias nonnull align 8 %"bincode::ErrorKind"* @"_ZN50_$LT$T$u20$as$u20$core..convert..From$LT$T$GT$$GT$4from17ha11598da122a93ebE"(%"bincode::ErrorKind"* noalias nonnull align 8 %err114), !dbg !919
  br label %bb158, !dbg !919

bb158:                                            ; preds = %bb155
  %518 = bitcast %"std::result::Result<[u8; 32], std::boxed::Box<bincode::ErrorKind>>"* %0 to %"std::result::Result<[u8; 32], std::boxed::Box<bincode::ErrorKind>>::Err"*, !dbg !919
  %519 = getelementptr inbounds %"std::result::Result<[u8; 32], std::boxed::Box<bincode::ErrorKind>>::Err", %"std::result::Result<[u8; 32], std::boxed::Box<bincode::ErrorKind>>::Err"* %518, i32 0, i32 1, !dbg !919
  store %"bincode::ErrorKind"* %_266, %"bincode::ErrorKind"** %519, align 8, !dbg !919
  %520 = bitcast %"std::result::Result<[u8; 32], std::boxed::Box<bincode::ErrorKind>>"* %0 to i8*, !dbg !919
  store i8 1, i8* %520, align 8, !dbg !919
  br label %bb964, !dbg !871

bb964:                                            ; preds = %bb158
  br label %bb965, !dbg !871

bb965:                                            ; preds = %bb964
  br label %bb966, !dbg !871

bb966:                                            ; preds = %bb965
  br label %bb967, !dbg !871

bb967:                                            ; preds = %bb966
  br label %bb968, !dbg !871

bb968:                                            ; preds = %bb967
  br label %bb969, !dbg !871

bb969:                                            ; preds = %bb968
  br label %bb970, !dbg !871

bb970:                                            ; preds = %bb969
  br label %bb971, !dbg !871

bb971:                                            ; preds = %bb970
  br label %bb972, !dbg !871

bb972:                                            ; preds = %bb971
  br label %bb973, !dbg !871

bb973:                                            ; preds = %bb972
  br label %bb974, !dbg !871

bb974:                                            ; preds = %bb973
  br label %bb975, !dbg !871

bb975:                                            ; preds = %bb974
  br label %bb976, !dbg !871

bb976:                                            ; preds = %bb975
  br label %bb977, !dbg !871

bb977:                                            ; preds = %bb976
  br label %bb978, !dbg !871

bb978:                                            ; preds = %bb977
  br label %bb979, !dbg !871

bb979:                                            ; preds = %bb978
  br label %bb1250, !dbg !871

bb1250:                                           ; preds = %bb1249, %bb979
  br label %bb1251, !dbg !860

bb160:                                            ; preds = %bb157
  unreachable, !dbg !858

bb159:                                            ; preds = %bb157
  %_271.0 = bitcast %"serde::de::impls::ArrayVisitor<[u8; 32]>"* %self to {}*, !dbg !865
; call serde::de::Error::invalid_length
  %_270 = call noalias nonnull align 8 %"bincode::ErrorKind"* @_ZN5serde2de5Error14invalid_length17h238c3f97e0eec12fE(i64 17, {}* nonnull align 1 %_271.0, [3 x i64]* align 8 dereferenceable(24) bitcast (<{ i8*, [16 x i8], i8*, [0 x i8] }>* @vtable.0 to [3 x i64]*)), !dbg !866
  br label %bb162, !dbg !866

bb161:                                            ; preds = %bb157
  %521 = bitcast { i8, i8 }* %_260 to %"std::option::Option<u8>::Some"*, !dbg !867
  %522 = getelementptr inbounds %"std::option::Option<u8>::Some", %"std::option::Option<u8>::Some"* %521, i32 0, i32 1, !dbg !867
  %val119 = load i8, i8* %522, align 1, !dbg !867
  store i8 %val119, i8* %val.dbg.spill120, align 1, !dbg !867
  call void @llvm.dbg.declare(metadata i8* %val.dbg.spill120, metadata !738, metadata !DIExpression()), !dbg !920
; call serde::de::SeqAccess::next_element
  %523 = call i128 @_ZN5serde2de9SeqAccess12next_element17hab3df56b4dd3231eE({ i64*, i64 }* align 8 dereferenceable(16) %seq), !dbg !856
  store i128 %523, i128* %16, align 8, !dbg !856
  %524 = bitcast %"std::result::Result<std::option::Option<u8>, std::boxed::Box<bincode::ErrorKind>>"* %_276 to i8*, !dbg !856
  %525 = bitcast i128* %16 to i8*, !dbg !856
  call void @llvm.memcpy.p0i8.p0i8.i64(i8* align 8 %524, i8* align 8 %525, i64 16, i1 false), !dbg !856
  br label %bb163, !dbg !856

bb163:                                            ; preds = %bb161
  %526 = bitcast %"std::result::Result<std::option::Option<u8>, std::boxed::Box<bincode::ErrorKind>>"* %_276 to i8*, !dbg !856
  %527 = load i8, i8* %526, align 8, !dbg !856, !range !857
  %528 = trunc i8 %527 to i1, !dbg !856
  %_278 = zext i1 %528 to i64, !dbg !856
  switch i64 %_278, label %bb165 [
    i64 0, label %bb166
    i64 1, label %bb164
  ], !dbg !858

bb165:                                            ; preds = %bb163
  unreachable, !dbg !856

bb166:                                            ; preds = %bb163
  %529 = bitcast %"std::result::Result<std::option::Option<u8>, std::boxed::Box<bincode::ErrorKind>>"* %_276 to %"std::result::Result<std::option::Option<u8>, std::boxed::Box<bincode::ErrorKind>>::Ok"*, !dbg !858
  %530 = getelementptr inbounds %"std::result::Result<std::option::Option<u8>, std::boxed::Box<bincode::ErrorKind>>::Ok", %"std::result::Result<std::option::Option<u8>, std::boxed::Box<bincode::ErrorKind>>::Ok"* %529, i32 0, i32 1, !dbg !858
  %531 = getelementptr inbounds { i8, i8 }, { i8, i8 }* %530, i32 0, i32 0, !dbg !858
  %532 = load i8, i8* %531, align 1, !dbg !858, !range !857
  %val.0123 = trunc i8 %532 to i1, !dbg !858
  %533 = getelementptr inbounds { i8, i8 }, { i8, i8 }* %530, i32 0, i32 1, !dbg !858
  %val.1124 = load i8, i8* %533, align 1, !dbg !858
  %534 = getelementptr inbounds { i8, i8 }, { i8, i8 }* %val.dbg.spill125, i32 0, i32 0, !dbg !858
  %535 = zext i1 %val.0123 to i8, !dbg !858
  store i8 %535, i8* %534, align 1, !dbg !858
  %536 = getelementptr inbounds { i8, i8 }, { i8, i8 }* %val.dbg.spill125, i32 0, i32 1, !dbg !858
  store i8 %val.1124, i8* %536, align 1, !dbg !858
  call void @llvm.dbg.declare(metadata { i8, i8 }* %val.dbg.spill125, metadata !740, metadata !DIExpression()), !dbg !921
  %537 = getelementptr inbounds { i8, i8 }, { i8, i8 }* %_275, i32 0, i32 0, !dbg !921
  %538 = zext i1 %val.0123 to i8, !dbg !921
  store i8 %538, i8* %537, align 1, !dbg !921
  %539 = getelementptr inbounds { i8, i8 }, { i8, i8 }* %_275, i32 0, i32 1, !dbg !921
  store i8 %val.1124, i8* %539, align 1, !dbg !921
  %540 = bitcast { i8, i8 }* %_275 to i8*, !dbg !858
  %541 = load i8, i8* %540, align 1, !dbg !858, !range !857
  %542 = trunc i8 %541 to i1, !dbg !858
  %_283 = zext i1 %542 to i64, !dbg !858
  switch i64 %_283, label %bb169 [
    i64 0, label %bb168
    i64 1, label %bb170
  ], !dbg !860

bb164:                                            ; preds = %bb163
  %543 = bitcast %"std::result::Result<std::option::Option<u8>, std::boxed::Box<bincode::ErrorKind>>"* %_276 to %"std::result::Result<std::option::Option<u8>, std::boxed::Box<bincode::ErrorKind>>::Err"*, !dbg !858
  %544 = getelementptr inbounds %"std::result::Result<std::option::Option<u8>, std::boxed::Box<bincode::ErrorKind>>::Err", %"std::result::Result<std::option::Option<u8>, std::boxed::Box<bincode::ErrorKind>>::Err"* %543, i32 0, i32 1, !dbg !858
  %err121 = load %"bincode::ErrorKind"*, %"bincode::ErrorKind"** %544, align 8, !dbg !858, !nonnull !4
  store %"bincode::ErrorKind"* %err121, %"bincode::ErrorKind"** %err.dbg.spill122, align 8, !dbg !858
  call void @llvm.dbg.declare(metadata %"bincode::ErrorKind"** %err.dbg.spill122, metadata !743, metadata !DIExpression()), !dbg !922
; call <T as core::convert::From<T>>::from
  %_281 = call noalias nonnull align 8 %"bincode::ErrorKind"* @"_ZN50_$LT$T$u20$as$u20$core..convert..From$LT$T$GT$$GT$4from17ha11598da122a93ebE"(%"bincode::ErrorKind"* noalias nonnull align 8 %err121), !dbg !922
  br label %bb167, !dbg !922

bb167:                                            ; preds = %bb164
  %545 = bitcast %"std::result::Result<[u8; 32], std::boxed::Box<bincode::ErrorKind>>"* %0 to %"std::result::Result<[u8; 32], std::boxed::Box<bincode::ErrorKind>>::Err"*, !dbg !922
  %546 = getelementptr inbounds %"std::result::Result<[u8; 32], std::boxed::Box<bincode::ErrorKind>>::Err", %"std::result::Result<[u8; 32], std::boxed::Box<bincode::ErrorKind>>::Err"* %545, i32 0, i32 1, !dbg !922
  store %"bincode::ErrorKind"* %_281, %"bincode::ErrorKind"** %546, align 8, !dbg !922
  %547 = bitcast %"std::result::Result<[u8; 32], std::boxed::Box<bincode::ErrorKind>>"* %0 to i8*, !dbg !922
  store i8 1, i8* %547, align 8, !dbg !922
  br label %bb931, !dbg !871

bb931:                                            ; preds = %bb167
  br label %bb932, !dbg !871

bb932:                                            ; preds = %bb931
  br label %bb933, !dbg !871

bb933:                                            ; preds = %bb932
  br label %bb934, !dbg !871

bb934:                                            ; preds = %bb933
  br label %bb935, !dbg !871

bb935:                                            ; preds = %bb934
  br label %bb936, !dbg !871

bb936:                                            ; preds = %bb935
  br label %bb937, !dbg !871

bb937:                                            ; preds = %bb936
  br label %bb938, !dbg !871

bb938:                                            ; preds = %bb937
  br label %bb939, !dbg !871

bb939:                                            ; preds = %bb938
  br label %bb940, !dbg !871

bb940:                                            ; preds = %bb939
  br label %bb941, !dbg !871

bb941:                                            ; preds = %bb940
  br label %bb942, !dbg !871

bb942:                                            ; preds = %bb941
  br label %bb943, !dbg !871

bb943:                                            ; preds = %bb942
  br label %bb944, !dbg !871

bb944:                                            ; preds = %bb943
  br label %bb945, !dbg !871

bb945:                                            ; preds = %bb944
  br label %bb946, !dbg !871

bb946:                                            ; preds = %bb945
  br label %bb947, !dbg !871

bb947:                                            ; preds = %bb946
  br label %bb1248, !dbg !871

bb1248:                                           ; preds = %bb1247, %bb947
  br label %bb1249, !dbg !860

bb169:                                            ; preds = %bb166
  unreachable, !dbg !858

bb168:                                            ; preds = %bb166
  %_286.0 = bitcast %"serde::de::impls::ArrayVisitor<[u8; 32]>"* %self to {}*, !dbg !865
; call serde::de::Error::invalid_length
  %_285 = call noalias nonnull align 8 %"bincode::ErrorKind"* @_ZN5serde2de5Error14invalid_length17h238c3f97e0eec12fE(i64 18, {}* nonnull align 1 %_286.0, [3 x i64]* align 8 dereferenceable(24) bitcast (<{ i8*, [16 x i8], i8*, [0 x i8] }>* @vtable.0 to [3 x i64]*)), !dbg !866
  br label %bb171, !dbg !866

bb170:                                            ; preds = %bb166
  %548 = bitcast { i8, i8 }* %_275 to %"std::option::Option<u8>::Some"*, !dbg !867
  %549 = getelementptr inbounds %"std::option::Option<u8>::Some", %"std::option::Option<u8>::Some"* %548, i32 0, i32 1, !dbg !867
  %val126 = load i8, i8* %549, align 1, !dbg !867
  store i8 %val126, i8* %val.dbg.spill127, align 1, !dbg !867
  call void @llvm.dbg.declare(metadata i8* %val.dbg.spill127, metadata !746, metadata !DIExpression()), !dbg !923
; call serde::de::SeqAccess::next_element
  %550 = call i128 @_ZN5serde2de9SeqAccess12next_element17hab3df56b4dd3231eE({ i64*, i64 }* align 8 dereferenceable(16) %seq), !dbg !856
  store i128 %550, i128* %15, align 8, !dbg !856
  %551 = bitcast %"std::result::Result<std::option::Option<u8>, std::boxed::Box<bincode::ErrorKind>>"* %_291 to i8*, !dbg !856
  %552 = bitcast i128* %15 to i8*, !dbg !856
  call void @llvm.memcpy.p0i8.p0i8.i64(i8* align 8 %551, i8* align 8 %552, i64 16, i1 false), !dbg !856
  br label %bb172, !dbg !856

bb172:                                            ; preds = %bb170
  %553 = bitcast %"std::result::Result<std::option::Option<u8>, std::boxed::Box<bincode::ErrorKind>>"* %_291 to i8*, !dbg !856
  %554 = load i8, i8* %553, align 8, !dbg !856, !range !857
  %555 = trunc i8 %554 to i1, !dbg !856
  %_293 = zext i1 %555 to i64, !dbg !856
  switch i64 %_293, label %bb174 [
    i64 0, label %bb175
    i64 1, label %bb173
  ], !dbg !858

bb174:                                            ; preds = %bb172
  unreachable, !dbg !856

bb175:                                            ; preds = %bb172
  %556 = bitcast %"std::result::Result<std::option::Option<u8>, std::boxed::Box<bincode::ErrorKind>>"* %_291 to %"std::result::Result<std::option::Option<u8>, std::boxed::Box<bincode::ErrorKind>>::Ok"*, !dbg !858
  %557 = getelementptr inbounds %"std::result::Result<std::option::Option<u8>, std::boxed::Box<bincode::ErrorKind>>::Ok", %"std::result::Result<std::option::Option<u8>, std::boxed::Box<bincode::ErrorKind>>::Ok"* %556, i32 0, i32 1, !dbg !858
  %558 = getelementptr inbounds { i8, i8 }, { i8, i8 }* %557, i32 0, i32 0, !dbg !858
  %559 = load i8, i8* %558, align 1, !dbg !858, !range !857
  %val.0130 = trunc i8 %559 to i1, !dbg !858
  %560 = getelementptr inbounds { i8, i8 }, { i8, i8 }* %557, i32 0, i32 1, !dbg !858
  %val.1131 = load i8, i8* %560, align 1, !dbg !858
  %561 = getelementptr inbounds { i8, i8 }, { i8, i8 }* %val.dbg.spill132, i32 0, i32 0, !dbg !858
  %562 = zext i1 %val.0130 to i8, !dbg !858
  store i8 %562, i8* %561, align 1, !dbg !858
  %563 = getelementptr inbounds { i8, i8 }, { i8, i8 }* %val.dbg.spill132, i32 0, i32 1, !dbg !858
  store i8 %val.1131, i8* %563, align 1, !dbg !858
  call void @llvm.dbg.declare(metadata { i8, i8 }* %val.dbg.spill132, metadata !748, metadata !DIExpression()), !dbg !924
  %564 = getelementptr inbounds { i8, i8 }, { i8, i8 }* %_290, i32 0, i32 0, !dbg !924
  %565 = zext i1 %val.0130 to i8, !dbg !924
  store i8 %565, i8* %564, align 1, !dbg !924
  %566 = getelementptr inbounds { i8, i8 }, { i8, i8 }* %_290, i32 0, i32 1, !dbg !924
  store i8 %val.1131, i8* %566, align 1, !dbg !924
  %567 = bitcast { i8, i8 }* %_290 to i8*, !dbg !858
  %568 = load i8, i8* %567, align 1, !dbg !858, !range !857
  %569 = trunc i8 %568 to i1, !dbg !858
  %_298 = zext i1 %569 to i64, !dbg !858
  switch i64 %_298, label %bb178 [
    i64 0, label %bb177
    i64 1, label %bb179
  ], !dbg !860

bb173:                                            ; preds = %bb172
  %570 = bitcast %"std::result::Result<std::option::Option<u8>, std::boxed::Box<bincode::ErrorKind>>"* %_291 to %"std::result::Result<std::option::Option<u8>, std::boxed::Box<bincode::ErrorKind>>::Err"*, !dbg !858
  %571 = getelementptr inbounds %"std::result::Result<std::option::Option<u8>, std::boxed::Box<bincode::ErrorKind>>::Err", %"std::result::Result<std::option::Option<u8>, std::boxed::Box<bincode::ErrorKind>>::Err"* %570, i32 0, i32 1, !dbg !858
  %err128 = load %"bincode::ErrorKind"*, %"bincode::ErrorKind"** %571, align 8, !dbg !858, !nonnull !4
  store %"bincode::ErrorKind"* %err128, %"bincode::ErrorKind"** %err.dbg.spill129, align 8, !dbg !858
  call void @llvm.dbg.declare(metadata %"bincode::ErrorKind"** %err.dbg.spill129, metadata !751, metadata !DIExpression()), !dbg !925
; call <T as core::convert::From<T>>::from
  %_296 = call noalias nonnull align 8 %"bincode::ErrorKind"* @"_ZN50_$LT$T$u20$as$u20$core..convert..From$LT$T$GT$$GT$4from17ha11598da122a93ebE"(%"bincode::ErrorKind"* noalias nonnull align 8 %err128), !dbg !925
  br label %bb176, !dbg !925

bb176:                                            ; preds = %bb173
  %572 = bitcast %"std::result::Result<[u8; 32], std::boxed::Box<bincode::ErrorKind>>"* %0 to %"std::result::Result<[u8; 32], std::boxed::Box<bincode::ErrorKind>>::Err"*, !dbg !925
  %573 = getelementptr inbounds %"std::result::Result<[u8; 32], std::boxed::Box<bincode::ErrorKind>>::Err", %"std::result::Result<[u8; 32], std::boxed::Box<bincode::ErrorKind>>::Err"* %572, i32 0, i32 1, !dbg !925
  store %"bincode::ErrorKind"* %_296, %"bincode::ErrorKind"** %573, align 8, !dbg !925
  %574 = bitcast %"std::result::Result<[u8; 32], std::boxed::Box<bincode::ErrorKind>>"* %0 to i8*, !dbg !925
  store i8 1, i8* %574, align 8, !dbg !925
  br label %bb896, !dbg !871

bb896:                                            ; preds = %bb176
  br label %bb897, !dbg !871

bb897:                                            ; preds = %bb896
  br label %bb898, !dbg !871

bb898:                                            ; preds = %bb897
  br label %bb899, !dbg !871

bb899:                                            ; preds = %bb898
  br label %bb900, !dbg !871

bb900:                                            ; preds = %bb899
  br label %bb901, !dbg !871

bb901:                                            ; preds = %bb900
  br label %bb902, !dbg !871

bb902:                                            ; preds = %bb901
  br label %bb903, !dbg !871

bb903:                                            ; preds = %bb902
  br label %bb904, !dbg !871

bb904:                                            ; preds = %bb903
  br label %bb905, !dbg !871

bb905:                                            ; preds = %bb904
  br label %bb906, !dbg !871

bb906:                                            ; preds = %bb905
  br label %bb907, !dbg !871

bb907:                                            ; preds = %bb906
  br label %bb908, !dbg !871

bb908:                                            ; preds = %bb907
  br label %bb909, !dbg !871

bb909:                                            ; preds = %bb908
  br label %bb910, !dbg !871

bb910:                                            ; preds = %bb909
  br label %bb911, !dbg !871

bb911:                                            ; preds = %bb910
  br label %bb912, !dbg !871

bb912:                                            ; preds = %bb911
  br label %bb913, !dbg !871

bb913:                                            ; preds = %bb912
  br label %bb1246, !dbg !871

bb1246:                                           ; preds = %bb1245, %bb913
  br label %bb1247, !dbg !860

bb178:                                            ; preds = %bb175
  unreachable, !dbg !858

bb177:                                            ; preds = %bb175
  %_301.0 = bitcast %"serde::de::impls::ArrayVisitor<[u8; 32]>"* %self to {}*, !dbg !865
; call serde::de::Error::invalid_length
  %_300 = call noalias nonnull align 8 %"bincode::ErrorKind"* @_ZN5serde2de5Error14invalid_length17h238c3f97e0eec12fE(i64 19, {}* nonnull align 1 %_301.0, [3 x i64]* align 8 dereferenceable(24) bitcast (<{ i8*, [16 x i8], i8*, [0 x i8] }>* @vtable.0 to [3 x i64]*)), !dbg !866
  br label %bb180, !dbg !866

bb179:                                            ; preds = %bb175
  %575 = bitcast { i8, i8 }* %_290 to %"std::option::Option<u8>::Some"*, !dbg !867
  %576 = getelementptr inbounds %"std::option::Option<u8>::Some", %"std::option::Option<u8>::Some"* %575, i32 0, i32 1, !dbg !867
  %val133 = load i8, i8* %576, align 1, !dbg !867
  store i8 %val133, i8* %val.dbg.spill134, align 1, !dbg !867
  call void @llvm.dbg.declare(metadata i8* %val.dbg.spill134, metadata !754, metadata !DIExpression()), !dbg !926
; call serde::de::SeqAccess::next_element
  %577 = call i128 @_ZN5serde2de9SeqAccess12next_element17hab3df56b4dd3231eE({ i64*, i64 }* align 8 dereferenceable(16) %seq), !dbg !856
  store i128 %577, i128* %14, align 8, !dbg !856
  %578 = bitcast %"std::result::Result<std::option::Option<u8>, std::boxed::Box<bincode::ErrorKind>>"* %_306 to i8*, !dbg !856
  %579 = bitcast i128* %14 to i8*, !dbg !856
  call void @llvm.memcpy.p0i8.p0i8.i64(i8* align 8 %578, i8* align 8 %579, i64 16, i1 false), !dbg !856
  br label %bb181, !dbg !856

bb181:                                            ; preds = %bb179
  %580 = bitcast %"std::result::Result<std::option::Option<u8>, std::boxed::Box<bincode::ErrorKind>>"* %_306 to i8*, !dbg !856
  %581 = load i8, i8* %580, align 8, !dbg !856, !range !857
  %582 = trunc i8 %581 to i1, !dbg !856
  %_308 = zext i1 %582 to i64, !dbg !856
  switch i64 %_308, label %bb183 [
    i64 0, label %bb184
    i64 1, label %bb182
  ], !dbg !858

bb183:                                            ; preds = %bb181
  unreachable, !dbg !856

bb184:                                            ; preds = %bb181
  %583 = bitcast %"std::result::Result<std::option::Option<u8>, std::boxed::Box<bincode::ErrorKind>>"* %_306 to %"std::result::Result<std::option::Option<u8>, std::boxed::Box<bincode::ErrorKind>>::Ok"*, !dbg !858
  %584 = getelementptr inbounds %"std::result::Result<std::option::Option<u8>, std::boxed::Box<bincode::ErrorKind>>::Ok", %"std::result::Result<std::option::Option<u8>, std::boxed::Box<bincode::ErrorKind>>::Ok"* %583, i32 0, i32 1, !dbg !858
  %585 = getelementptr inbounds { i8, i8 }, { i8, i8 }* %584, i32 0, i32 0, !dbg !858
  %586 = load i8, i8* %585, align 1, !dbg !858, !range !857
  %val.0137 = trunc i8 %586 to i1, !dbg !858
  %587 = getelementptr inbounds { i8, i8 }, { i8, i8 }* %584, i32 0, i32 1, !dbg !858
  %val.1138 = load i8, i8* %587, align 1, !dbg !858
  %588 = getelementptr inbounds { i8, i8 }, { i8, i8 }* %val.dbg.spill139, i32 0, i32 0, !dbg !858
  %589 = zext i1 %val.0137 to i8, !dbg !858
  store i8 %589, i8* %588, align 1, !dbg !858
  %590 = getelementptr inbounds { i8, i8 }, { i8, i8 }* %val.dbg.spill139, i32 0, i32 1, !dbg !858
  store i8 %val.1138, i8* %590, align 1, !dbg !858
  call void @llvm.dbg.declare(metadata { i8, i8 }* %val.dbg.spill139, metadata !756, metadata !DIExpression()), !dbg !927
  %591 = getelementptr inbounds { i8, i8 }, { i8, i8 }* %_305, i32 0, i32 0, !dbg !927
  %592 = zext i1 %val.0137 to i8, !dbg !927
  store i8 %592, i8* %591, align 1, !dbg !927
  %593 = getelementptr inbounds { i8, i8 }, { i8, i8 }* %_305, i32 0, i32 1, !dbg !927
  store i8 %val.1138, i8* %593, align 1, !dbg !927
  %594 = bitcast { i8, i8 }* %_305 to i8*, !dbg !858
  %595 = load i8, i8* %594, align 1, !dbg !858, !range !857
  %596 = trunc i8 %595 to i1, !dbg !858
  %_313 = zext i1 %596 to i64, !dbg !858
  switch i64 %_313, label %bb187 [
    i64 0, label %bb186
    i64 1, label %bb188
  ], !dbg !860

bb182:                                            ; preds = %bb181
  %597 = bitcast %"std::result::Result<std::option::Option<u8>, std::boxed::Box<bincode::ErrorKind>>"* %_306 to %"std::result::Result<std::option::Option<u8>, std::boxed::Box<bincode::ErrorKind>>::Err"*, !dbg !858
  %598 = getelementptr inbounds %"std::result::Result<std::option::Option<u8>, std::boxed::Box<bincode::ErrorKind>>::Err", %"std::result::Result<std::option::Option<u8>, std::boxed::Box<bincode::ErrorKind>>::Err"* %597, i32 0, i32 1, !dbg !858
  %err135 = load %"bincode::ErrorKind"*, %"bincode::ErrorKind"** %598, align 8, !dbg !858, !nonnull !4
  store %"bincode::ErrorKind"* %err135, %"bincode::ErrorKind"** %err.dbg.spill136, align 8, !dbg !858
  call void @llvm.dbg.declare(metadata %"bincode::ErrorKind"** %err.dbg.spill136, metadata !759, metadata !DIExpression()), !dbg !928
; call <T as core::convert::From<T>>::from
  %_311 = call noalias nonnull align 8 %"bincode::ErrorKind"* @"_ZN50_$LT$T$u20$as$u20$core..convert..From$LT$T$GT$$GT$4from17ha11598da122a93ebE"(%"bincode::ErrorKind"* noalias nonnull align 8 %err135), !dbg !928
  br label %bb185, !dbg !928

bb185:                                            ; preds = %bb182
  %599 = bitcast %"std::result::Result<[u8; 32], std::boxed::Box<bincode::ErrorKind>>"* %0 to %"std::result::Result<[u8; 32], std::boxed::Box<bincode::ErrorKind>>::Err"*, !dbg !928
  %600 = getelementptr inbounds %"std::result::Result<[u8; 32], std::boxed::Box<bincode::ErrorKind>>::Err", %"std::result::Result<[u8; 32], std::boxed::Box<bincode::ErrorKind>>::Err"* %599, i32 0, i32 1, !dbg !928
  store %"bincode::ErrorKind"* %_311, %"bincode::ErrorKind"** %600, align 8, !dbg !928
  %601 = bitcast %"std::result::Result<[u8; 32], std::boxed::Box<bincode::ErrorKind>>"* %0 to i8*, !dbg !928
  store i8 1, i8* %601, align 8, !dbg !928
  br label %bb859, !dbg !871

bb859:                                            ; preds = %bb185
  br label %bb860, !dbg !871

bb860:                                            ; preds = %bb859
  br label %bb861, !dbg !871

bb861:                                            ; preds = %bb860
  br label %bb862, !dbg !871

bb862:                                            ; preds = %bb861
  br label %bb863, !dbg !871

bb863:                                            ; preds = %bb862
  br label %bb864, !dbg !871

bb864:                                            ; preds = %bb863
  br label %bb865, !dbg !871

bb865:                                            ; preds = %bb864
  br label %bb866, !dbg !871

bb866:                                            ; preds = %bb865
  br label %bb867, !dbg !871

bb867:                                            ; preds = %bb866
  br label %bb868, !dbg !871

bb868:                                            ; preds = %bb867
  br label %bb869, !dbg !871

bb869:                                            ; preds = %bb868
  br label %bb870, !dbg !871

bb870:                                            ; preds = %bb869
  br label %bb871, !dbg !871

bb871:                                            ; preds = %bb870
  br label %bb872, !dbg !871

bb872:                                            ; preds = %bb871
  br label %bb873, !dbg !871

bb873:                                            ; preds = %bb872
  br label %bb874, !dbg !871

bb874:                                            ; preds = %bb873
  br label %bb875, !dbg !871

bb875:                                            ; preds = %bb874
  br label %bb876, !dbg !871

bb876:                                            ; preds = %bb875
  br label %bb877, !dbg !871

bb877:                                            ; preds = %bb876
  br label %bb1244, !dbg !871

bb1244:                                           ; preds = %bb1243, %bb877
  br label %bb1245, !dbg !860

bb187:                                            ; preds = %bb184
  unreachable, !dbg !858

bb186:                                            ; preds = %bb184
  %_316.0 = bitcast %"serde::de::impls::ArrayVisitor<[u8; 32]>"* %self to {}*, !dbg !865
; call serde::de::Error::invalid_length
  %_315 = call noalias nonnull align 8 %"bincode::ErrorKind"* @_ZN5serde2de5Error14invalid_length17h238c3f97e0eec12fE(i64 20, {}* nonnull align 1 %_316.0, [3 x i64]* align 8 dereferenceable(24) bitcast (<{ i8*, [16 x i8], i8*, [0 x i8] }>* @vtable.0 to [3 x i64]*)), !dbg !866
  br label %bb189, !dbg !866

bb188:                                            ; preds = %bb184
  %602 = bitcast { i8, i8 }* %_305 to %"std::option::Option<u8>::Some"*, !dbg !867
  %603 = getelementptr inbounds %"std::option::Option<u8>::Some", %"std::option::Option<u8>::Some"* %602, i32 0, i32 1, !dbg !867
  %val140 = load i8, i8* %603, align 1, !dbg !867
  store i8 %val140, i8* %val.dbg.spill141, align 1, !dbg !867
  call void @llvm.dbg.declare(metadata i8* %val.dbg.spill141, metadata !762, metadata !DIExpression()), !dbg !929
; call serde::de::SeqAccess::next_element
  %604 = call i128 @_ZN5serde2de9SeqAccess12next_element17hab3df56b4dd3231eE({ i64*, i64 }* align 8 dereferenceable(16) %seq), !dbg !856
  store i128 %604, i128* %13, align 8, !dbg !856
  %605 = bitcast %"std::result::Result<std::option::Option<u8>, std::boxed::Box<bincode::ErrorKind>>"* %_321 to i8*, !dbg !856
  %606 = bitcast i128* %13 to i8*, !dbg !856
  call void @llvm.memcpy.p0i8.p0i8.i64(i8* align 8 %605, i8* align 8 %606, i64 16, i1 false), !dbg !856
  br label %bb190, !dbg !856

bb190:                                            ; preds = %bb188
  %607 = bitcast %"std::result::Result<std::option::Option<u8>, std::boxed::Box<bincode::ErrorKind>>"* %_321 to i8*, !dbg !856
  %608 = load i8, i8* %607, align 8, !dbg !856, !range !857
  %609 = trunc i8 %608 to i1, !dbg !856
  %_323 = zext i1 %609 to i64, !dbg !856
  switch i64 %_323, label %bb192 [
    i64 0, label %bb193
    i64 1, label %bb191
  ], !dbg !858

bb192:                                            ; preds = %bb190
  unreachable, !dbg !856

bb193:                                            ; preds = %bb190
  %610 = bitcast %"std::result::Result<std::option::Option<u8>, std::boxed::Box<bincode::ErrorKind>>"* %_321 to %"std::result::Result<std::option::Option<u8>, std::boxed::Box<bincode::ErrorKind>>::Ok"*, !dbg !858
  %611 = getelementptr inbounds %"std::result::Result<std::option::Option<u8>, std::boxed::Box<bincode::ErrorKind>>::Ok", %"std::result::Result<std::option::Option<u8>, std::boxed::Box<bincode::ErrorKind>>::Ok"* %610, i32 0, i32 1, !dbg !858
  %612 = getelementptr inbounds { i8, i8 }, { i8, i8 }* %611, i32 0, i32 0, !dbg !858
  %613 = load i8, i8* %612, align 1, !dbg !858, !range !857
  %val.0144 = trunc i8 %613 to i1, !dbg !858
  %614 = getelementptr inbounds { i8, i8 }, { i8, i8 }* %611, i32 0, i32 1, !dbg !858
  %val.1145 = load i8, i8* %614, align 1, !dbg !858
  %615 = getelementptr inbounds { i8, i8 }, { i8, i8 }* %val.dbg.spill146, i32 0, i32 0, !dbg !858
  %616 = zext i1 %val.0144 to i8, !dbg !858
  store i8 %616, i8* %615, align 1, !dbg !858
  %617 = getelementptr inbounds { i8, i8 }, { i8, i8 }* %val.dbg.spill146, i32 0, i32 1, !dbg !858
