; ModuleID = 'log.1a464f19-cgu.0'
source_filename = "log.1a464f19-cgu.0"
target datalayout = "e-m:e-p:64:64-i64:64-n32:64-S128"
target triple = "bpfel"

%"[closure@/root/.cargo/registry/src/github.com-1ecc6299db9ec823/log-0.4.14/src/lib.rs:520:22: 520:59]" = type {}
%"core::iter::Zip<core::str::Bytes, core::str::Bytes>" = type { { i8*, i8* }, { i8*, i8* }, i64, i64, i64 }
%"core::option::Option<(u8, u8)>" = type { i8, [2 x i8] }
%"core::ops::ControlFlow<(), core::convert::Infallible>::Break" = type { {} }
%"core::ops::ControlFlow<()>::Break" = type { [1 x i8], {} }
%"core::ops::ControlFlow<usize>::Break" = type { [1 x i64], i64 }
%"[closure@/root/.cargo/registry/src/github.com-1ecc6299db9ec823/log-0.4.14/src/lib.rs:519:25: 519:40]" = type {}
%"core::option::Option<(u8, u8)>::Some" = type { [1 x i8], { i8, i8 } }
%"core::fmt::Formatter" = type { { i64, i64 }, { i64, i64 }, { {}*, [3 x i64]* }, i32, i32, i8, [7 x i8] }
%"core::fmt::Arguments" = type { { [0 x { [0 x i8]*, i64 }]*, i64 }, { i64*, i64 }, { [0 x { i8*, i64* }]*, i64 } }
%Record = type { %Metadata, %"core::fmt::Arguments", %"core::option::Option<MaybeStaticStr>", %"core::option::Option<MaybeStaticStr>", { i32, i32 } }
%Metadata = type { i64, { [0 x i8]*, i64 } }
%"core::option::Option<MaybeStaticStr>" = type { i64, [2 x i64] }
%MaybeStaticStr = type { i64, [2 x i64] }
%"core::fmt::Opaque" = type {}
%"core::panic::Location" = type { { [0 x i8]*, i64 }, i32, i32 }
%"core::option::Option<usize>::Some" = type { [1 x i64], i64 }
%NopLogger = type {}
%"[closure@/root/.cargo/registry/src/github.com-1ecc6299db9ec823/log-0.4.14/src/lib.rs:505:18: 505:73]" = type {}
%"[closure@core::iter::Iterator::all::check<(u8, u8), [closure@/root/.cargo/registry/src/github.com-1ecc6299db9ec823/log-0.4.14/src/lib.rs:505:18: 505:73]>::{closure#0}]" = type { %"[closure@/root/.cargo/registry/src/github.com-1ecc6299db9ec823/log-0.4.14/src/lib.rs:505:18: 505:73]" }
%"core::ops::ControlFlow<core::ops::ControlFlow<usize, core::convert::Infallible>>::Break" = type { [1 x i64], i64 }
%"core::sync::atomic::AtomicUsize" = type { i64 }
%"core::result::Result<usize, usize>::Err" = type { [1 x i64], i64 }
%"core::result::Result<usize, usize>::Ok" = type { [1 x i64], i64 }
%"core::option::Option<MaybeStaticStr>::Some" = type { %MaybeStaticStr }
%"[closure@/root/.cargo/registry/src/github.com-1ecc6299db9ec823/log-0.4.14/src/lib.rs:681:22: 681:61]" = type {}
%"core::fmt::DebugTuple" = type { %"core::fmt::Formatter"*, i64, i8, i8, [6 x i8] }
%"core::option::Option<u32>::Some" = type { [1 x i32], i32 }
%"core::ops::ControlFlow<()>::Continue" = type { [1 x i8], {} }
%"core::ops::ControlFlow<usize>::Continue" = type { [8 x i8], {} }
%"core::ops::ControlFlow<core::ops::ControlFlow<usize, core::convert::Infallible>>::Continue" = type { [8 x i8], {} }
%"core::ops::ControlFlow<core::ops::ControlFlow<(), core::convert::Infallible>>::Continue" = type { [1 x i8], {} }
%"core::ops::ControlFlow<core::ops::ControlFlow<(), core::convert::Infallible>>::Break" = type { [1 x i8], %"core::ops::ControlFlow<(), core::convert::Infallible>::Break" }
%ParseLevelError = type { {} }
%"core::result::Result<Level, ParseLevelError>::Err" = type { %ParseLevelError }
%"core::result::Result<LevelFilter, ParseLevelError>::Err" = type { %ParseLevelError }
%RecordBuilder = type { %Record }
%MetadataBuilder = type { %Metadata }
%SetLoggerError = type { {} }
%"MaybeStaticStr::Static" = type { [1 x i64], { [0 x i8]*, i64 } }
%"MaybeStaticStr::Borrowed" = type { [1 x i64], { [0 x i8]*, i64 } }
%"core::fmt::DebugStruct" = type { %"core::fmt::Formatter"*, i8, i8, [6 x i8] }

@alloc341 = private unnamed_addr constant <{ [2 x i8] }> <{ [2 x i8] c"()" }>, align 1
@alloc342 = private unnamed_addr constant <{ [12 x i8] }> <{ [12 x i8] c"invalid args" }>, align 1
@alloc343 = private unnamed_addr constant <{ [74 x i8] }> <{ [74 x i8] c"/home/runner/work/bpf-tools/bpf-tools/out/rust/library/core/src/fmt/mod.rs" }>, align 1
@alloc344 = private unnamed_addr constant <{ i8*, [16 x i8] }> <{ i8* getelementptr inbounds (<{ [74 x i8] }>, <{ [74 x i8] }>* @alloc343, i32 0, i32 0, i32 0), [16 x i8] c"J\00\00\00\00\00\00\00c\01\00\00\0D\00\00\00" }>, align 8
@alloc345 = private unnamed_addr constant <{ [74 x i8] }> <{ [74 x i8] c"/home/runner/work/bpf-tools/bpf-tools/out/rust/library/core/src/ptr/mod.rs" }>, align 1
@alloc346 = private unnamed_addr constant <{ i8*, [16 x i8] }> <{ i8* getelementptr inbounds (<{ [74 x i8] }>, <{ [74 x i8] }>* @alloc345, i32 0, i32 0, i32 0), [16 x i8] c"J\00\00\00\00\00\00\00\BC\02\00\00\0D\00\00\00" }>, align 8
@alloc210 = private unnamed_addr constant <{ [1 x i8] }> zeroinitializer, align 1
@0 = private unnamed_addr constant <{ [16 x i8] }> zeroinitializer, align 8
@alloc348 = private unnamed_addr constant <{ [43 x i8] }> <{ [43 x i8] c"called `Option::unwrap()` on a `None` value" }>, align 1
@alloc354 = private unnamed_addr constant <{ [4 x i8] }> <{ [4 x i8] c"Some" }>, align 1
@vtable.0 = private unnamed_addr constant <{ i8*, [16 x i8], i8*, [0 x i8] }> <{ i8* bitcast (void (%MaybeStaticStr**)* @"_ZN4core3ptr44drop_in_place$LT$$RF$log..MaybeStaticStr$GT$17h9b8e61e8517d26a7E" to i8*), [16 x i8] c"\08\00\00\00\00\00\00\00\08\00\00\00\00\00\00\00", i8* bitcast (i1 (%MaybeStaticStr**, %"core::fmt::Formatter"*)* @"_ZN42_$LT$$RF$T$u20$as$u20$core..fmt..Debug$GT$3fmt17heae98c2e417361b1E" to i8*), [0 x i8] zeroinitializer }>, align 8, !dbg !0
@alloc358 = private unnamed_addr constant <{ [4 x i8] }> <{ [4 x i8] c"None" }>, align 1
@vtable.1 = private unnamed_addr constant <{ i8*, [16 x i8], i8*, [0 x i8] }> <{ i8* bitcast (void (i32**)* @"_ZN4core3ptr28drop_in_place$LT$$RF$u32$GT$17h77ba1b6a43bb00f0E" to i8*), [16 x i8] c"\08\00\00\00\00\00\00\00\08\00\00\00\00\00\00\00", i8* bitcast (i1 (i32**, %"core::fmt::Formatter"*)* @"_ZN42_$LT$$RF$T$u20$as$u20$core..fmt..Debug$GT$3fmt17h8fe11fd4830791e1E" to i8*), [0 x i8] zeroinitializer }>, align 8, !dbg !28
@alloc359 = private unnamed_addr constant <{ [77 x i8] }> <{ [77 x i8] c"/home/runner/work/bpf-tools/bpf-tools/out/rust/library/core/src/slice/iter.rs" }>, align 1
@alloc360 = private unnamed_addr constant <{ i8*, [16 x i8] }> <{ i8* getelementptr inbounds (<{ [77 x i8] }>, <{ [77 x i8] }>* @alloc359, i32 0, i32 0, i32 0), [16 x i8] c"M\00\00\00\00\00\00\00\85\00\00\00\01\00\00\00" }>, align 8
@str.2 = internal constant [28 x i8] c"attempt to add with overflow"
@alloc371 = private unnamed_addr constant <{ [0 x i8] }> zeroinitializer, align 8
@alloc19 = private unnamed_addr constant <{ i8*, [16 x i8] }> <{ i8* bitcast (void (%NopLogger*)* @"_ZN4core3ptr35drop_in_place$LT$log..NopLogger$GT$17h4fbe04658748a5c8E" to i8*), [16 x i8] c"\00\00\00\00\00\00\00\00\01\00\00\00\00\00\00\00" }>, align 8
@alloc23 = private unnamed_addr constant <{ i8*, [16 x i8], i8*, i8*, i8*, i8*, [0 x i8] }> <{ i8* bitcast (void (%NopLogger*)* @"_ZN4core3ptr35drop_in_place$LT$log..NopLogger$GT$17h4fbe04658748a5c8E" to i8*), [16 x i8] c"\00\00\00\00\00\00\00\00\01\00\00\00\00\00\00\00", i8* bitcast (<{ i8*, [16 x i8] }>* @alloc19 to i8*), i8* bitcast (i1 (%NopLogger*, %Metadata*)* @"_ZN43_$LT$log..NopLogger$u20$as$u20$log..Log$GT$7enabled17h85b029e693b09d4aE" to i8*), i8* bitcast (void (%NopLogger*, %Record*)* @"_ZN43_$LT$log..NopLogger$u20$as$u20$log..Log$GT$3log17he4c395f1ee99a8c7E" to i8*), i8* bitcast (void (%NopLogger*)* @"_ZN43_$LT$log..NopLogger$u20$as$u20$log..Log$GT$5flush17hf766565b41a5338aE" to i8*), [0 x i8] zeroinitializer }>, align 8, !dbg !33
@_ZN3log6LOGGER17hcdd6fd57149ef04aE = internal global <{ i8*, i8*, [0 x i8] }> <{ i8* getelementptr inbounds (<{ [0 x i8] }>, <{ [0 x i8] }>* @alloc371, i32 0, i32 0, i32 0), i8* bitcast (<{ i8*, [16 x i8], i8*, i8*, i8*, i8*, [0 x i8] }>* @alloc23 to i8*), [0 x i8] zeroinitializer }>, align 8, !dbg !37
@_ZN3log5STATE17h2c5154e7fdf4ef83E = internal global <{ [8 x i8] }> zeroinitializer, align 8, !dbg !49
@_ZN3log20MAX_LOG_LEVEL_FILTER17h1b09946e0517ea47E = global <{ [8 x i8] }> zeroinitializer, align 8, !dbg !63
@alloc34 = private unnamed_addr constant <{ [3 x i8] }> <{ [3 x i8] c"OFF" }>, align 1
@alloc36 = private unnamed_addr constant <{ [5 x i8] }> <{ [5 x i8] c"ERROR" }>, align 1
@alloc37 = private unnamed_addr constant <{ [4 x i8] }> <{ [4 x i8] c"WARN" }>, align 1
@alloc38 = private unnamed_addr constant <{ [4 x i8] }> <{ [4 x i8] c"INFO" }>, align 1
@alloc39 = private unnamed_addr constant <{ [5 x i8] }> <{ [5 x i8] c"DEBUG" }>, align 1
@alloc40 = private unnamed_addr constant <{ [5 x i8] }> <{ [5 x i8] c"TRACE" }>, align 1
@_ZN3log15LOG_LEVEL_NAMES17he1e7ba16fbd078a4E = internal constant <{ i8*, [8 x i8], i8*, [8 x i8], i8*, [8 x i8], i8*, [8 x i8], i8*, [8 x i8], i8*, [8 x i8] }> <{ i8* getelementptr inbounds (<{ [3 x i8] }>, <{ [3 x i8] }>* @alloc34, i32 0, i32 0, i32 0), [8 x i8] c"\03\00\00\00\00\00\00\00", i8* getelementptr inbounds (<{ [5 x i8] }>, <{ [5 x i8] }>* @alloc36, i32 0, i32 0, i32 0), [8 x i8] c"\05\00\00\00\00\00\00\00", i8* getelementptr inbounds (<{ [4 x i8] }>, <{ [4 x i8] }>* @alloc37, i32 0, i32 0, i32 0), [8 x i8] c"\04\00\00\00\00\00\00\00", i8* getelementptr inbounds (<{ [4 x i8] }>, <{ [4 x i8] }>* @alloc38, i32 0, i32 0, i32 0), [8 x i8] c"\04\00\00\00\00\00\00\00", i8* getelementptr inbounds (<{ [5 x i8] }>, <{ [5 x i8] }>* @alloc39, i32 0, i32 0, i32 0), [8 x i8] c"\05\00\00\00\00\00\00\00", i8* getelementptr inbounds (<{ [5 x i8] }>, <{ [5 x i8] }>* @alloc40, i32 0, i32 0, i32 0), [8 x i8] c"\05\00\00\00\00\00\00\00" }>, align 8, !dbg !65
@alloc42 = private unnamed_addr constant <{ [74 x i8] }> <{ [74 x i8] c"attempted to set a logger after the logging system was already initialized" }>, align 1
@_ZN3log16SET_LOGGER_ERROR17heb8568937938656bE = internal constant <{ i8*, [8 x i8] }> <{ i8* getelementptr inbounds (<{ [74 x i8] }>, <{ [74 x i8] }>* @alloc42, i32 0, i32 0, i32 0), [8 x i8] c"J\00\00\00\00\00\00\00" }>, align 8, !dbg !70
@alloc44 = private unnamed_addr constant <{ [70 x i8] }> <{ [70 x i8] c"attempted to convert a string that doesn't match an existing log level" }>, align 1
@_ZN3log17LEVEL_PARSE_ERROR17h7f5cf944b52c13caE = internal constant <{ i8*, [8 x i8] }> <{ i8* getelementptr inbounds (<{ [70 x i8] }>, <{ [70 x i8] }>* @alloc44, i32 0, i32 0, i32 0), [8 x i8] c"F\00\00\00\00\00\00\00" }>, align 8, !dbg !72
@alloc372 = private unnamed_addr constant <{ [75 x i8] }> <{ [75 x i8] c"/root/.cargo/registry/src/github.com-1ecc6299db9ec823/log-0.4.14/src/lib.rs" }>, align 1
@alloc362 = private unnamed_addr constant <{ i8*, [16 x i8] }> <{ i8* getelementptr inbounds (<{ [75 x i8] }>, <{ [75 x i8] }>* @alloc372, i32 0, i32 0, i32 0), [16 x i8] c"K\00\00\00\00\00\00\00\F0\01\00\00\0D\00\00\00" }>, align 8
@str.3 = internal constant [33 x i8] c"attempt to subtract with overflow"
@alloc364 = private unnamed_addr constant <{ i8*, [16 x i8] }> <{ i8* getelementptr inbounds (<{ [75 x i8] }>, <{ [75 x i8] }>* @alloc372, i32 0, i32 0, i32 0), [16 x i8] c"K\00\00\00\00\00\00\00\08\02\00\003\00\00\00" }>, align 8
@alloc366 = private unnamed_addr constant <{ i8*, [16 x i8] }> <{ i8* getelementptr inbounds (<{ [75 x i8] }>, <{ [75 x i8] }>* @alloc372, i32 0, i32 0, i32 0), [16 x i8] c"K\00\00\00\00\00\00\001\02\00\00\09\00\00\00" }>, align 8
@alloc368 = private unnamed_addr constant <{ i8*, [16 x i8] }> <{ i8* getelementptr inbounds (<{ [75 x i8] }>, <{ [75 x i8] }>* @alloc372, i32 0, i32 0, i32 0), [16 x i8] c"K\00\00\00\00\00\00\00\A9\02\00\005\00\00\00" }>, align 8
@alloc370 = private unnamed_addr constant <{ i8*, [16 x i8] }> <{ i8* getelementptr inbounds (<{ [75 x i8] }>, <{ [75 x i8] }>* @alloc372, i32 0, i32 0, i32 0), [16 x i8] c"K\00\00\00\00\00\00\00\D3\02\00\00\09\00\00\00" }>, align 8
@alloc257 = private unnamed_addr constant <{ [68 x i8] }> <{ [68 x i8] c"set_logger_racy must not be used with other initialization functions" }>, align 1
@alloc258 = private unnamed_addr constant <{ i8*, [8 x i8] }> <{ i8* getelementptr inbounds (<{ [68 x i8] }>, <{ [68 x i8] }>* @alloc257, i32 0, i32 0, i32 0), [8 x i8] c"D\00\00\00\00\00\00\00" }>, align 8
@alloc262 = private unnamed_addr constant <{ [42 x i8] }> <{ [42 x i8] c"internal error: entered unreachable code: " }>, align 1
@alloc263 = private unnamed_addr constant <{ i8*, [8 x i8] }> <{ i8* getelementptr inbounds (<{ [42 x i8] }>, <{ [42 x i8] }>* @alloc262, i32 0, i32 0, i32 0), [8 x i8] c"*\00\00\00\00\00\00\00" }>, align 8
@alloc373 = private unnamed_addr constant <{ i8*, [16 x i8] }> <{ i8* getelementptr inbounds (<{ [75 x i8] }>, <{ [75 x i8] }>* @alloc372, i32 0, i32 0, i32 0), [16 x i8] c"K\00\00\00\00\00\00\00y\05\00\00\0D\00\00\00" }>, align 8
@_ZN3log6logger3NOP17hfbba184d18e6a102E = internal constant <{ [0 x i8] }> zeroinitializer, align 1, !dbg !74
@alloc379 = private unnamed_addr constant <{ [5 x i8] }> <{ [5 x i8] c"Trace" }>, align 1
@alloc380 = private unnamed_addr constant <{ [5 x i8] }> <{ [5 x i8] c"Debug" }>, align 1
@alloc381 = private unnamed_addr constant <{ [4 x i8] }> <{ [4 x i8] c"Info" }>, align 1
@alloc382 = private unnamed_addr constant <{ [4 x i8] }> <{ [4 x i8] c"Warn" }>, align 1
@alloc383 = private unnamed_addr constant <{ [5 x i8] }> <{ [5 x i8] c"Error" }>, align 1
@alloc384 = private unnamed_addr constant <{ [3 x i8] }> <{ [3 x i8] c"Off" }>, align 1
@alloc385 = private unnamed_addr constant <{ [8 x i8] }> <{ [8 x i8] c"Borrowed" }>, align 1
@vtable.4 = private unnamed_addr constant <{ i8*, [16 x i8], i8*, [0 x i8] }> <{ i8* bitcast (void ({ [0 x i8]*, i64 }**)* @"_ZN4core3ptr32drop_in_place$LT$$RF$$RF$str$GT$17h5ce3faff736c18baE" to i8*), [16 x i8] c"\08\00\00\00\00\00\00\00\08\00\00\00\00\00\00\00", i8* bitcast (i1 ({ [0 x i8]*, i64 }**, %"core::fmt::Formatter"*)* @"_ZN42_$LT$$RF$T$u20$as$u20$core..fmt..Debug$GT$3fmt17h2cde61016b58391eE" to i8*), [0 x i8] zeroinitializer }>, align 8, !dbg !77
@alloc389 = private unnamed_addr constant <{ [6 x i8] }> <{ [6 x i8] c"Static" }>, align 1
@alloc390 = private unnamed_addr constant <{ [6 x i8] }> <{ [6 x i8] c"Record" }>, align 1
@alloc420 = private unnamed_addr constant <{ [8 x i8] }> <{ [8 x i8] c"metadata" }>, align 1
@vtable.5 = private unnamed_addr constant <{ i8*, [16 x i8], i8*, [0 x i8] }> <{ i8* bitcast (void (%Metadata**)* @"_ZN4core3ptr38drop_in_place$LT$$RF$log..Metadata$GT$17hbd5115a913fcd6f9E" to i8*), [16 x i8] c"\08\00\00\00\00\00\00\00\08\00\00\00\00\00\00\00", i8* bitcast (i1 (%Metadata**, %"core::fmt::Formatter"*)* @"_ZN42_$LT$$RF$T$u20$as$u20$core..fmt..Debug$GT$3fmt17hf947b902d58b23c1E" to i8*), [0 x i8] zeroinitializer }>, align 8, !dbg !81
@alloc395 = private unnamed_addr constant <{ [4 x i8] }> <{ [4 x i8] c"args" }>, align 1
@vtable.6 = private unnamed_addr constant <{ i8*, [16 x i8], i8*, [0 x i8] }> <{ i8* bitcast (void (%"core::fmt::Arguments"**)* @"_ZN4core3ptr45drop_in_place$LT$$RF$core..fmt..Arguments$GT$17ha9463481404d24d6E" to i8*), [16 x i8] c"\08\00\00\00\00\00\00\00\08\00\00\00\00\00\00\00", i8* bitcast (i1 (%"core::fmt::Arguments"**, %"core::fmt::Formatter"*)* @"_ZN42_$LT$$RF$T$u20$as$u20$core..fmt..Debug$GT$3fmt17h28f98548e9f8a3bdE" to i8*), [0 x i8] zeroinitializer }>, align 8, !dbg !96
@alloc399 = private unnamed_addr constant <{ [11 x i8] }> <{ [11 x i8] c"module_path" }>, align 1
@vtable.7 = private unnamed_addr constant <{ i8*, [16 x i8], i8*, [0 x i8] }> <{ i8* bitcast (void (%"core::option::Option<MaybeStaticStr>"**)* @"_ZN4core3ptr72drop_in_place$LT$$RF$core..option..Option$LT$log..MaybeStaticStr$GT$$GT$17h2dd425414bf12ef2E" to i8*), [16 x i8] c"\08\00\00\00\00\00\00\00\08\00\00\00\00\00\00\00", i8* bitcast (i1 (%"core::option::Option<MaybeStaticStr>"**, %"core::fmt::Formatter"*)* @"_ZN42_$LT$$RF$T$u20$as$u20$core..fmt..Debug$GT$3fmt17he7a8689416b208c3E" to i8*), [0 x i8] zeroinitializer }>, align 8, !dbg !207
@alloc403 = private unnamed_addr constant <{ [4 x i8] }> <{ [4 x i8] c"file" }>, align 1
@alloc404 = private unnamed_addr constant <{ [4 x i8] }> <{ [4 x i8] c"line" }>, align 1
@vtable.8 = private unnamed_addr constant <{ i8*, [16 x i8], i8*, [0 x i8] }> <{ i8* bitcast (void ({ i32, i32 }**)* @"_ZN4core3ptr56drop_in_place$LT$$RF$core..option..Option$LT$u32$GT$$GT$17hf2c316eacd23bfdeE" to i8*), [16 x i8] c"\08\00\00\00\00\00\00\00\08\00\00\00\00\00\00\00", i8* bitcast (i1 ({ i32, i32 }**, %"core::fmt::Formatter"*)* @"_ZN42_$LT$$RF$T$u20$as$u20$core..fmt..Debug$GT$3fmt17h61c2d4c9107b80d5E" to i8*), [0 x i8] zeroinitializer }>, align 8, !dbg !223
@alloc408 = private unnamed_addr constant <{ [13 x i8] }> <{ [13 x i8] c"RecordBuilder" }>, align 1
@alloc409 = private unnamed_addr constant <{ [6 x i8] }> <{ [6 x i8] c"record" }>, align 1
@vtable.9 = private unnamed_addr constant <{ i8*, [16 x i8], i8*, [0 x i8] }> <{ i8* bitcast (void (%Record**)* @"_ZN4core3ptr36drop_in_place$LT$$RF$log..Record$GT$17h41c3cd38ee414bb3E" to i8*), [16 x i8] c"\08\00\00\00\00\00\00\00\08\00\00\00\00\00\00\00", i8* bitcast (i1 (%Record**, %"core::fmt::Formatter"*)* @"_ZN42_$LT$$RF$T$u20$as$u20$core..fmt..Debug$GT$3fmt17h70538fb47fa01e03E" to i8*), [0 x i8] zeroinitializer }>, align 8, !dbg !240
@alloc413 = private unnamed_addr constant <{ [8 x i8] }> <{ [8 x i8] c"Metadata" }>, align 1
@alloc414 = private unnamed_addr constant <{ [5 x i8] }> <{ [5 x i8] c"level" }>, align 1
@vtable.a = private unnamed_addr constant <{ i8*, [16 x i8], i8*, [0 x i8] }> <{ i8* bitcast (void (i64**)* @"_ZN4core3ptr35drop_in_place$LT$$RF$log..Level$GT$17haf6b142852490c0aE" to i8*), [16 x i8] c"\08\00\00\00\00\00\00\00\08\00\00\00\00\00\00\00", i8* bitcast (i1 (i64**, %"core::fmt::Formatter"*)* @"_ZN42_$LT$$RF$T$u20$as$u20$core..fmt..Debug$GT$3fmt17h182190f511ef9c92E" to i8*), [0 x i8] zeroinitializer }>, align 8, !dbg !251
@alloc418 = private unnamed_addr constant <{ [6 x i8] }> <{ [6 x i8] c"target" }>, align 1
@alloc419 = private unnamed_addr constant <{ [15 x i8] }> <{ [15 x i8] c"MetadataBuilder" }>, align 1
@alloc421 = private unnamed_addr constant <{ [14 x i8] }> <{ [14 x i8] c"SetLoggerError" }>, align 1
@vtable.b = private unnamed_addr constant <{ i8*, [16 x i8], i8*, [0 x i8] }> <{ i8* bitcast (void ({}**)* @"_ZN4core3ptr33drop_in_place$LT$$RF$$LP$$RP$$GT$17hb861f9cb69992e39E" to i8*), [16 x i8] c"\08\00\00\00\00\00\00\00\08\00\00\00\00\00\00\00", i8* bitcast (i1 ({}**, %"core::fmt::Formatter"*)* @"_ZN42_$LT$$RF$T$u20$as$u20$core..fmt..Debug$GT$3fmt17h45cfb958856eea58E" to i8*), [0 x i8] zeroinitializer }>, align 8, !dbg !255
@alloc425 = private unnamed_addr constant <{ [15 x i8] }> <{ [15 x i8] c"ParseLevelError" }>, align 1

; <core::iter::adapters::map::Map<I,F> as core::iter::traits::iterator::Iterator>::next
; Function Attrs: inlinehint nounwind
define i64 @"_ZN102_$LT$core..iter..adapters..map..Map$LT$I$C$F$GT$$u20$as$u20$core..iter..traits..iterator..Iterator$GT$4next17hffedd18d2a4f97e9E"({ i64, i64 }* align 8 dereferenceable(16) %self) unnamed_addr #0 !dbg !289 {
start:
  %self.dbg.spill = alloca { i64, i64 }*, align 8
  store { i64, i64 }* %self, { i64, i64 }** %self.dbg.spill, align 8
  call void @llvm.dbg.declare(metadata { i64, i64 }** %self.dbg.spill, metadata !338, metadata !DIExpression()), !dbg !341
; call <core::iter::adapters::filter::Filter<I,P> as core::iter::traits::iterator::Iterator>::next
  %0 = call { i64, i64 } @"_ZN108_$LT$core..iter..adapters..filter..Filter$LT$I$C$P$GT$$u20$as$u20$core..iter..traits..iterator..Iterator$GT$4next17he32e98bbabf5d438E"({ i64, i64 }* align 8 dereferenceable(16) %self), !dbg !342
  %_2.0 = extractvalue { i64, i64 } %0, 0, !dbg !342
  %_2.1 = extractvalue { i64, i64 } %0, 1, !dbg !342
  br label %bb1, !dbg !342

bb1:                                              ; preds = %start
  %_4 = bitcast { i64, i64 }* %self to %"[closure@/root/.cargo/registry/src/github.com-1ecc6299db9ec823/log-0.4.14/src/lib.rs:520:22: 520:59]"*, !dbg !343
; call core::option::Option<T>::map
  %1 = call i64 @"_ZN4core6option15Option$LT$T$GT$3map17hf0a9317ad200a8ceE"(i64 %_2.0, i64 %_2.1, %"[closure@/root/.cargo/registry/src/github.com-1ecc6299db9ec823/log-0.4.14/src/lib.rs:520:22: 520:59]"* nonnull align 1 %_4), !dbg !342, !range !344
  br label %bb2, !dbg !342

bb2:                                              ; preds = %bb1
  ret i64 %1, !dbg !345
}

; <core::iter::adapters::zip::Zip<A,B> as core::iter::traits::iterator::Iterator>::next
; Function Attrs: inlinehint nounwind
define i24 @"_ZN102_$LT$core..iter..adapters..zip..Zip$LT$A$C$B$GT$$u20$as$u20$core..iter..traits..iterator..Iterator$GT$4next17hf1372be93e740425E"(%"core::iter::Zip<core::str::Bytes, core::str::Bytes>"* align 8 dereferenceable(56) %self) unnamed_addr #0 !dbg !346 {
start:
  %0 = alloca i24, align 4
  %self.dbg.spill = alloca %"core::iter::Zip<core::str::Bytes, core::str::Bytes>"*, align 8
  %1 = alloca %"core::option::Option<(u8, u8)>", align 1
  store %"core::iter::Zip<core::str::Bytes, core::str::Bytes>"* %self, %"core::iter::Zip<core::str::Bytes, core::str::Bytes>"** %self.dbg.spill, align 8
  call void @llvm.dbg.declare(metadata %"core::iter::Zip<core::str::Bytes, core::str::Bytes>"** %self.dbg.spill, metadata !411, metadata !DIExpression()), !dbg !412
; call <core::iter::adapters::zip::Zip<A,B> as core::iter::adapters::zip::ZipImpl<A,B>>::next
  %2 = call i24 @"_ZN111_$LT$core..iter..adapters..zip..Zip$LT$A$C$B$GT$$u20$as$u20$core..iter..adapters..zip..ZipImpl$LT$A$C$B$GT$$GT$4next17h4ec8597ec9b4d049E"(%"core::iter::Zip<core::str::Bytes, core::str::Bytes>"* align 8 dereferenceable(56) %self), !dbg !413
  store i24 %2, i24* %0, align 4, !dbg !413
  %3 = bitcast %"core::option::Option<(u8, u8)>"* %1 to i8*, !dbg !413
  %4 = bitcast i24* %0 to i8*, !dbg !413
  call void @llvm.memcpy.p0i8.p0i8.i64(i8* align 1 %3, i8* align 4 %4, i64 3, i1 false), !dbg !413
  br label %bb1, !dbg !413

bb1:                                              ; preds = %start
  %5 = bitcast %"core::option::Option<(u8, u8)>"* %1 to i24*, !dbg !414
  %6 = load i24, i24* %5, align 1, !dbg !414
  ret i24 %6, !dbg !414
}

; <core::iter::adapters::copied::Copied<I> as core::iter::traits::iterator::Iterator>::__iterator_get_unchecked
; Function Attrs: nounwind
define i8 @"_ZN104_$LT$core..iter..adapters..copied..Copied$LT$I$GT$$u20$as$u20$core..iter..traits..iterator..Iterator$GT$24__iterator_get_unchecked17h5a5337514686a4d2E"({ i8*, i8* }* align 8 dereferenceable(16) %self, i64 %idx) unnamed_addr #1 !dbg !415 {
start:
  %idx.dbg.spill = alloca i64, align 8
  %self.dbg.spill = alloca { i8*, i8* }*, align 8
  store { i8*, i8* }* %self, { i8*, i8* }** %self.dbg.spill, align 8
  call void @llvm.dbg.declare(metadata { i8*, i8* }** %self.dbg.spill, metadata !422, metadata !DIExpression()), !dbg !425
  store i64 %idx, i64* %idx.dbg.spill, align 8
  call void @llvm.dbg.declare(metadata i64* %idx.dbg.spill, metadata !423, metadata !DIExpression()), !dbg !426
; call core::iter::adapters::zip::try_get_unchecked
  %_3 = call align 1 dereferenceable(1) i8* @_ZN4core4iter8adapters3zip17try_get_unchecked17hb48ed04ca8404321E({ i8*, i8* }* align 8 dereferenceable(16) %self, i64 %idx), !dbg !427
  br label %bb1, !dbg !427

bb1:                                              ; preds = %start
  %0 = load i8, i8* %_3, align 1, !dbg !428
  ret i8 %0, !dbg !429
}

; <core::iter::adapters::copied::Copied<I> as core::iter::traits::iterator::Iterator>::size_hint
; Function Attrs: nounwind
define void @"_ZN104_$LT$core..iter..adapters..copied..Copied$LT$I$GT$$u20$as$u20$core..iter..traits..iterator..Iterator$GT$9size_hint17h5c0c5c62f889b1ceE"({ i64, { i64, i64 } }* noalias nocapture sret({ i64, { i64, i64 } }) dereferenceable(24) %0, { i8*, i8* }* align 8 dereferenceable(16) %self) unnamed_addr #1 !dbg !430 {
start:
  %self.dbg.spill = alloca { i8*, i8* }*, align 8
  store { i8*, i8* }* %self, { i8*, i8* }** %self.dbg.spill, align 8
  call void @llvm.dbg.declare(metadata { i8*, i8* }** %self.dbg.spill, metadata !439, metadata !DIExpression()), !dbg !440
; call <core::slice::iter::Iter<T> as core::iter::traits::iterator::Iterator>::size_hint
  call void @"_ZN91_$LT$core..slice..iter..Iter$LT$T$GT$$u20$as$u20$core..iter..traits..iterator..Iterator$GT$9size_hint17h47a300e5ac9c2733E"({ i64, { i64, i64 } }* noalias nocapture sret({ i64, { i64, i64 } }) dereferenceable(24) %0, { i8*, i8* }* align 8 dereferenceable(16) %self), !dbg !441
  br label %bb1, !dbg !441

bb1:                                              ; preds = %start
  ret void, !dbg !442
}

; <core::ops::control_flow::ControlFlow<B,C> as core::ops::try_trait::FromResidual>::from_residual
; Function Attrs: inlinehint nounwind
define zeroext i1 @"_ZN104_$LT$core..ops..control_flow..ControlFlow$LT$B$C$C$GT$$u20$as$u20$core..ops..try_trait..FromResidual$GT$13from_residual17hc6f6bb713943246bE"() unnamed_addr #0 !dbg !443 {
start:
  %b.dbg.spill = alloca {}, align 1
  %residual.dbg.spill = alloca %"core::ops::ControlFlow<(), core::convert::Infallible>::Break", align 1
  %0 = alloca i8, align 1
  call void @llvm.dbg.declare(metadata %"core::ops::ControlFlow<(), core::convert::Infallible>::Break"* %residual.dbg.spill, metadata !464, metadata !DIExpression()), !dbg !469
  call void @llvm.dbg.declare(metadata {}* %b.dbg.spill, metadata !465, metadata !DIExpression()), !dbg !470
  %1 = bitcast i8* %0 to %"core::ops::ControlFlow<()>::Break"*, !dbg !471
  %2 = getelementptr inbounds %"core::ops::ControlFlow<()>::Break", %"core::ops::ControlFlow<()>::Break"* %1, i32 0, i32 1, !dbg !471
  store i8 1, i8* %0, align 1, !dbg !471
  %3 = load i8, i8* %0, align 1, !dbg !472, !range !473
  %4 = trunc i8 %3 to i1, !dbg !472
  ret i1 %4, !dbg !472
}

; <core::ops::control_flow::ControlFlow<B,C> as core::ops::try_trait::FromResidual>::from_residual
; Function Attrs: inlinehint nounwind
define { i64, i64 } @"_ZN104_$LT$core..ops..control_flow..ControlFlow$LT$B$C$C$GT$$u20$as$u20$core..ops..try_trait..FromResidual$GT$13from_residual17he6e0d1233cfec38bE"(i64 %0) unnamed_addr #0 !dbg !474 {
start:
  %b.dbg.spill = alloca i64, align 8
  %1 = alloca { i64, i64 }, align 8
  %residual = alloca i64, align 8
  store i64 %0, i64* %residual, align 8
  call void @llvm.dbg.declare(metadata i64* %residual, metadata !502, metadata !DIExpression()), !dbg !505
  %b = load i64, i64* %residual, align 8, !dbg !506
  store i64 %b, i64* %b.dbg.spill, align 8, !dbg !506
  call void @llvm.dbg.declare(metadata i64* %b.dbg.spill, metadata !503, metadata !DIExpression()), !dbg !507
  %2 = bitcast { i64, i64 }* %1 to %"core::ops::ControlFlow<usize>::Break"*, !dbg !508
  %3 = getelementptr inbounds %"core::ops::ControlFlow<usize>::Break", %"core::ops::ControlFlow<usize>::Break"* %2, i32 0, i32 1, !dbg !508
  store i64 %b, i64* %3, align 8, !dbg !508
  %4 = bitcast { i64, i64 }* %1 to i64*, !dbg !508
  store i64 1, i64* %4, align 8, !dbg !508
  %5 = getelementptr inbounds { i64, i64 }, { i64, i64 }* %1, i32 0, i32 0, !dbg !509
  %6 = load i64, i64* %5, align 8, !dbg !509, !range !510
  %7 = getelementptr inbounds { i64, i64 }, { i64, i64 }* %1, i32 0, i32 1, !dbg !509
  %8 = load i64, i64* %7, align 8, !dbg !509
  %9 = insertvalue { i64, i64 } undef, i64 %6, 0, !dbg !509
  %10 = insertvalue { i64, i64 } %9, i64 %8, 1, !dbg !509
  ret { i64, i64 } %10, !dbg !509
}

; <core::iter::adapters::filter::Filter<I,P> as core::iter::traits::iterator::Iterator>::next
; Function Attrs: inlinehint nounwind
define { i64, i64 } @"_ZN108_$LT$core..iter..adapters..filter..Filter$LT$I$C$P$GT$$u20$as$u20$core..iter..traits..iterator..Iterator$GT$4next17he32e98bbabf5d438E"({ i64, i64 }* align 8 dereferenceable(16) %self) unnamed_addr #0 !dbg !511 {
start:
  %self.dbg.spill = alloca { i64, i64 }*, align 8
  store { i64, i64 }* %self, { i64, i64 }** %self.dbg.spill, align 8
  call void @llvm.dbg.declare(metadata { i64, i64 }** %self.dbg.spill, metadata !518, metadata !DIExpression()), !dbg !519
  %_3 = bitcast { i64, i64 }* %self to %"[closure@/root/.cargo/registry/src/github.com-1ecc6299db9ec823/log-0.4.14/src/lib.rs:519:25: 519:40]"*, !dbg !520
; call core::iter::traits::iterator::Iterator::find
  %0 = call { i64, i64 } @_ZN4core4iter6traits8iterator8Iterator4find17hadad5320b1b4b0d0E({ i64, i64 }* align 8 dereferenceable(16) %self, %"[closure@/root/.cargo/registry/src/github.com-1ecc6299db9ec823/log-0.4.14/src/lib.rs:519:25: 519:40]"* nonnull align 1 %_3), !dbg !521
  %1 = extractvalue { i64, i64 } %0, 0, !dbg !521
  %2 = extractvalue { i64, i64 } %0, 1, !dbg !521
  br label %bb1, !dbg !521

bb1:                                              ; preds = %start
  %3 = insertvalue { i64, i64 } undef, i64 %1, 0, !dbg !522
  %4 = insertvalue { i64, i64 } %3, i64 %2, 1, !dbg !522
  ret { i64, i64 } %4, !dbg !522
}

; <core::iter::adapters::zip::Zip<A,B> as core::iter::adapters::zip::ZipImpl<A,B>>::new
; Function Attrs: nounwind
define void @"_ZN111_$LT$core..iter..adapters..zip..Zip$LT$A$C$B$GT$$u20$as$u20$core..iter..adapters..zip..ZipImpl$LT$A$C$B$GT$$GT$3new17hf6ea94df3439f6e8E"(%"core::iter::Zip<core::str::Bytes, core::str::Bytes>"* noalias nocapture sret(%"core::iter::Zip<core::str::Bytes, core::str::Bytes>") dereferenceable(56) %0, i8* nonnull %1, i8* %2, i8* nonnull %3, i8* %4) unnamed_addr #1 !dbg !523 {
start:
  %len.dbg.spill = alloca i64, align 8
  %a_len.dbg.spill = alloca i64, align 8
  %b = alloca { i8*, i8* }, align 8
  %a = alloca { i8*, i8* }, align 8
  %5 = getelementptr inbounds { i8*, i8* }, { i8*, i8* }* %a, i32 0, i32 0
  store i8* %1, i8** %5, align 8
  %6 = getelementptr inbounds { i8*, i8* }, { i8*, i8* }* %a, i32 0, i32 1
  store i8* %2, i8** %6, align 8
  %7 = getelementptr inbounds { i8*, i8* }, { i8*, i8* }* %b, i32 0, i32 0
  store i8* %3, i8** %7, align 8
  %8 = getelementptr inbounds { i8*, i8* }, { i8*, i8* }* %b, i32 0, i32 1
  store i8* %4, i8** %8, align 8
  call void @llvm.dbg.declare(metadata { i8*, i8* }* %a, metadata !528, metadata !DIExpression()), !dbg !534
  call void @llvm.dbg.declare(metadata { i8*, i8* }* %b, metadata !529, metadata !DIExpression()), !dbg !535
; call core::iter::adapters::zip::TrustedRandomAccessNoCoerce::size
  %a_len = call i64 @_ZN4core4iter8adapters3zip27TrustedRandomAccessNoCoerce4size17h2ddd07498266be0eE({ i8*, i8* }* align 8 dereferenceable(16) %a), !dbg !536
  store i64 %a_len, i64* %a_len.dbg.spill, align 8, !dbg !536
  call void @llvm.dbg.declare(metadata i64* %a_len.dbg.spill, metadata !530, metadata !DIExpression()), !dbg !537
  br label %bb1, !dbg !536

bb1:                                              ; preds = %start
; call core::iter::adapters::zip::TrustedRandomAccessNoCoerce::size
  %_7 = call i64 @_ZN4core4iter8adapters3zip27TrustedRandomAccessNoCoerce4size17h2ddd07498266be0eE({ i8*, i8* }* align 8 dereferenceable(16) %b), !dbg !538
  br label %bb2, !dbg !538

bb2:                                              ; preds = %bb1
; call core::cmp::min
  %len = call i64 @_ZN4core3cmp3min17hf8ea8a3e49cf0caeE(i64 %a_len, i64 %_7), !dbg !539
  store i64 %len, i64* %len.dbg.spill, align 8, !dbg !539
  call void @llvm.dbg.declare(metadata i64* %len.dbg.spill, metadata !532, metadata !DIExpression()), !dbg !540
  br label %bb3, !dbg !539

bb3:                                              ; preds = %bb2
  %9 = getelementptr inbounds { i8*, i8* }, { i8*, i8* }* %a, i32 0, i32 0, !dbg !541
  %_9.0 = load i8*, i8** %9, align 8, !dbg !541, !nonnull !4
  %10 = getelementptr inbounds { i8*, i8* }, { i8*, i8* }* %a, i32 0, i32 1, !dbg !541
  %_9.1 = load i8*, i8** %10, align 8, !dbg !541
  %11 = getelementptr inbounds { i8*, i8* }, { i8*, i8* }* %b, i32 0, i32 0, !dbg !542
  %_10.0 = load i8*, i8** %11, align 8, !dbg !542, !nonnull !4
  %12 = getelementptr inbounds { i8*, i8* }, { i8*, i8* }* %b, i32 0, i32 1, !dbg !542
  %_10.1 = load i8*, i8** %12, align 8, !dbg !542
  %13 = bitcast %"core::iter::Zip<core::str::Bytes, core::str::Bytes>"* %0 to { i8*, i8* }*, !dbg !543
  %14 = getelementptr inbounds { i8*, i8* }, { i8*, i8* }* %13, i32 0, i32 0, !dbg !543
  store i8* %_9.0, i8** %14, align 8, !dbg !543
  %15 = getelementptr inbounds { i8*, i8* }, { i8*, i8* }* %13, i32 0, i32 1, !dbg !543
  store i8* %_9.1, i8** %15, align 8, !dbg !543
  %16 = getelementptr inbounds %"core::iter::Zip<core::str::Bytes, core::str::Bytes>", %"core::iter::Zip<core::str::Bytes, core::str::Bytes>"* %0, i32 0, i32 1, !dbg !543
  %17 = getelementptr inbounds { i8*, i8* }, { i8*, i8* }* %16, i32 0, i32 0, !dbg !543
  store i8* %_10.0, i8** %17, align 8, !dbg !543
  %18 = getelementptr inbounds { i8*, i8* }, { i8*, i8* }* %16, i32 0, i32 1, !dbg !543
  store i8* %_10.1, i8** %18, align 8, !dbg !543
  %19 = getelementptr inbounds %"core::iter::Zip<core::str::Bytes, core::str::Bytes>", %"core::iter::Zip<core::str::Bytes, core::str::Bytes>"* %0, i32 0, i32 2, !dbg !543
  store i64 0, i64* %19, align 8, !dbg !543
  %20 = getelementptr inbounds %"core::iter::Zip<core::str::Bytes, core::str::Bytes>", %"core::iter::Zip<core::str::Bytes, core::str::Bytes>"* %0, i32 0, i32 3, !dbg !543
  store i64 %len, i64* %20, align 8, !dbg !543
  %21 = getelementptr inbounds %"core::iter::Zip<core::str::Bytes, core::str::Bytes>", %"core::iter::Zip<core::str::Bytes, core::str::Bytes>"* %0, i32 0, i32 4, !dbg !543
  store i64 %a_len, i64* %21, align 8, !dbg !543
  ret void, !dbg !544
}

; <core::iter::adapters::zip::Zip<A,B> as core::iter::adapters::zip::ZipImpl<A,B>>::next
; Function Attrs: inlinehint nounwind
define i24 @"_ZN111_$LT$core..iter..adapters..zip..Zip$LT$A$C$B$GT$$u20$as$u20$core..iter..adapters..zip..ZipImpl$LT$A$C$B$GT$$GT$4next17h4ec8597ec9b4d049E"(%"core::iter::Zip<core::str::Bytes, core::str::Bytes>"* align 8 dereferenceable(56) %self) unnamed_addr #0 !dbg !545 {
start:
  %i.dbg.spill2 = alloca i64, align 8
  %i.dbg.spill = alloca i64, align 8
  %self.dbg.spill = alloca %"core::iter::Zip<core::str::Bytes, core::str::Bytes>"*, align 8
  %_13 = alloca i8, align 1
  %_6 = alloca { i8, i8 }, align 1
  %0 = alloca %"core::option::Option<(u8, u8)>", align 1
  store %"core::iter::Zip<core::str::Bytes, core::str::Bytes>"* %self, %"core::iter::Zip<core::str::Bytes, core::str::Bytes>"** %self.dbg.spill, align 8
  call void @llvm.dbg.declare(metadata %"core::iter::Zip<core::str::Bytes, core::str::Bytes>"** %self.dbg.spill, metadata !547, metadata !DIExpression()), !dbg !552
  %1 = getelementptr inbounds %"core::iter::Zip<core::str::Bytes, core::str::Bytes>", %"core::iter::Zip<core::str::Bytes, core::str::Bytes>"* %self, i32 0, i32 2, !dbg !553
  %_3 = load i64, i64* %1, align 8, !dbg !553
  %2 = getelementptr inbounds %"core::iter::Zip<core::str::Bytes, core::str::Bytes>", %"core::iter::Zip<core::str::Bytes, core::str::Bytes>"* %self, i32 0, i32 3, !dbg !554
  %_4 = load i64, i64* %2, align 8, !dbg !554
  %_2 = icmp ult i64 %_3, %_4, !dbg !553
  br i1 %_2, label %bb1, label %bb4, !dbg !553

bb4:                                              ; preds = %start
  br i1 false, label %bb6, label %bb5, !dbg !555

bb1:                                              ; preds = %start
  %3 = getelementptr inbounds %"core::iter::Zip<core::str::Bytes, core::str::Bytes>", %"core::iter::Zip<core::str::Bytes, core::str::Bytes>"* %self, i32 0, i32 2, !dbg !556
  %i = load i64, i64* %3, align 8, !dbg !556
  store i64 %i, i64* %i.dbg.spill, align 8, !dbg !556
  call void @llvm.dbg.declare(metadata i64* %i.dbg.spill, metadata !548, metadata !DIExpression()), !dbg !557
  %4 = getelementptr inbounds %"core::iter::Zip<core::str::Bytes, core::str::Bytes>", %"core::iter::Zip<core::str::Bytes, core::str::Bytes>"* %self, i32 0, i32 2, !dbg !558
  %5 = getelementptr inbounds %"core::iter::Zip<core::str::Bytes, core::str::Bytes>", %"core::iter::Zip<core::str::Bytes, core::str::Bytes>"* %self, i32 0, i32 2, !dbg !558
  %6 = load i64, i64* %5, align 8, !dbg !558
  %7 = add i64 %6, 1, !dbg !558
  store i64 %7, i64* %4, align 8, !dbg !558
  %_8 = bitcast %"core::iter::Zip<core::str::Bytes, core::str::Bytes>"* %self to { i8*, i8* }*, !dbg !559
; call <core::str::iter::Bytes as core::iter::traits::iterator::Iterator>::__iterator_get_unchecked
  %_7 = call i8 @"_ZN81_$LT$core..str..iter..Bytes$u20$as$u20$core..iter..traits..iterator..Iterator$GT$24__iterator_get_unchecked17h50b702aab55c5d7fE"({ i8*, i8* }* align 8 dereferenceable(16) %_8, i64 %i), !dbg !559
  br label %bb2, !dbg !559

bb2:                                              ; preds = %bb1
  %_11 = getelementptr inbounds %"core::iter::Zip<core::str::Bytes, core::str::Bytes>", %"core::iter::Zip<core::str::Bytes, core::str::Bytes>"* %self, i32 0, i32 1, !dbg !560
; call <core::str::iter::Bytes as core::iter::traits::iterator::Iterator>::__iterator_get_unchecked
  %_10 = call i8 @"_ZN81_$LT$core..str..iter..Bytes$u20$as$u20$core..iter..traits..iterator..Iterator$GT$24__iterator_get_unchecked17h50b702aab55c5d7fE"({ i8*, i8* }* align 8 dereferenceable(16) %_11, i64 %i), !dbg !560
  br label %bb3, !dbg !560

bb3:                                              ; preds = %bb2
  %8 = bitcast { i8, i8 }* %_6 to i8*, !dbg !561
  store i8 %_7, i8* %8, align 1, !dbg !561
  %9 = getelementptr inbounds { i8, i8 }, { i8, i8 }* %_6, i32 0, i32 1, !dbg !561
  store i8 %_10, i8* %9, align 1, !dbg !561
  %10 = bitcast %"core::option::Option<(u8, u8)>"* %0 to %"core::option::Option<(u8, u8)>::Some"*, !dbg !562
  %11 = getelementptr inbounds %"core::option::Option<(u8, u8)>::Some", %"core::option::Option<(u8, u8)>::Some"* %10, i32 0, i32 1, !dbg !562
  %12 = getelementptr inbounds { i8, i8 }, { i8, i8 }* %_6, i32 0, i32 0, !dbg !562
  %13 = load i8, i8* %12, align 1, !dbg !562
  %14 = getelementptr inbounds { i8, i8 }, { i8, i8 }* %_6, i32 0, i32 1, !dbg !562
  %15 = load i8, i8* %14, align 1, !dbg !562
  %16 = getelementptr inbounds { i8, i8 }, { i8, i8 }* %11, i32 0, i32 0, !dbg !562
  store i8 %13, i8* %16, align 1, !dbg !562
  %17 = getelementptr inbounds { i8, i8 }, { i8, i8 }* %11, i32 0, i32 1, !dbg !562
  store i8 %15, i8* %17, align 1, !dbg !562
  %18 = bitcast %"core::option::Option<(u8, u8)>"* %0 to i8*, !dbg !562
  store i8 1, i8* %18, align 1, !dbg !562
  br label %bb13, !dbg !563

bb13:                                             ; preds = %bb12, %bb3
  %19 = bitcast %"core::option::Option<(u8, u8)>"* %0 to i24*, !dbg !564
  %20 = load i24, i24* %19, align 1, !dbg !564
  ret i24 %20, !dbg !564

bb5:                                              ; preds = %bb4
  store i8 0, i8* %_13, align 1, !dbg !555
  br label %bb7, !dbg !555

bb6:                                              ; preds = %bb4
  %21 = getelementptr inbounds %"core::iter::Zip<core::str::Bytes, core::str::Bytes>", %"core::iter::Zip<core::str::Bytes, core::str::Bytes>"* %self, i32 0, i32 2, !dbg !565
  %_15 = load i64, i64* %21, align 8, !dbg !565
  %22 = getelementptr inbounds %"core::iter::Zip<core::str::Bytes, core::str::Bytes>", %"core::iter::Zip<core::str::Bytes, core::str::Bytes>"* %self, i32 0, i32 4, !dbg !566
  %_16 = load i64, i64* %22, align 8, !dbg !566
  %_14 = icmp ult i64 %_15, %_16, !dbg !565
  %23 = zext i1 %_14 to i8, !dbg !555
  store i8 %23, i8* %_13, align 1, !dbg !555
  br label %bb7, !dbg !555

bb7:                                              ; preds = %bb5, %bb6
  %24 = load i8, i8* %_13, align 1, !dbg !555, !range !473
  %25 = trunc i8 %24 to i1, !dbg !555
  br i1 %25, label %bb8, label %bb11, !dbg !555

bb11:                                             ; preds = %bb7
  %26 = bitcast %"core::option::Option<(u8, u8)>"* %0 to i8*, !dbg !567
  store i8 0, i8* %26, align 1, !dbg !567
  br label %bb12, !dbg !568

bb8:                                              ; preds = %bb7
  %27 = getelementptr inbounds %"core::iter::Zip<core::str::Bytes, core::str::Bytes>", %"core::iter::Zip<core::str::Bytes, core::str::Bytes>"* %self, i32 0, i32 2, !dbg !569
  %i1 = load i64, i64* %27, align 8, !dbg !569
  store i64 %i1, i64* %i.dbg.spill2, align 8, !dbg !569
  call void @llvm.dbg.declare(metadata i64* %i.dbg.spill2, metadata !550, metadata !DIExpression()), !dbg !570
  %28 = getelementptr inbounds %"core::iter::Zip<core::str::Bytes, core::str::Bytes>", %"core::iter::Zip<core::str::Bytes, core::str::Bytes>"* %self, i32 0, i32 2, !dbg !571
  %29 = getelementptr inbounds %"core::iter::Zip<core::str::Bytes, core::str::Bytes>", %"core::iter::Zip<core::str::Bytes, core::str::Bytes>"* %self, i32 0, i32 2, !dbg !571
  %30 = load i64, i64* %29, align 8, !dbg !571
  %31 = add i64 %30, 1, !dbg !571
  store i64 %31, i64* %28, align 8, !dbg !571
  %32 = getelementptr inbounds %"core::iter::Zip<core::str::Bytes, core::str::Bytes>", %"core::iter::Zip<core::str::Bytes, core::str::Bytes>"* %self, i32 0, i32 3, !dbg !572
  %33 = getelementptr inbounds %"core::iter::Zip<core::str::Bytes, core::str::Bytes>", %"core::iter::Zip<core::str::Bytes, core::str::Bytes>"* %self, i32 0, i32 3, !dbg !572
  %34 = load i64, i64* %33, align 8, !dbg !572
  %35 = add i64 %34, 1, !dbg !572
  store i64 %35, i64* %32, align 8, !dbg !572
  %_19 = bitcast %"core::iter::Zip<core::str::Bytes, core::str::Bytes>"* %self to { i8*, i8* }*, !dbg !573
; call <core::str::iter::Bytes as core::iter::traits::iterator::Iterator>::__iterator_get_unchecked
  %_18 = call i8 @"_ZN81_$LT$core..str..iter..Bytes$u20$as$u20$core..iter..traits..iterator..Iterator$GT$24__iterator_get_unchecked17h50b702aab55c5d7fE"({ i8*, i8* }* align 8 dereferenceable(16) %_19, i64 %i1), !dbg !573
  br label %bb9, !dbg !573

bb9:                                              ; preds = %bb8
  br label %bb10, !dbg !574

bb10:                                             ; preds = %bb9
  %36 = bitcast %"core::option::Option<(u8, u8)>"* %0 to i8*, !dbg !575
  store i8 0, i8* %36, align 1, !dbg !575
  br label %bb12, !dbg !568

bb12:                                             ; preds = %bb11, %bb10
  br label %bb13, !dbg !563
}

; <&T as core::fmt::Debug>::fmt
; Function Attrs: nounwind
define zeroext i1 @"_ZN42_$LT$$RF$T$u20$as$u20$core..fmt..Debug$GT$3fmt17h028ff3369124ef84E"({ [0 x i8]*, i64 }* align 8 dereferenceable(16) %self, %"core::fmt::Formatter"* align 8 dereferenceable(64) %f) unnamed_addr #1 !dbg !576 {
start:
  %f.dbg.spill = alloca %"core::fmt::Formatter"*, align 8
  %self.dbg.spill = alloca { [0 x i8]*, i64 }*, align 8
  store { [0 x i8]*, i64 }* %self, { [0 x i8]*, i64 }** %self.dbg.spill, align 8
  call void @llvm.dbg.declare(metadata { [0 x i8]*, i64 }** %self.dbg.spill, metadata !582, metadata !DIExpression()), !dbg !589
  store %"core::fmt::Formatter"* %f, %"core::fmt::Formatter"** %f.dbg.spill, align 8
  call void @llvm.dbg.declare(metadata %"core::fmt::Formatter"** %f.dbg.spill, metadata !583, metadata !DIExpression()), !dbg !590
  %0 = getelementptr inbounds { [0 x i8]*, i64 }, { [0 x i8]*, i64 }* %self, i32 0, i32 0, !dbg !591
  %_4.0 = load [0 x i8]*, [0 x i8]** %0, align 8, !dbg !591, !nonnull !4
  %1 = getelementptr inbounds { [0 x i8]*, i64 }, { [0 x i8]*, i64 }* %self, i32 0, i32 1, !dbg !591
  %_4.1 = load i64, i64* %1, align 8, !dbg !591
; call <str as core::fmt::Debug>::fmt
  %2 = call zeroext i1 @"_ZN40_$LT$str$u20$as$u20$core..fmt..Debug$GT$3fmt17hc68cab295f7726b4E"([0 x i8]* nonnull align 1 %_4.0, i64 %_4.1, %"core::fmt::Formatter"* align 8 dereferenceable(64) %f), !dbg !592
  br label %bb1, !dbg !592

bb1:                                              ; preds = %start
  ret i1 %2, !dbg !593
}

; <&T as core::fmt::Debug>::fmt
; Function Attrs: nounwind
define zeroext i1 @"_ZN42_$LT$$RF$T$u20$as$u20$core..fmt..Debug$GT$3fmt17h182190f511ef9c92E"(i64** align 8 dereferenceable(8) %self, %"core::fmt::Formatter"* align 8 dereferenceable(64) %f) unnamed_addr #1 !dbg !594 {
start:
  %f.dbg.spill = alloca %"core::fmt::Formatter"*, align 8
  %self.dbg.spill = alloca i64**, align 8
  store i64** %self, i64*** %self.dbg.spill, align 8
  call void @llvm.dbg.declare(metadata i64*** %self.dbg.spill, metadata !599, metadata !DIExpression()), !dbg !601
  store %"core::fmt::Formatter"* %f, %"core::fmt::Formatter"** %f.dbg.spill, align 8
  call void @llvm.dbg.declare(metadata %"core::fmt::Formatter"** %f.dbg.spill, metadata !600, metadata !DIExpression()), !dbg !602
  %_4 = load i64*, i64** %self, align 8, !dbg !603, !nonnull !4
; call <log::Level as core::fmt::Debug>::fmt
  %0 = call zeroext i1 @"_ZN47_$LT$log..Level$u20$as$u20$core..fmt..Debug$GT$3fmt17hc7eaf7054caef938E"(i64* align 8 dereferenceable(8) %_4, %"core::fmt::Formatter"* align 8 dereferenceable(64) %f), !dbg !604
  br label %bb1, !dbg !604

bb1:                                              ; preds = %start
  ret i1 %0, !dbg !605
}

; <&T as core::fmt::Debug>::fmt
; Function Attrs: nounwind
define zeroext i1 @"_ZN42_$LT$$RF$T$u20$as$u20$core..fmt..Debug$GT$3fmt17h28f98548e9f8a3bdE"(%"core::fmt::Arguments"** align 8 dereferenceable(8) %self, %"core::fmt::Formatter"* align 8 dereferenceable(64) %f) unnamed_addr #1 !dbg !606 {
start:
  %f.dbg.spill = alloca %"core::fmt::Formatter"*, align 8
  %self.dbg.spill = alloca %"core::fmt::Arguments"**, align 8
  store %"core::fmt::Arguments"** %self, %"core::fmt::Arguments"*** %self.dbg.spill, align 8
  call void @llvm.dbg.declare(metadata %"core::fmt::Arguments"*** %self.dbg.spill, metadata !611, metadata !DIExpression()), !dbg !615
  store %"core::fmt::Formatter"* %f, %"core::fmt::Formatter"** %f.dbg.spill, align 8
  call void @llvm.dbg.declare(metadata %"core::fmt::Formatter"** %f.dbg.spill, metadata !612, metadata !DIExpression()), !dbg !616
  %_4 = load %"core::fmt::Arguments"*, %"core::fmt::Arguments"** %self, align 8, !dbg !617, !nonnull !4
; call <core::fmt::Arguments as core::fmt::Debug>::fmt
  %0 = call zeroext i1 @"_ZN57_$LT$core..fmt..Arguments$u20$as$u20$core..fmt..Debug$GT$3fmt17hc59f56dd5c705045E"(%"core::fmt::Arguments"* align 8 dereferenceable(48) %_4, %"core::fmt::Formatter"* align 8 dereferenceable(64) %f), !dbg !618
  br label %bb1, !dbg !618

bb1:                                              ; preds = %start
  ret i1 %0, !dbg !619
}

; <&T as core::fmt::Debug>::fmt
; Function Attrs: nounwind
define zeroext i1 @"_ZN42_$LT$$RF$T$u20$as$u20$core..fmt..Debug$GT$3fmt17h2cde61016b58391eE"({ [0 x i8]*, i64 }** align 8 dereferenceable(8) %self, %"core::fmt::Formatter"* align 8 dereferenceable(64) %f) unnamed_addr #1 !dbg !620 {
start:
  %f.dbg.spill = alloca %"core::fmt::Formatter"*, align 8
  %self.dbg.spill = alloca { [0 x i8]*, i64 }**, align 8
  store { [0 x i8]*, i64 }** %self, { [0 x i8]*, i64 }*** %self.dbg.spill, align 8
  call void @llvm.dbg.declare(metadata { [0 x i8]*, i64 }*** %self.dbg.spill, metadata !625, metadata !DIExpression()), !dbg !629
  store %"core::fmt::Formatter"* %f, %"core::fmt::Formatter"** %f.dbg.spill, align 8
  call void @llvm.dbg.declare(metadata %"core::fmt::Formatter"** %f.dbg.spill, metadata !626, metadata !DIExpression()), !dbg !630
  %_4 = load { [0 x i8]*, i64 }*, { [0 x i8]*, i64 }** %self, align 8, !dbg !631, !nonnull !4
; call <&T as core::fmt::Debug>::fmt
  %0 = call zeroext i1 @"_ZN42_$LT$$RF$T$u20$as$u20$core..fmt..Debug$GT$3fmt17h028ff3369124ef84E"({ [0 x i8]*, i64 }* align 8 dereferenceable(16) %_4, %"core::fmt::Formatter"* align 8 dereferenceable(64) %f), !dbg !632
  br label %bb1, !dbg !632

bb1:                                              ; preds = %start
  ret i1 %0, !dbg !633
}

; <&T as core::fmt::Debug>::fmt
; Function Attrs: nounwind
define zeroext i1 @"_ZN42_$LT$$RF$T$u20$as$u20$core..fmt..Debug$GT$3fmt17h45cfb958856eea58E"({}** align 8 dereferenceable(8) %self, %"core::fmt::Formatter"* align 8 dereferenceable(64) %f) unnamed_addr #1 !dbg !634 {
start:
  %f.dbg.spill = alloca %"core::fmt::Formatter"*, align 8
  %self.dbg.spill = alloca {}**, align 8
  store {}** %self, {}*** %self.dbg.spill, align 8
  call void @llvm.dbg.declare(metadata {}*** %self.dbg.spill, metadata !639, metadata !DIExpression()), !dbg !643
  store %"core::fmt::Formatter"* %f, %"core::fmt::Formatter"** %f.dbg.spill, align 8
  call void @llvm.dbg.declare(metadata %"core::fmt::Formatter"** %f.dbg.spill, metadata !640, metadata !DIExpression()), !dbg !644
  %_4 = load {}*, {}** %self, align 8, !dbg !645, !nonnull !4
; call <() as core::fmt::Debug>::fmt
  %0 = call zeroext i1 @"_ZN45_$LT$$LP$$RP$$u20$as$u20$core..fmt..Debug$GT$3fmt17h403c1081bab7b7d4E"({}* nonnull align 1 %_4, %"core::fmt::Formatter"* align 8 dereferenceable(64) %f), !dbg !646
  br label %bb1, !dbg !646

bb1:                                              ; preds = %start
  ret i1 %0, !dbg !647
}

; <&T as core::fmt::Debug>::fmt
; Function Attrs: nounwind
define zeroext i1 @"_ZN42_$LT$$RF$T$u20$as$u20$core..fmt..Debug$GT$3fmt17h61c2d4c9107b80d5E"({ i32, i32 }** align 8 dereferenceable(8) %self, %"core::fmt::Formatter"* align 8 dereferenceable(64) %f) unnamed_addr #1 !dbg !648 {
start:
  %f.dbg.spill = alloca %"core::fmt::Formatter"*, align 8
  %self.dbg.spill = alloca { i32, i32 }**, align 8
  store { i32, i32 }** %self, { i32, i32 }*** %self.dbg.spill, align 8
  call void @llvm.dbg.declare(metadata { i32, i32 }*** %self.dbg.spill, metadata !653, metadata !DIExpression()), !dbg !657
  store %"core::fmt::Formatter"* %f, %"core::fmt::Formatter"** %f.dbg.spill, align 8
  call void @llvm.dbg.declare(metadata %"core::fmt::Formatter"** %f.dbg.spill, metadata !654, metadata !DIExpression()), !dbg !658
  %_4 = load { i32, i32 }*, { i32, i32 }** %self, align 8, !dbg !659, !nonnull !4
; call <core::option::Option<T> as core::fmt::Debug>::fmt
  %0 = call zeroext i1 @"_ZN66_$LT$core..option..Option$LT$T$GT$$u20$as$u20$core..fmt..Debug$GT$3fmt17hc1ce3cc1bab6be6cE"({ i32, i32 }* align 4 dereferenceable(8) %_4, %"core::fmt::Formatter"* align 8 dereferenceable(64) %f), !dbg !660
  br label %bb1, !dbg !660

bb1:                                              ; preds = %start
  ret i1 %0, !dbg !661
}

; <&T as core::fmt::Debug>::fmt
; Function Attrs: nounwind
define zeroext i1 @"_ZN42_$LT$$RF$T$u20$as$u20$core..fmt..Debug$GT$3fmt17h70538fb47fa01e03E"(%Record** align 8 dereferenceable(8) %self, %"core::fmt::Formatter"* align 8 dereferenceable(64) %f) unnamed_addr #1 !dbg !662 {
start:
  %f.dbg.spill = alloca %"core::fmt::Formatter"*, align 8
  %self.dbg.spill = alloca %Record**, align 8
  store %Record** %self, %Record*** %self.dbg.spill, align 8
  call void @llvm.dbg.declare(metadata %Record*** %self.dbg.spill, metadata !667, metadata !DIExpression()), !dbg !671
  store %"core::fmt::Formatter"* %f, %"core::fmt::Formatter"** %f.dbg.spill, align 8
  call void @llvm.dbg.declare(metadata %"core::fmt::Formatter"** %f.dbg.spill, metadata !668, metadata !DIExpression()), !dbg !672
  %_4 = load %Record*, %Record** %self, align 8, !dbg !673, !nonnull !4
; call <log::Record as core::fmt::Debug>::fmt
  %0 = call zeroext i1 @"_ZN48_$LT$log..Record$u20$as$u20$core..fmt..Debug$GT$3fmt17h4b38936966b64f24E"(%Record* align 8 dereferenceable(128) %_4, %"core::fmt::Formatter"* align 8 dereferenceable(64) %f), !dbg !674
  br label %bb1, !dbg !674

bb1:                                              ; preds = %start
  ret i1 %0, !dbg !675
}

; <&T as core::fmt::Debug>::fmt
; Function Attrs: nounwind
define zeroext i1 @"_ZN42_$LT$$RF$T$u20$as$u20$core..fmt..Debug$GT$3fmt17h8fe11fd4830791e1E"(i32** align 8 dereferenceable(8) %self, %"core::fmt::Formatter"* align 8 dereferenceable(64) %f) unnamed_addr #1 !dbg !676 {
start:
  %f.dbg.spill = alloca %"core::fmt::Formatter"*, align 8
  %self.dbg.spill = alloca i32**, align 8
  store i32** %self, i32*** %self.dbg.spill, align 8
  call void @llvm.dbg.declare(metadata i32*** %self.dbg.spill, metadata !681, metadata !DIExpression()), !dbg !683
  store %"core::fmt::Formatter"* %f, %"core::fmt::Formatter"** %f.dbg.spill, align 8
  call void @llvm.dbg.declare(metadata %"core::fmt::Formatter"** %f.dbg.spill, metadata !682, metadata !DIExpression()), !dbg !684
  %_4 = load i32*, i32** %self, align 8, !dbg !685, !nonnull !4
; call core::fmt::num::<impl core::fmt::Debug for u32>::fmt
  %0 = call zeroext i1 @"_ZN4core3fmt3num50_$LT$impl$u20$core..fmt..Debug$u20$for$u20$u32$GT$3fmt17h6eeddde733f9300fE"(i32* align 4 dereferenceable(4) %_4, %"core::fmt::Formatter"* align 8 dereferenceable(64) %f), !dbg !686
  br label %bb1, !dbg !686

bb1:                                              ; preds = %start
  ret i1 %0, !dbg !687
}

; <&T as core::fmt::Debug>::fmt
; Function Attrs: nounwind
define zeroext i1 @"_ZN42_$LT$$RF$T$u20$as$u20$core..fmt..Debug$GT$3fmt17he7a8689416b208c3E"(%"core::option::Option<MaybeStaticStr>"** align 8 dereferenceable(8) %self, %"core::fmt::Formatter"* align 8 dereferenceable(64) %f) unnamed_addr #1 !dbg !688 {
start:
  %f.dbg.spill = alloca %"core::fmt::Formatter"*, align 8
  %self.dbg.spill = alloca %"core::option::Option<MaybeStaticStr>"**, align 8
  store %"core::option::Option<MaybeStaticStr>"** %self, %"core::option::Option<MaybeStaticStr>"*** %self.dbg.spill, align 8
  call void @llvm.dbg.declare(metadata %"core::option::Option<MaybeStaticStr>"*** %self.dbg.spill, metadata !693, metadata !DIExpression()), !dbg !697
  store %"core::fmt::Formatter"* %f, %"core::fmt::Formatter"** %f.dbg.spill, align 8
  call void @llvm.dbg.declare(metadata %"core::fmt::Formatter"** %f.dbg.spill, metadata !694, metadata !DIExpression()), !dbg !698
  %_4 = load %"core::option::Option<MaybeStaticStr>"*, %"core::option::Option<MaybeStaticStr>"** %self, align 8, !dbg !699, !nonnull !4
; call <core::option::Option<T> as core::fmt::Debug>::fmt
  %0 = call zeroext i1 @"_ZN66_$LT$core..option..Option$LT$T$GT$$u20$as$u20$core..fmt..Debug$GT$3fmt17h2292bbcc661e7bf3E"(%"core::option::Option<MaybeStaticStr>"* align 8 dereferenceable(24) %_4, %"core::fmt::Formatter"* align 8 dereferenceable(64) %f), !dbg !700
  br label %bb1, !dbg !700

bb1:                                              ; preds = %start
  ret i1 %0, !dbg !701
}

; <&T as core::fmt::Debug>::fmt
; Function Attrs: nounwind
define zeroext i1 @"_ZN42_$LT$$RF$T$u20$as$u20$core..fmt..Debug$GT$3fmt17heae98c2e417361b1E"(%MaybeStaticStr** align 8 dereferenceable(8) %self, %"core::fmt::Formatter"* align 8 dereferenceable(64) %f) unnamed_addr #1 !dbg !702 {
start:
  %f.dbg.spill = alloca %"core::fmt::Formatter"*, align 8
  %self.dbg.spill = alloca %MaybeStaticStr**, align 8
  store %MaybeStaticStr** %self, %MaybeStaticStr*** %self.dbg.spill, align 8
  call void @llvm.dbg.declare(metadata %MaybeStaticStr*** %self.dbg.spill, metadata !707, metadata !DIExpression()), !dbg !709
  store %"core::fmt::Formatter"* %f, %"core::fmt::Formatter"** %f.dbg.spill, align 8
  call void @llvm.dbg.declare(metadata %"core::fmt::Formatter"** %f.dbg.spill, metadata !708, metadata !DIExpression()), !dbg !710
  %_4 = load %MaybeStaticStr*, %MaybeStaticStr** %self, align 8, !dbg !711, !nonnull !4
; call <log::MaybeStaticStr as core::fmt::Debug>::fmt
  %0 = call zeroext i1 @"_ZN56_$LT$log..MaybeStaticStr$u20$as$u20$core..fmt..Debug$GT$3fmt17h16aafe4c47a4139aE"(%MaybeStaticStr* align 8 dereferenceable(24) %_4, %"core::fmt::Formatter"* align 8 dereferenceable(64) %f), !dbg !712
  br label %bb1, !dbg !712

bb1:                                              ; preds = %start
  ret i1 %0, !dbg !713
}

; <&T as core::fmt::Debug>::fmt
; Function Attrs: nounwind
define zeroext i1 @"_ZN42_$LT$$RF$T$u20$as$u20$core..fmt..Debug$GT$3fmt17hf947b902d58b23c1E"(%Metadata** align 8 dereferenceable(8) %self, %"core::fmt::Formatter"* align 8 dereferenceable(64) %f) unnamed_addr #1 !dbg !714 {
start:
  %f.dbg.spill = alloca %"core::fmt::Formatter"*, align 8
  %self.dbg.spill = alloca %Metadata**, align 8
  store %Metadata** %self, %Metadata*** %self.dbg.spill, align 8
  call void @llvm.dbg.declare(metadata %Metadata*** %self.dbg.spill, metadata !719, metadata !DIExpression()), !dbg !723
  store %"core::fmt::Formatter"* %f, %"core::fmt::Formatter"** %f.dbg.spill, align 8
  call void @llvm.dbg.declare(metadata %"core::fmt::Formatter"** %f.dbg.spill, metadata !720, metadata !DIExpression()), !dbg !724
  %_4 = load %Metadata*, %Metadata** %self, align 8, !dbg !725, !nonnull !4
; call <log::Metadata as core::fmt::Debug>::fmt
  %0 = call zeroext i1 @"_ZN50_$LT$log..Metadata$u20$as$u20$core..fmt..Debug$GT$3fmt17hbcd31540182c956dE"(%Metadata* align 8 dereferenceable(24) %_4, %"core::fmt::Formatter"* align 8 dereferenceable(64) %f), !dbg !726
  br label %bb1, !dbg !726

bb1:                                              ; preds = %start
  ret i1 %0, !dbg !727
}

; <&T as core::fmt::Display>::fmt
; Function Attrs: nounwind
define zeroext i1 @"_ZN44_$LT$$RF$T$u20$as$u20$core..fmt..Display$GT$3fmt17h29ded54b9d01982aE"({ [0 x i8]*, i64 }* align 8 dereferenceable(16) %self, %"core::fmt::Formatter"* align 8 dereferenceable(64) %f) unnamed_addr #1 !dbg !728 {
start:
  %f.dbg.spill = alloca %"core::fmt::Formatter"*, align 8
  %self.dbg.spill = alloca { [0 x i8]*, i64 }*, align 8
  store { [0 x i8]*, i64 }* %self, { [0 x i8]*, i64 }** %self.dbg.spill, align 8
  call void @llvm.dbg.declare(metadata { [0 x i8]*, i64 }** %self.dbg.spill, metadata !731, metadata !DIExpression()), !dbg !733
  store %"core::fmt::Formatter"* %f, %"core::fmt::Formatter"** %f.dbg.spill, align 8
  call void @llvm.dbg.declare(metadata %"core::fmt::Formatter"** %f.dbg.spill, metadata !732, metadata !DIExpression()), !dbg !734
  %0 = getelementptr inbounds { [0 x i8]*, i64 }, { [0 x i8]*, i64 }* %self, i32 0, i32 0, !dbg !735
  %_4.0 = load [0 x i8]*, [0 x i8]** %0, align 8, !dbg !735, !nonnull !4
  %1 = getelementptr inbounds { [0 x i8]*, i64 }, { [0 x i8]*, i64 }* %self, i32 0, i32 1, !dbg !735
  %_4.1 = load i64, i64* %1, align 8, !dbg !735
; call <str as core::fmt::Display>::fmt
  %2 = call zeroext i1 @"_ZN42_$LT$str$u20$as$u20$core..fmt..Display$GT$3fmt17h22e9b1a86f36eac1E"([0 x i8]* nonnull align 1 %_4.0, i64 %_4.1, %"core::fmt::Formatter"* align 8 dereferenceable(64) %f), !dbg !736
  br label %bb1, !dbg !736

bb1:                                              ; preds = %start
  ret i1 %2, !dbg !737
}

; <() as core::fmt::Debug>::fmt
; Function Attrs: inlinehint nounwind
define internal zeroext i1 @"_ZN45_$LT$$LP$$RP$$u20$as$u20$core..fmt..Debug$GT$3fmt17h403c1081bab7b7d4E"({}* nonnull align 1 %self, %"core::fmt::Formatter"* align 8 dereferenceable(64) %f) unnamed_addr #0 !dbg !738 {
start:
  %f.dbg.spill = alloca %"core::fmt::Formatter"*, align 8
  %self.dbg.spill = alloca {}*, align 8
  store {}* %self, {}** %self.dbg.spill, align 8
  call void @llvm.dbg.declare(metadata {}** %self.dbg.spill, metadata !743, metadata !DIExpression()), !dbg !745
  store %"core::fmt::Formatter"* %f, %"core::fmt::Formatter"** %f.dbg.spill, align 8
  call void @llvm.dbg.declare(metadata %"core::fmt::Formatter"** %f.dbg.spill, metadata !744, metadata !DIExpression()), !dbg !746
; call core::fmt::Formatter::pad
  %0 = call zeroext i1 @_ZN4core3fmt9Formatter3pad17h70ec84041e79e862E(%"core::fmt::Formatter"* align 8 dereferenceable(64) %f, [0 x i8]* nonnull align 1 bitcast (<{ [2 x i8] }>* @alloc341 to [0 x i8]*), i64 2), !dbg !747
  br label %bb1, !dbg !747

bb1:                                              ; preds = %start
  ret i1 %0, !dbg !748
}

; core::cmp::Ord::min
; Function Attrs: inlinehint nounwind
define i64 @_ZN4core3cmp3Ord3min17ha4c8d31b181a2331E(i64 %self, i64 %other) unnamed_addr #0 !dbg !749 {
start:
  %other.dbg.spill = alloca i64, align 8
  %self.dbg.spill = alloca i64, align 8
  store i64 %self, i64* %self.dbg.spill, align 8
  call void @llvm.dbg.declare(metadata i64* %self.dbg.spill, metadata !755, metadata !DIExpression()), !dbg !759
  store i64 %other, i64* %other.dbg.spill, align 8
  call void @llvm.dbg.declare(metadata i64* %other.dbg.spill, metadata !756, metadata !DIExpression()), !dbg !760
; call core::cmp::min_by
  %0 = call i64 @_ZN4core3cmp6min_by17h4b82f4dc5dd9526aE(i64 %self, i64 %other), !dbg !761
  br label %bb1, !dbg !761

bb1:                                              ; preds = %start
  ret i64 %0, !dbg !762
}

; core::cmp::min
; Function Attrs: inlinehint nounwind
define i64 @_ZN4core3cmp3min17hf8ea8a3e49cf0caeE(i64 %v1, i64 %v2) unnamed_addr #0 !dbg !763 {
start:
  %v2.dbg.spill = alloca i64, align 8
  %v1.dbg.spill = alloca i64, align 8
  store i64 %v1, i64* %v1.dbg.spill, align 8
  call void @llvm.dbg.declare(metadata i64* %v1.dbg.spill, metadata !765, metadata !DIExpression()), !dbg !767
  store i64 %v2, i64* %v2.dbg.spill, align 8
  call void @llvm.dbg.declare(metadata i64* %v2.dbg.spill, metadata !766, metadata !DIExpression()), !dbg !768
; call core::cmp::Ord::min
  %0 = call i64 @_ZN4core3cmp3Ord3min17ha4c8d31b181a2331E(i64 %v1, i64 %v2), !dbg !769
  br label %bb1, !dbg !769

bb1:                                              ; preds = %start
  ret i64 %0, !dbg !770
}

; core::cmp::impls::<impl core::cmp::Ord for usize>::cmp
; Function Attrs: inlinehint nounwind
define internal i8 @"_ZN4core3cmp5impls50_$LT$impl$u20$core..cmp..Ord$u20$for$u20$usize$GT$3cmp17he041e500177e4528E"(i64* align 8 dereferenceable(8) %self, i64* align 8 dereferenceable(8) %other) unnamed_addr #0 !dbg !771 {
start:
  %other.dbg.spill = alloca i64*, align 8
  %self.dbg.spill = alloca i64*, align 8
  %0 = alloca i8, align 1
  store i64* %self, i64** %self.dbg.spill, align 8
  call void @llvm.dbg.declare(metadata i64** %self.dbg.spill, metadata !778, metadata !DIExpression()), !dbg !780
  store i64* %other, i64** %other.dbg.spill, align 8
  call void @llvm.dbg.declare(metadata i64** %other.dbg.spill, metadata !779, metadata !DIExpression()), !dbg !781
  %_4 = load i64, i64* %self, align 8, !dbg !782
  %_5 = load i64, i64* %other, align 8, !dbg !783
  %_3 = icmp ult i64 %_4, %_5, !dbg !782
  br i1 %_3, label %bb1, label %bb2, !dbg !782

bb2:                                              ; preds = %start
  %_7 = load i64, i64* %self, align 8, !dbg !784
  %_8 = load i64, i64* %other, align 8, !dbg !785
  %_6 = icmp eq i64 %_7, %_8, !dbg !784
  br i1 %_6, label %bb3, label %bb4, !dbg !784

bb1:                                              ; preds = %start
  store i8 -1, i8* %0, align 1, !dbg !786
  br label %bb6, !dbg !787

bb6:                                              ; preds = %bb5, %bb1
  %1 = load i8, i8* %0, align 1, !dbg !788, !range !789
  ret i8 %1, !dbg !788

bb4:                                              ; preds = %bb2
  store i8 1, i8* %0, align 1, !dbg !790
  br label %bb5, !dbg !791

bb3:                                              ; preds = %bb2
  store i8 0, i8* %0, align 1, !dbg !792
  br label %bb5, !dbg !791

bb5:                                              ; preds = %bb4, %bb3
  br label %bb6, !dbg !787
}

; core::cmp::impls::<impl core::cmp::PartialEq for usize>::eq
; Function Attrs: inlinehint nounwind
define internal zeroext i1 @"_ZN4core3cmp5impls56_$LT$impl$u20$core..cmp..PartialEq$u20$for$u20$usize$GT$2eq17h57a125d2be5bab3eE"(i64* align 8 dereferenceable(8) %self, i64* align 8 dereferenceable(8) %other) unnamed_addr #0 !dbg !793 {
start:
  %other.dbg.spill = alloca i64*, align 8
  %self.dbg.spill = alloca i64*, align 8
  store i64* %self, i64** %self.dbg.spill, align 8
  call void @llvm.dbg.declare(metadata i64** %self.dbg.spill, metadata !799, metadata !DIExpression()), !dbg !801
  store i64* %other, i64** %other.dbg.spill, align 8
  call void @llvm.dbg.declare(metadata i64** %other.dbg.spill, metadata !800, metadata !DIExpression()), !dbg !802
  %_3 = load i64, i64* %self, align 8, !dbg !803
  %_4 = load i64, i64* %other, align 8, !dbg !804
  %0 = icmp eq i64 %_3, %_4, !dbg !803
  ret i1 %0, !dbg !805
}

; core::cmp::impls::<impl core::cmp::PartialEq for ()>::eq
; Function Attrs: inlinehint nounwind
define internal zeroext i1 @"_ZN4core3cmp5impls59_$LT$impl$u20$core..cmp..PartialEq$u20$for$u20$$LP$$RP$$GT$2eq17h216657b16310cb15E"({}* nonnull align 1 %self, {}* nonnull align 1 %_other) unnamed_addr #0 !dbg !806 {
start:
  %_other.dbg.spill = alloca {}*, align 8
  %self.dbg.spill = alloca {}*, align 8
  store {}* %self, {}** %self.dbg.spill, align 8
  call void @llvm.dbg.declare(metadata {}** %self.dbg.spill, metadata !811, metadata !DIExpression()), !dbg !813
  store {}* %_other, {}** %_other.dbg.spill, align 8
  call void @llvm.dbg.declare(metadata {}** %_other.dbg.spill, metadata !812, metadata !DIExpression()), !dbg !814
  ret i1 true, !dbg !815
}

; core::cmp::min_by
; Function Attrs: inlinehint nounwind
define i64 @_ZN4core3cmp6min_by17h4b82f4dc5dd9526aE(i64 %0, i64 %1) unnamed_addr #0 !dbg !816 {
start:
  %compare.dbg.spill = alloca {}, align 1
  %_13 = alloca i8, align 1
  %_12 = alloca i8, align 1
  %_6 = alloca { i64*, i64* }, align 8
  %_4 = alloca i8, align 1
  %2 = alloca i64, align 8
  %v2 = alloca i64, align 8
  %v1 = alloca i64, align 8
  store i64 %0, i64* %v1, align 8
  store i64 %1, i64* %v2, align 8
  call void @llvm.dbg.declare(metadata i64* %v1, metadata !821, metadata !DIExpression()), !dbg !826
  call void @llvm.dbg.declare(metadata i64* %v2, metadata !822, metadata !DIExpression()), !dbg !827
  call void @llvm.dbg.declare(metadata {}* %compare.dbg.spill, metadata !823, metadata !DIExpression()), !dbg !828
  store i8 0, i8* %_13, align 1, !dbg !829
  store i8 0, i8* %_12, align 1, !dbg !829
  store i8 1, i8* %_13, align 1, !dbg !829
  store i8 1, i8* %_12, align 1, !dbg !829
  %3 = bitcast { i64*, i64* }* %_6 to i64**, !dbg !829
  store i64* %v1, i64** %3, align 8, !dbg !829
  %4 = getelementptr inbounds { i64*, i64* }, { i64*, i64* }* %_6, i32 0, i32 1, !dbg !829
  store i64* %v2, i64** %4, align 8, !dbg !829
  %5 = getelementptr inbounds { i64*, i64* }, { i64*, i64* }* %_6, i32 0, i32 0, !dbg !829
  %6 = load i64*, i64** %5, align 8, !dbg !829, !nonnull !4
  %7 = getelementptr inbounds { i64*, i64* }, { i64*, i64* }* %_6, i32 0, i32 1, !dbg !829
  %8 = load i64*, i64** %7, align 8, !dbg !829, !nonnull !4
; call core::ops::function::FnOnce::call_once
  %9 = call i8 @_ZN4core3ops8function6FnOnce9call_once17h979905acc6cb2a3eE(i64* align 8 dereferenceable(8) %6, i64* align 8 dereferenceable(8) %8), !dbg !829, !range !789
  store i8 %9, i8* %_4, align 1, !dbg !829
  br label %bb1, !dbg !829

bb1:                                              ; preds = %start
  %10 = load i8, i8* %_4, align 1, !dbg !829, !range !789
  %_11 = sext i8 %10 to i64, !dbg !829
  switch i64 %_11, label %bb3 [
    i64 -1, label %bb4
    i64 0, label %bb4
    i64 1, label %bb2
  ], !dbg !830

bb3:                                              ; preds = %bb1
  unreachable, !dbg !829

bb4:                                              ; preds = %bb1, %bb1
  store i8 0, i8* %_13, align 1, !dbg !831
  %11 = load i64, i64* %v1, align 8, !dbg !831
  store i64 %11, i64* %2, align 8, !dbg !831
  br label %bb5, !dbg !831

bb2:                                              ; preds = %bb1
  store i8 0, i8* %_12, align 1, !dbg !832
  %12 = load i64, i64* %v2, align 8, !dbg !832
  store i64 %12, i64* %2, align 8, !dbg !832
  br label %bb5, !dbg !832

bb5:                                              ; preds = %bb4, %bb2
  %13 = load i8, i8* %_12, align 1, !dbg !833, !range !473
  %14 = trunc i8 %13 to i1, !dbg !833
  br i1 %14, label %bb8, label %bb6, !dbg !833

bb6:                                              ; preds = %bb8, %bb5
  %15 = load i8, i8* %_13, align 1, !dbg !833, !range !473
  %16 = trunc i8 %15 to i1, !dbg !833
  br i1 %16, label %bb9, label %bb7, !dbg !833

bb8:                                              ; preds = %bb5
  br label %bb6, !dbg !833

bb7:                                              ; preds = %bb9, %bb6
  %17 = load i64, i64* %2, align 8, !dbg !834
  ret i64 %17, !dbg !834

bb9:                                              ; preds = %bb6
  br label %bb7, !dbg !833
}

; core::fmt::ArgumentV1::new
; Function Attrs: nounwind
define { i8*, i64* } @_ZN4core3fmt10ArgumentV13new17hbbf14ee708d4269aE({ [0 x i8]*, i64 }* align 8 dereferenceable(16) %x, i1 ({ [0 x i8]*, i64 }*, %"core::fmt::Formatter"*)* nonnull %f) unnamed_addr #1 !dbg !835 {
start:
  %0 = alloca %"core::fmt::Opaque"*, align 8
  %1 = alloca i1 (%"core::fmt::Opaque"*, %"core::fmt::Formatter"*)*, align 8
  %f.dbg.spill = alloca i1 ({ [0 x i8]*, i64 }*, %"core::fmt::Formatter"*)*, align 8
  %x.dbg.spill = alloca { [0 x i8]*, i64 }*, align 8
  %2 = alloca { i8*, i64* }, align 8
  store { [0 x i8]*, i64 }* %x, { [0 x i8]*, i64 }** %x.dbg.spill, align 8
  call void @llvm.dbg.declare(metadata { [0 x i8]*, i64 }** %x.dbg.spill, metadata !840, metadata !DIExpression()), !dbg !842
  store i1 ({ [0 x i8]*, i64 }*, %"core::fmt::Formatter"*)* %f, i1 ({ [0 x i8]*, i64 }*, %"core::fmt::Formatter"*)** %f.dbg.spill, align 8
  call void @llvm.dbg.declare(metadata i1 ({ [0 x i8]*, i64 }*, %"core::fmt::Formatter"*)** %f.dbg.spill, metadata !841, metadata !DIExpression()), !dbg !843
  %3 = bitcast i1 ({ [0 x i8]*, i64 }*, %"core::fmt::Formatter"*)* %f to i1 (%"core::fmt::Opaque"*, %"core::fmt::Formatter"*)*, !dbg !844
  store i1 (%"core::fmt::Opaque"*, %"core::fmt::Formatter"*)* %3, i1 (%"core::fmt::Opaque"*, %"core::fmt::Formatter"*)** %1, align 8, !dbg !844
  %_3 = load i1 (%"core::fmt::Opaque"*, %"core::fmt::Formatter"*)*, i1 (%"core::fmt::Opaque"*, %"core::fmt::Formatter"*)** %1, align 8, !dbg !844, !nonnull !4
  br label %bb1, !dbg !844

bb1:                                              ; preds = %start
  %4 = bitcast { [0 x i8]*, i64 }* %x to %"core::fmt::Opaque"*, !dbg !845
  store %"core::fmt::Opaque"* %4, %"core::fmt::Opaque"** %0, align 8, !dbg !845
  %_5 = load %"core::fmt::Opaque"*, %"core::fmt::Opaque"** %0, align 8, !dbg !845, !nonnull !4
  br label %bb2, !dbg !845

bb2:                                              ; preds = %bb1
  %5 = bitcast { i8*, i64* }* %2 to %"core::fmt::Opaque"**, !dbg !846
  store %"core::fmt::Opaque"* %_5, %"core::fmt::Opaque"** %5, align 8, !dbg !846
  %6 = getelementptr inbounds { i8*, i64* }, { i8*, i64* }* %2, i32 0, i32 1, !dbg !846
  %7 = bitcast i64** %6 to i1 (%"core::fmt::Opaque"*, %"core::fmt::Formatter"*)**, !dbg !846
  store i1 (%"core::fmt::Opaque"*, %"core::fmt::Formatter"*)* %_3, i1 (%"core::fmt::Opaque"*, %"core::fmt::Formatter"*)** %7, align 8, !dbg !846
  %8 = getelementptr inbounds { i8*, i64* }, { i8*, i64* }* %2, i32 0, i32 0, !dbg !847
  %9 = load i8*, i8** %8, align 8, !dbg !847, !nonnull !4
  %10 = getelementptr inbounds { i8*, i64* }, { i8*, i64* }* %2, i32 0, i32 1, !dbg !847
  %11 = load i64*, i64** %10, align 8, !dbg !847, !nonnull !4
  %12 = insertvalue { i8*, i64* } undef, i8* %9, 0, !dbg !847
  %13 = insertvalue { i8*, i64* } %12, i64* %11, 1, !dbg !847
  ret { i8*, i64* } %13, !dbg !847
}

; core::fmt::num::<impl core::fmt::Debug for u32>::fmt
; Function Attrs: inlinehint nounwind
define internal zeroext i1 @"_ZN4core3fmt3num50_$LT$impl$u20$core..fmt..Debug$u20$for$u20$u32$GT$3fmt17h6eeddde733f9300fE"(i32* align 4 dereferenceable(4) %self, %"core::fmt::Formatter"* align 8 dereferenceable(64) %f) unnamed_addr #0 !dbg !848 {
start:
  %f.dbg.spill = alloca %"core::fmt::Formatter"*, align 8
  %self.dbg.spill = alloca i32*, align 8
  %0 = alloca i8, align 1
  store i32* %self, i32** %self.dbg.spill, align 8
  call void @llvm.dbg.declare(metadata i32** %self.dbg.spill, metadata !855, metadata !DIExpression()), !dbg !857
  store %"core::fmt::Formatter"* %f, %"core::fmt::Formatter"** %f.dbg.spill, align 8
  call void @llvm.dbg.declare(metadata %"core::fmt::Formatter"** %f.dbg.spill, metadata !856, metadata !DIExpression()), !dbg !858
; call core::fmt::Formatter::debug_lower_hex
  %_3 = call zeroext i1 @_ZN4core3fmt9Formatter15debug_lower_hex17h636482c5eb85995eE(%"core::fmt::Formatter"* align 8 dereferenceable(64) %f), !dbg !859
  br label %bb1, !dbg !859

bb1:                                              ; preds = %start
  br i1 %_3, label %bb2, label %bb4, !dbg !859

bb4:                                              ; preds = %bb1
; call core::fmt::Formatter::debug_upper_hex
  %_7 = call zeroext i1 @_ZN4core3fmt9Formatter15debug_upper_hex17habda22bb62de5f0bE(%"core::fmt::Formatter"* align 8 dereferenceable(64) %f), !dbg !860
  br label %bb5, !dbg !860

bb2:                                              ; preds = %bb1
; call core::fmt::num::<impl core::fmt::LowerHex for u32>::fmt
  %1 = call zeroext i1 @"_ZN4core3fmt3num53_$LT$impl$u20$core..fmt..LowerHex$u20$for$u20$u32$GT$3fmt17hcbe26ac0310a3924E"(i32* align 4 dereferenceable(4) %self, %"core::fmt::Formatter"* align 8 dereferenceable(64) %f), !dbg !861
  %2 = zext i1 %1 to i8, !dbg !861
  store i8 %2, i8* %0, align 1, !dbg !861
  br label %bb3, !dbg !861

bb3:                                              ; preds = %bb2
  br label %bb11, !dbg !862

bb11:                                             ; preds = %bb10, %bb3
  %3 = load i8, i8* %0, align 1, !dbg !863, !range !473
  %4 = trunc i8 %3 to i1, !dbg !863
  ret i1 %4, !dbg !863

bb5:                                              ; preds = %bb4
  br i1 %_7, label %bb6, label %bb8, !dbg !860

bb8:                                              ; preds = %bb5
; call core::fmt::num::imp::<impl core::fmt::Display for u32>::fmt
  %5 = call zeroext i1 @"_ZN4core3fmt3num3imp52_$LT$impl$u20$core..fmt..Display$u20$for$u20$u32$GT$3fmt17hd4b7d5bc12a471e8E"(i32* align 4 dereferenceable(4) %self, %"core::fmt::Formatter"* align 8 dereferenceable(64) %f), !dbg !864
  %6 = zext i1 %5 to i8, !dbg !864
  store i8 %6, i8* %0, align 1, !dbg !864
  br label %bb9, !dbg !864

bb6:                                              ; preds = %bb5
; call core::fmt::num::<impl core::fmt::UpperHex for u32>::fmt
  %7 = call zeroext i1 @"_ZN4core3fmt3num53_$LT$impl$u20$core..fmt..UpperHex$u20$for$u20$u32$GT$3fmt17he08b501005a636f1E"(i32* align 4 dereferenceable(4) %self, %"core::fmt::Formatter"* align 8 dereferenceable(64) %f), !dbg !865
  %8 = zext i1 %7 to i8, !dbg !865
  store i8 %8, i8* %0, align 1, !dbg !865
  br label %bb7, !dbg !865

bb7:                                              ; preds = %bb6
  br label %bb10, !dbg !866

bb10:                                             ; preds = %bb9, %bb7
  br label %bb11, !dbg !862

bb9:                                              ; preds = %bb8
  br label %bb10, !dbg !866
}

; core::fmt::Arguments::new_v1
; Function Attrs: inlinehint nounwind
define internal void @_ZN4core3fmt9Arguments6new_v117h10b71e7c3b4ffbafE(%"core::fmt::Arguments"* noalias nocapture sret(%"core::fmt::Arguments") dereferenceable(48) %0, [0 x { [0 x i8]*, i64 }]* nonnull align 8 %pieces.0, i64 %pieces.1, [0 x { i8*, i64* }]* nonnull align 8 %args.0, i64 %args.1) unnamed_addr #0 !dbg !867 {
start:
  %args.dbg.spill = alloca { [0 x { i8*, i64* }]*, i64 }, align 8
  %pieces.dbg.spill = alloca { [0 x { [0 x i8]*, i64 }]*, i64 }, align 8
  %_16 = alloca { i64*, i64 }, align 8
  %_3 = alloca i8, align 1
  %1 = getelementptr inbounds { [0 x { [0 x i8]*, i64 }]*, i64 }, { [0 x { [0 x i8]*, i64 }]*, i64 }* %pieces.dbg.spill, i32 0, i32 0
  store [0 x { [0 x i8]*, i64 }]* %pieces.0, [0 x { [0 x i8]*, i64 }]** %1, align 8
  %2 = getelementptr inbounds { [0 x { [0 x i8]*, i64 }]*, i64 }, { [0 x { [0 x i8]*, i64 }]*, i64 }* %pieces.dbg.spill, i32 0, i32 1
  store i64 %pieces.1, i64* %2, align 8
  call void @llvm.dbg.declare(metadata { [0 x { [0 x i8]*, i64 }]*, i64 }* %pieces.dbg.spill, metadata !871, metadata !DIExpression()), !dbg !873
  %3 = getelementptr inbounds { [0 x { i8*, i64* }]*, i64 }, { [0 x { i8*, i64* }]*, i64 }* %args.dbg.spill, i32 0, i32 0
  store [0 x { i8*, i64* }]* %args.0, [0 x { i8*, i64* }]** %3, align 8
  %4 = getelementptr inbounds { [0 x { i8*, i64* }]*, i64 }, { [0 x { i8*, i64* }]*, i64 }* %args.dbg.spill, i32 0, i32 1
  store i64 %args.1, i64* %4, align 8
  call void @llvm.dbg.declare(metadata { [0 x { i8*, i64* }]*, i64 }* %args.dbg.spill, metadata !872, metadata !DIExpression()), !dbg !874
  %_4 = icmp ult i64 %pieces.1, %args.1, !dbg !875
  br i1 %_4, label %bb1, label %bb2, !dbg !875

bb2:                                              ; preds = %start
  %_12 = add i64 %args.1, 1, !dbg !876
  %_9 = icmp ugt i64 %pieces.1, %_12, !dbg !877
  %5 = zext i1 %_9 to i8, !dbg !875
  store i8 %5, i8* %_3, align 1, !dbg !875
  br label %bb3, !dbg !875

bb1:                                              ; preds = %start
  store i8 1, i8* %_3, align 1, !dbg !875
  br label %bb3, !dbg !875

bb3:                                              ; preds = %bb2, %bb1
  %6 = load i8, i8* %_3, align 1, !dbg !875, !range !473
  %7 = trunc i8 %6 to i1, !dbg !875
  br i1 %7, label %bb4, label %bb5, !dbg !875

bb5:                                              ; preds = %bb3
  %8 = bitcast { i64*, i64 }* %_16 to {}**, !dbg !878
  store {}* null, {}** %8, align 8, !dbg !878
  %9 = bitcast %"core::fmt::Arguments"* %0 to { [0 x { [0 x i8]*, i64 }]*, i64 }*, !dbg !879
  %10 = getelementptr inbounds { [0 x { [0 x i8]*, i64 }]*, i64 }, { [0 x { [0 x i8]*, i64 }]*, i64 }* %9, i32 0, i32 0, !dbg !879
  store [0 x { [0 x i8]*, i64 }]* %pieces.0, [0 x { [0 x i8]*, i64 }]** %10, align 8, !dbg !879
  %11 = getelementptr inbounds { [0 x { [0 x i8]*, i64 }]*, i64 }, { [0 x { [0 x i8]*, i64 }]*, i64 }* %9, i32 0, i32 1, !dbg !879
  store i64 %pieces.1, i64* %11, align 8, !dbg !879
  %12 = getelementptr inbounds %"core::fmt::Arguments", %"core::fmt::Arguments"* %0, i32 0, i32 1, !dbg !879
  %13 = getelementptr inbounds { i64*, i64 }, { i64*, i64 }* %_16, i32 0, i32 0, !dbg !879
  %14 = load i64*, i64** %13, align 8, !dbg !879
  %15 = getelementptr inbounds { i64*, i64 }, { i64*, i64 }* %_16, i32 0, i32 1, !dbg !879
  %16 = load i64, i64* %15, align 8, !dbg !879
  %17 = getelementptr inbounds { i64*, i64 }, { i64*, i64 }* %12, i32 0, i32 0, !dbg !879
  store i64* %14, i64** %17, align 8, !dbg !879
  %18 = getelementptr inbounds { i64*, i64 }, { i64*, i64 }* %12, i32 0, i32 1, !dbg !879
  store i64 %16, i64* %18, align 8, !dbg !879
  %19 = getelementptr inbounds %"core::fmt::Arguments", %"core::fmt::Arguments"* %0, i32 0, i32 2, !dbg !879
  %20 = getelementptr inbounds { [0 x { i8*, i64* }]*, i64 }, { [0 x { i8*, i64* }]*, i64 }* %19, i32 0, i32 0, !dbg !879
  store [0 x { i8*, i64* }]* %args.0, [0 x { i8*, i64* }]** %20, align 8, !dbg !879
  %21 = getelementptr inbounds { [0 x { i8*, i64* }]*, i64 }, { [0 x { i8*, i64* }]*, i64 }* %19, i32 0, i32 1, !dbg !879
  store i64 %args.1, i64* %21, align 8, !dbg !879
  ret void, !dbg !880

bb4:                                              ; preds = %bb3
; call core::panicking::panic
  call void @_ZN4core9panicking5panic17h560e3e4b7752857aE([0 x i8]* nonnull align 1 bitcast (<{ [12 x i8] }>* @alloc342 to [0 x i8]*), i64 12, %"core::panic::Location"* align 8 dereferenceable(24) bitcast (<{ i8*, [16 x i8] }>* @alloc344 to %"core::panic::Location"*)), !dbg !881
  unreachable, !dbg !881
}

; core::mem::take
; Function Attrs: inlinehint nounwind
define { i64, i64 } @_ZN4core3mem4take17h8741cd25dbca93f3E({ i64, i64 }* align 8 dereferenceable(16) %dest) unnamed_addr #0 !dbg !882 {
start:
  %dest.dbg.spill = alloca { i64, i64 }*, align 8
  store { i64, i64 }* %dest, { i64, i64 }** %dest.dbg.spill, align 8
  call void @llvm.dbg.declare(metadata { i64, i64 }** %dest.dbg.spill, metadata !889, metadata !DIExpression()), !dbg !892
; call <core::option::Option<T> as core::default::Default>::default
  %0 = call { i64, i64 } @"_ZN72_$LT$core..option..Option$LT$T$GT$$u20$as$u20$core..default..Default$GT$7default17hf39e52b4f14f330bE"(), !dbg !893
  %_3.0 = extractvalue { i64, i64 } %0, 0, !dbg !893
  %_3.1 = extractvalue { i64, i64 } %0, 1, !dbg !893
  br label %bb1, !dbg !893

bb1:                                              ; preds = %start
; call core::mem::replace
  %1 = call { i64, i64 } @_ZN4core3mem7replace17haf9dafba3905bdb9E({ i64, i64 }* align 8 dereferenceable(16) %dest, i64 %_3.0, i64 %_3.1), !dbg !894
  %2 = extractvalue { i64, i64 } %1, 0, !dbg !894
  %3 = extractvalue { i64, i64 } %1, 1, !dbg !894
  br label %bb2, !dbg !894

bb2:                                              ; preds = %bb1
  %4 = insertvalue { i64, i64 } undef, i64 %2, 0, !dbg !895
  %5 = insertvalue { i64, i64 } %4, i64 %3, 1, !dbg !895
  ret { i64, i64 } %5, !dbg !895
}

; core::mem::replace
; Function Attrs: inlinehint nounwind
define { i64, i64 } @_ZN4core3mem7replace17haf9dafba3905bdb9E({ i64, i64 }* align 8 dereferenceable(16) %dest, i64 %src.0, i64 %src.1) unnamed_addr #0 !dbg !896 {
start:
  %result.dbg.spill = alloca { i64, i64 }, align 8
  %src.dbg.spill = alloca { i64, i64 }, align 8
  %dest.dbg.spill = alloca { i64, i64 }*, align 8
  store { i64, i64 }* %dest, { i64, i64 }** %dest.dbg.spill, align 8
  call void @llvm.dbg.declare(metadata { i64, i64 }** %dest.dbg.spill, metadata !900, metadata !DIExpression()), !dbg !904
  %0 = getelementptr inbounds { i64, i64 }, { i64, i64 }* %src.dbg.spill, i32 0, i32 0
  store i64 %src.0, i64* %0, align 8
  %1 = getelementptr inbounds { i64, i64 }, { i64, i64 }* %src.dbg.spill, i32 0, i32 1
  store i64 %src.1, i64* %1, align 8
  call void @llvm.dbg.declare(metadata { i64, i64 }* %src.dbg.spill, metadata !901, metadata !DIExpression()), !dbg !905
; call core::ptr::read
  %2 = call { i64, i64 } @_ZN4core3ptr4read17h3c82a25bede3d430E({ i64, i64 }* %dest), !dbg !906
  %result.0 = extractvalue { i64, i64 } %2, 0, !dbg !906
  %result.1 = extractvalue { i64, i64 } %2, 1, !dbg !906
  %3 = getelementptr inbounds { i64, i64 }, { i64, i64 }* %result.dbg.spill, i32 0, i32 0, !dbg !906
  store i64 %result.0, i64* %3, align 8, !dbg !906
  %4 = getelementptr inbounds { i64, i64 }, { i64, i64 }* %result.dbg.spill, i32 0, i32 1, !dbg !906
  store i64 %result.1, i64* %4, align 8, !dbg !906
  call void @llvm.dbg.declare(metadata { i64, i64 }* %result.dbg.spill, metadata !902, metadata !DIExpression()), !dbg !907
  br label %bb1, !dbg !906

bb1:                                              ; preds = %start
; call core::ptr::write
  call void @_ZN4core3ptr5write17h4b4166de2a3cc392E({ i64, i64 }* %dest, i64 %src.0, i64 %src.1), !dbg !908
  br label %bb2, !dbg !908

bb2:                                              ; preds = %bb1
  %5 = insertvalue { i64, i64 } undef, i64 %result.0, 0, !dbg !909
  %6 = insertvalue { i64, i64 } %5, i64 %result.1, 1, !dbg !909
  ret { i64, i64 } %6, !dbg !909
}

; core::ops::control_flow::ControlFlow<B,C>::break_value
; Function Attrs: inlinehint nounwind
define { i64, i64 } @"_ZN4core3ops12control_flow24ControlFlow$LT$B$C$C$GT$11break_value17hc3a29f2221021b84E"(i64 %0, i64 %1) unnamed_addr #0 !dbg !910 {
start:
  %x.dbg.spill = alloca i64, align 8
  %2 = alloca { i64, i64 }, align 8
  %self = alloca { i64, i64 }, align 8
  %3 = getelementptr inbounds { i64, i64 }, { i64, i64 }* %self, i32 0, i32 0
  store i64 %0, i64* %3, align 8
  %4 = getelementptr inbounds { i64, i64 }, { i64, i64 }* %self, i32 0, i32 1
  store i64 %1, i64* %4, align 8
  call void @llvm.dbg.declare(metadata { i64, i64 }* %self, metadata !914, metadata !DIExpression()), !dbg !917
  %5 = bitcast { i64, i64 }* %self to i64*, !dbg !918
  %_2 = load i64, i64* %5, align 8, !dbg !918, !range !510
  switch i64 %_2, label %bb2 [
    i64 0, label %bb3
    i64 1, label %bb1
  ], !dbg !919

bb2:                                              ; preds = %start
  unreachable, !dbg !918

bb3:                                              ; preds = %start
  %6 = bitcast { i64, i64 }* %2 to i64*, !dbg !920
  store i64 0, i64* %6, align 8, !dbg !920
  br label %bb6, !dbg !920

bb1:                                              ; preds = %start
  %7 = bitcast { i64, i64 }* %self to %"core::ops::ControlFlow<usize>::Break"*, !dbg !921
  %8 = getelementptr inbounds %"core::ops::ControlFlow<usize>::Break", %"core::ops::ControlFlow<usize>::Break"* %7, i32 0, i32 1, !dbg !921
  %x = load i64, i64* %8, align 8, !dbg !921
  store i64 %x, i64* %x.dbg.spill, align 8, !dbg !921
  call void @llvm.dbg.declare(metadata i64* %x.dbg.spill, metadata !915, metadata !DIExpression()), !dbg !922
  %9 = bitcast { i64, i64 }* %2 to %"core::option::Option<usize>::Some"*, !dbg !923
  %10 = getelementptr inbounds %"core::option::Option<usize>::Some", %"core::option::Option<usize>::Some"* %9, i32 0, i32 1, !dbg !923
  store i64 %x, i64* %10, align 8, !dbg !923
  %11 = bitcast { i64, i64 }* %2 to i64*, !dbg !923
  store i64 1, i64* %11, align 8, !dbg !923
  br label %bb6, !dbg !924

bb6:                                              ; preds = %bb3, %bb1
  %12 = bitcast { i64, i64 }* %self to i64*, !dbg !925
  %_5 = load i64, i64* %12, align 8, !dbg !925, !range !510
  %13 = icmp eq i64 %_5, 1, !dbg !925
  br i1 %13, label %bb4, label %bb5, !dbg !925

bb4:                                              ; preds = %bb5, %bb6
  %14 = getelementptr inbounds { i64, i64 }, { i64, i64 }* %2, i32 0, i32 0, !dbg !926
  %15 = load i64, i64* %14, align 8, !dbg !926, !range !510
  %16 = getelementptr inbounds { i64, i64 }, { i64, i64 }* %2, i32 0, i32 1, !dbg !926
  %17 = load i64, i64* %16, align 8, !dbg !926
  %18 = insertvalue { i64, i64 } undef, i64 %15, 0, !dbg !926
  %19 = insertvalue { i64, i64 } %18, i64 %17, 1, !dbg !926
  ret { i64, i64 } %19, !dbg !926

bb5:                                              ; preds = %bb6
  br label %bb4, !dbg !925
}

; core::ops::function::impls::<impl core::ops::function::FnMut<A> for &mut F>::call_mut
; Function Attrs: nounwind
define zeroext i1 @"_ZN4core3ops8function5impls79_$LT$impl$u20$core..ops..function..FnMut$LT$A$GT$$u20$for$u20$$RF$mut$u20$F$GT$8call_mut17h363eda8bb6d94066E"(%"[closure@/root/.cargo/registry/src/github.com-1ecc6299db9ec823/log-0.4.14/src/lib.rs:519:25: 519:40]"** align 8 dereferenceable(8) %self, i64* align 8 dereferenceable(8) %0) unnamed_addr #1 !dbg !927 {
start:
  %self.dbg.spill = alloca %"[closure@/root/.cargo/registry/src/github.com-1ecc6299db9ec823/log-0.4.14/src/lib.rs:519:25: 519:40]"**, align 8
  %args = alloca i64*, align 8
  store i64* %0, i64** %args, align 8
  store %"[closure@/root/.cargo/registry/src/github.com-1ecc6299db9ec823/log-0.4.14/src/lib.rs:519:25: 519:40]"** %self, %"[closure@/root/.cargo/registry/src/github.com-1ecc6299db9ec823/log-0.4.14/src/lib.rs:519:25: 519:40]"*** %self.dbg.spill, align 8
  call void @llvm.dbg.declare(metadata %"[closure@/root/.cargo/registry/src/github.com-1ecc6299db9ec823/log-0.4.14/src/lib.rs:519:25: 519:40]"*** %self.dbg.spill, metadata !937, metadata !DIExpression()), !dbg !945
  call void @llvm.dbg.declare(metadata i64** %args, metadata !938, metadata !DIExpression()), !dbg !946
  %_3 = load %"[closure@/root/.cargo/registry/src/github.com-1ecc6299db9ec823/log-0.4.14/src/lib.rs:519:25: 519:40]"*, %"[closure@/root/.cargo/registry/src/github.com-1ecc6299db9ec823/log-0.4.14/src/lib.rs:519:25: 519:40]"** %self, align 8, !dbg !947, !nonnull !4
  %_4 = load i64*, i64** %args, align 8, !dbg !948, !nonnull !4
; call <log::Level as core::str::traits::FromStr>::from_str::{{closure}}
  %1 = call zeroext i1 @"_ZN57_$LT$log..Level$u20$as$u20$core..str..traits..FromStr$GT$8from_str28_$u7b$$u7b$closure$u7d$$u7d$17h570b291589ffee07E"(%"[closure@/root/.cargo/registry/src/github.com-1ecc6299db9ec823/log-0.4.14/src/lib.rs:519:25: 519:40]"* nonnull align 1 %_3, i64* align 8 dereferenceable(8) %_4), !dbg !947
  br label %bb1, !dbg !947

bb1:                                              ; preds = %start
  ret i1 %1, !dbg !949
}

; core::ops::function::impls::<impl core::ops::function::FnOnce<A> for &mut F>::call_once
; Function Attrs: nounwind
define i64 @"_ZN4core3ops8function5impls80_$LT$impl$u20$core..ops..function..FnOnce$LT$A$GT$$u20$for$u20$$RF$mut$u20$F$GT$9call_once17haa2c311b93246535E"(%"[closure@/root/.cargo/registry/src/github.com-1ecc6299db9ec823/log-0.4.14/src/lib.rs:520:22: 520:59]"* nonnull align 1 %self, i64 %0) unnamed_addr #1 !dbg !950 {
start:
  %self.dbg.spill = alloca %"[closure@/root/.cargo/registry/src/github.com-1ecc6299db9ec823/log-0.4.14/src/lib.rs:520:22: 520:59]"*, align 8
  %args = alloca i64, align 8
  store i64 %0, i64* %args, align 8
  store %"[closure@/root/.cargo/registry/src/github.com-1ecc6299db9ec823/log-0.4.14/src/lib.rs:520:22: 520:59]"* %self, %"[closure@/root/.cargo/registry/src/github.com-1ecc6299db9ec823/log-0.4.14/src/lib.rs:520:22: 520:59]"** %self.dbg.spill, align 8
  call void @llvm.dbg.declare(metadata %"[closure@/root/.cargo/registry/src/github.com-1ecc6299db9ec823/log-0.4.14/src/lib.rs:520:22: 520:59]"** %self.dbg.spill, metadata !956, metadata !DIExpression()), !dbg !963
  call void @llvm.dbg.declare(metadata i64* %args, metadata !957, metadata !DIExpression()), !dbg !964
  %_4 = load i64, i64* %args, align 8, !dbg !965
; call <log::Level as core::str::traits::FromStr>::from_str::{{closure}}
  %1 = call i64 @"_ZN57_$LT$log..Level$u20$as$u20$core..str..traits..FromStr$GT$8from_str28_$u7b$$u7b$closure$u7d$$u7d$17hfa18eea1d2219e57E"(%"[closure@/root/.cargo/registry/src/github.com-1ecc6299db9ec823/log-0.4.14/src/lib.rs:520:22: 520:59]"* nonnull align 1 %self, i64 %_4), !dbg !966, !range !967
  br label %bb1, !dbg !966

bb1:                                              ; preds = %start
  ret i64 %1, !dbg !968
}

; core::ops::function::FnOnce::call_once
; Function Attrs: inlinehint nounwind
define internal void @_ZN4core3ops8function6FnOnce9call_once17h85eca909b47b830cE(%MaybeStaticStr* noalias nocapture sret(%MaybeStaticStr) dereferenceable(24) %0, [0 x i8]* nonnull align 1 %1, i64 %2) unnamed_addr #0 !dbg !969 {
start:
  %_1.dbg.spill = alloca {}, align 1
  %_2 = alloca { i8*, i64 }, align 8
  %3 = bitcast { i8*, i64 }* %_2 to { [0 x i8]*, i64 }*
  %4 = getelementptr inbounds { [0 x i8]*, i64 }, { [0 x i8]*, i64 }* %3, i32 0, i32 0
  store [0 x i8]* %1, [0 x i8]** %4, align 8
  %5 = getelementptr inbounds { [0 x i8]*, i64 }, { [0 x i8]*, i64 }* %3, i32 0, i32 1
  store i64 %2, i64* %5, align 8
  call void @llvm.dbg.declare(metadata {}* %_1.dbg.spill, metadata !977, metadata !DIExpression()), !dbg !985
  call void @llvm.dbg.declare(metadata { i8*, i64 }* %_2, metadata !978, metadata !DIExpression()), !dbg !985
  %6 = bitcast { i8*, i64 }* %_2 to { [0 x i8]*, i64 }*, !dbg !985
  %7 = getelementptr inbounds { [0 x i8]*, i64 }, { [0 x i8]*, i64 }* %6, i32 0, i32 0, !dbg !985
  %8 = load [0 x i8]*, [0 x i8]** %7, align 8, !dbg !985, !nonnull !4
  %9 = getelementptr inbounds { [0 x i8]*, i64 }, { [0 x i8]*, i64 }* %6, i32 0, i32 1, !dbg !985
  %10 = load i64, i64* %9, align 8, !dbg !985
; call log::MaybeStaticStr::Static
  call void @_ZN3log14MaybeStaticStr6Static17h1540e3a3862cfae3E(%MaybeStaticStr* noalias nocapture sret(%MaybeStaticStr) dereferenceable(24) %0, [0 x i8]* nonnull align 1 %8, i64 %10), !dbg !985
  br label %bb1, !dbg !985

bb1:                                              ; preds = %start
  ret void, !dbg !985
}

; core::ops::function::FnOnce::call_once
; Function Attrs: inlinehint nounwind
define internal i8 @_ZN4core3ops8function6FnOnce9call_once17h979905acc6cb2a3eE(i64* align 8 dereferenceable(8) %0, i64* align 8 dereferenceable(8) %1) unnamed_addr #0 !dbg !986 {
start:
  %_1.dbg.spill = alloca {}, align 1
  %_2 = alloca { i64*, i64* }, align 8
  %2 = bitcast { i64*, i64* }* %_2 to i64**
  store i64* %0, i64** %2, align 8
  %3 = getelementptr inbounds { i64*, i64* }, { i64*, i64* }* %_2, i32 0, i32 1
  store i64* %1, i64** %3, align 8
  call void @llvm.dbg.declare(metadata {}* %_1.dbg.spill, metadata !990, metadata !DIExpression()), !dbg !999
  call void @llvm.dbg.declare(metadata { i64*, i64* }* %_2, metadata !991, metadata !DIExpression()), !dbg !999
  %4 = bitcast { i64*, i64* }* %_2 to i64**, !dbg !999
  %5 = load i64*, i64** %4, align 8, !dbg !999, !nonnull !4
  %6 = getelementptr inbounds { i64*, i64* }, { i64*, i64* }* %_2, i32 0, i32 1, !dbg !999
  %7 = load i64*, i64** %6, align 8, !dbg !999, !nonnull !4
; call core::cmp::impls::<impl core::cmp::Ord for usize>::cmp
  %8 = call i8 @"_ZN4core3cmp5impls50_$LT$impl$u20$core..cmp..Ord$u20$for$u20$usize$GT$3cmp17he041e500177e4528E"(i64* align 8 dereferenceable(8) %5, i64* align 8 dereferenceable(8) %7), !dbg !999, !range !789
  br label %bb1, !dbg !999

bb1:                                              ; preds = %start
  ret i8 %8, !dbg !999
}

; core::ptr::drop_in_place<&u32>
; Function Attrs: inlinehint nounwind
define internal void @"_ZN4core3ptr28drop_in_place$LT$$RF$u32$GT$17h77ba1b6a43bb00f0E"(i32** %_1) unnamed_addr #0 !dbg !1000 {
start:
  %_1.dbg.spill = alloca i32**, align 8
  store i32** %_1, i32*** %_1.dbg.spill, align 8
  call void @llvm.dbg.declare(metadata i32*** %_1.dbg.spill, metadata !1006, metadata !DIExpression()), !dbg !1009
  ret void, !dbg !1009
}

; core::ptr::drop_in_place<&&str>
; Function Attrs: inlinehint nounwind
define internal void @"_ZN4core3ptr32drop_in_place$LT$$RF$$RF$str$GT$17h5ce3faff736c18baE"({ [0 x i8]*, i64 }** %_1) unnamed_addr #0 !dbg !1010 {
start:
  %_1.dbg.spill = alloca { [0 x i8]*, i64 }**, align 8
  store { [0 x i8]*, i64 }** %_1, { [0 x i8]*, i64 }*** %_1.dbg.spill, align 8
  call void @llvm.dbg.declare(metadata { [0 x i8]*, i64 }*** %_1.dbg.spill, metadata !1015, metadata !DIExpression()), !dbg !1018
  ret void, !dbg !1018
}

; core::ptr::drop_in_place<&()>
; Function Attrs: inlinehint nounwind
define internal void @"_ZN4core3ptr33drop_in_place$LT$$RF$$LP$$RP$$GT$17hb861f9cb69992e39E"({}** %_1) unnamed_addr #0 !dbg !1019 {
start:
  %_1.dbg.spill = alloca {}**, align 8
  store {}** %_1, {}*** %_1.dbg.spill, align 8
  call void @llvm.dbg.declare(metadata {}*** %_1.dbg.spill, metadata !1024, metadata !DIExpression()), !dbg !1027
  ret void, !dbg !1027
}

; core::ptr::drop_in_place<&log::Level>
; Function Attrs: inlinehint nounwind
define internal void @"_ZN4core3ptr35drop_in_place$LT$$RF$log..Level$GT$17haf6b142852490c0aE"(i64** %_1) unnamed_addr #0 !dbg !1028 {
start:
  %_1.dbg.spill = alloca i64**, align 8
  store i64** %_1, i64*** %_1.dbg.spill, align 8
  call void @llvm.dbg.declare(metadata i64*** %_1.dbg.spill, metadata !1033, metadata !DIExpression()), !dbg !1036
  ret void, !dbg !1036
}

; core::ptr::drop_in_place<log::NopLogger>
; Function Attrs: inlinehint nounwind
define internal void @"_ZN4core3ptr35drop_in_place$LT$log..NopLogger$GT$17h4fbe04658748a5c8E"(%NopLogger* %_1) unnamed_addr #0 !dbg !1037 {
start:
  %_1.dbg.spill = alloca %NopLogger*, align 8
  store %NopLogger* %_1, %NopLogger** %_1.dbg.spill, align 8
  call void @llvm.dbg.declare(metadata %NopLogger** %_1.dbg.spill, metadata !1042, metadata !DIExpression()), !dbg !1045
  ret void, !dbg !1045
}

; core::ptr::drop_in_place<&log::Record>
; Function Attrs: inlinehint nounwind
define internal void @"_ZN4core3ptr36drop_in_place$LT$$RF$log..Record$GT$17h41c3cd38ee414bb3E"(%Record** %_1) unnamed_addr #0 !dbg !1046 {
start:
  %_1.dbg.spill = alloca %Record**, align 8
  store %Record** %_1, %Record*** %_1.dbg.spill, align 8
  call void @llvm.dbg.declare(metadata %Record*** %_1.dbg.spill, metadata !1051, metadata !DIExpression()), !dbg !1054
  ret void, !dbg !1054
}

; core::ptr::drop_in_place<&log::Metadata>
; Function Attrs: inlinehint nounwind
define internal void @"_ZN4core3ptr38drop_in_place$LT$$RF$log..Metadata$GT$17hbd5115a913fcd6f9E"(%Metadata** %_1) unnamed_addr #0 !dbg !1055 {
start:
  %_1.dbg.spill = alloca %Metadata**, align 8
  store %Metadata** %_1, %Metadata*** %_1.dbg.spill, align 8
  call void @llvm.dbg.declare(metadata %Metadata*** %_1.dbg.spill, metadata !1060, metadata !DIExpression()), !dbg !1063
  ret void, !dbg !1063
}

; core::ptr::drop_in_place<&log::MaybeStaticStr>
; Function Attrs: inlinehint nounwind
define internal void @"_ZN4core3ptr44drop_in_place$LT$$RF$log..MaybeStaticStr$GT$17h9b8e61e8517d26a7E"(%MaybeStaticStr** %_1) unnamed_addr #0 !dbg !1064 {
start:
  %_1.dbg.spill = alloca %MaybeStaticStr**, align 8
  store %MaybeStaticStr** %_1, %MaybeStaticStr*** %_1.dbg.spill, align 8
  call void @llvm.dbg.declare(metadata %MaybeStaticStr*** %_1.dbg.spill, metadata !1069, metadata !DIExpression()), !dbg !1072
  ret void, !dbg !1072
}

; core::ptr::drop_in_place<&core::fmt::Arguments>
; Function Attrs: inlinehint nounwind
define internal void @"_ZN4core3ptr45drop_in_place$LT$$RF$core..fmt..Arguments$GT$17ha9463481404d24d6E"(%"core::fmt::Arguments"** %_1) unnamed_addr #0 !dbg !1073 {
start:
  %_1.dbg.spill = alloca %"core::fmt::Arguments"**, align 8
  store %"core::fmt::Arguments"** %_1, %"core::fmt::Arguments"*** %_1.dbg.spill, align 8
  call void @llvm.dbg.declare(metadata %"core::fmt::Arguments"*** %_1.dbg.spill, metadata !1078, metadata !DIExpression()), !dbg !1081
  ret void, !dbg !1081
}

; core::ptr::read
; Function Attrs: inlinehint nounwind
define { i64, i64 } @_ZN4core3ptr4read17h3c82a25bede3d430E({ i64, i64 }* %src) unnamed_addr #0 !dbg !1082 {
start:
  %self.dbg.spill.i1 = alloca { i64, i64 }*, align 8
  %slot.dbg.spill.i.i = alloca { i64, i64 }, align 8
  %self.dbg.spill.i = alloca { i64, i64 }, align 8
  %0 = alloca { i64, i64 }, align 8
  %src.dbg.spill = alloca { i64, i64 }*, align 8
  %tmp = alloca { i64, i64 }, align 8
  store { i64, i64 }* %src, { i64, i64 }** %src.dbg.spill, align 8
  call void @llvm.dbg.declare(metadata { i64, i64 }** %src.dbg.spill, metadata !1087, metadata !DIExpression()), !dbg !1099
  call void @llvm.dbg.declare(metadata { i64, i64 }* %tmp, metadata !1088, metadata !DIExpression()), !dbg !1100
  %1 = bitcast { i64, i64 }* %0 to {}*, !dbg !1101
  %2 = getelementptr inbounds { i64, i64 }, { i64, i64 }* %0, i32 0, i32 0, !dbg !1107
  %3 = load i64, i64* %2, align 8, !dbg !1107
  %4 = getelementptr inbounds { i64, i64 }, { i64, i64 }* %0, i32 0, i32 1, !dbg !1107
  %5 = load i64, i64* %4, align 8, !dbg !1107
  %6 = insertvalue { i64, i64 } undef, i64 %3, 0, !dbg !1107
  %7 = insertvalue { i64, i64 } %6, i64 %5, 1, !dbg !1107
  store { i64, i64 } %7, { i64, i64 }* %tmp, align 8, !dbg !1108
  br label %bb1, !dbg !1108

bb1:                                              ; preds = %start
  store { i64, i64 }* %tmp, { i64, i64 }** %self.dbg.spill.i1, align 8
  call void @llvm.dbg.declare(metadata { i64, i64 }** %self.dbg.spill.i1, metadata !1109, metadata !DIExpression()), !dbg !1116
  br label %bb2, !dbg !1118

bb2:                                              ; preds = %bb1
  %8 = bitcast { i64, i64 }* %tmp to i8*, !dbg !1119
  %9 = bitcast { i64, i64 }* %src to i8*, !dbg !1119
  call void @llvm.memcpy.p0i8.p0i8.i64(i8* align 8 %8, i8* align 8 %9, i64 16, i1 false), !dbg !1119
  %10 = getelementptr inbounds { i64, i64 }, { i64, i64 }* %tmp, i32 0, i32 0, !dbg !1120
  %_6.0 = load i64, i64* %10, align 8, !dbg !1120
  %11 = getelementptr inbounds { i64, i64 }, { i64, i64 }* %tmp, i32 0, i32 1, !dbg !1120
  %_6.1 = load i64, i64* %11, align 8, !dbg !1120
  %12 = getelementptr inbounds { i64, i64 }, { i64, i64 }* %self.dbg.spill.i, i32 0, i32 0
  store i64 %_6.0, i64* %12, align 8
  %13 = getelementptr inbounds { i64, i64 }, { i64, i64 }* %self.dbg.spill.i, i32 0, i32 1
  store i64 %_6.1, i64* %13, align 8
  call void @llvm.dbg.declare(metadata { i64, i64 }* %self.dbg.spill.i, metadata !1121, metadata !DIExpression()), !dbg !1134
  %14 = getelementptr inbounds { i64, i64 }, { i64, i64 }* %slot.dbg.spill.i.i, i32 0, i32 0
  store i64 %_6.0, i64* %14, align 8
  %15 = getelementptr inbounds { i64, i64 }, { i64, i64 }* %slot.dbg.spill.i.i, i32 0, i32 1
  store i64 %_6.1, i64* %15, align 8
  call void @llvm.dbg.declare(metadata { i64, i64 }* %slot.dbg.spill.i.i, metadata !1136, metadata !DIExpression()), !dbg !1142
  %16 = insertvalue { i64, i64 } undef, i64 %_6.0, 0, !dbg !1144
  %17 = insertvalue { i64, i64 } %16, i64 %_6.1, 1, !dbg !1144
  %18 = insertvalue { i64, i64 } undef, i64 %_6.0, 0, !dbg !1145
  %19 = insertvalue { i64, i64 } %18, i64 %_6.1, 1, !dbg !1145
  %20 = extractvalue { i64, i64 } %19, 0, !dbg !1120
  %21 = extractvalue { i64, i64 } %19, 1, !dbg !1120
  br label %bb3, !dbg !1120

bb3:                                              ; preds = %bb2
  %22 = insertvalue { i64, i64 } undef, i64 %20, 0, !dbg !1146
  %23 = insertvalue { i64, i64 } %22, i64 %21, 1, !dbg !1146
  ret { i64, i64 } %23, !dbg !1146
}

; core::ptr::drop_in_place<&core::option::Option<u32>>
; Function Attrs: inlinehint nounwind
define internal void @"_ZN4core3ptr56drop_in_place$LT$$RF$core..option..Option$LT$u32$GT$$GT$17hf2c316eacd23bfdeE"({ i32, i32 }** %_1) unnamed_addr #0 !dbg !1147 {
start:
  %_1.dbg.spill = alloca { i32, i32 }**, align 8
  store { i32, i32 }** %_1, { i32, i32 }*** %_1.dbg.spill, align 8
  call void @llvm.dbg.declare(metadata { i32, i32 }*** %_1.dbg.spill, metadata !1152, metadata !DIExpression()), !dbg !1155
  ret void, !dbg !1155
}

; core::ptr::write
; Function Attrs: inlinehint nounwind
define void @_ZN4core3ptr5write17h4b4166de2a3cc392E({ i64, i64 }* %dst, i64 %0, i64 %1) unnamed_addr #0 !dbg !1156 {
start:
  %dst.dbg.spill = alloca { i64, i64 }*, align 8
  %src = alloca { i64, i64 }, align 8
  %2 = getelementptr inbounds { i64, i64 }, { i64, i64 }* %src, i32 0, i32 0
  store i64 %0, i64* %2, align 8
  %3 = getelementptr inbounds { i64, i64 }, { i64, i64 }* %src, i32 0, i32 1
  store i64 %1, i64* %3, align 8
  store { i64, i64 }* %dst, { i64, i64 }** %dst.dbg.spill, align 8
  call void @llvm.dbg.declare(metadata { i64, i64 }** %dst.dbg.spill, metadata !1160, metadata !DIExpression()), !dbg !1162
  call void @llvm.dbg.declare(metadata { i64, i64 }* %src, metadata !1161, metadata !DIExpression()), !dbg !1163
  %4 = bitcast { i64, i64 }* %dst to i8*, !dbg !1164
  %5 = bitcast { i64, i64 }* %src to i8*, !dbg !1164
  call void @llvm.memcpy.p0i8.p0i8.i64(i8* align 8 %4, i8* align 8 %5, i64 16, i1 false), !dbg !1164
  ret void, !dbg !1165
}

; core::ptr::drop_in_place<&core::option::Option<log::MaybeStaticStr>>
; Function Attrs: inlinehint nounwind
define internal void @"_ZN4core3ptr72drop_in_place$LT$$RF$core..option..Option$LT$log..MaybeStaticStr$GT$$GT$17h2dd425414bf12ef2E"(%"core::option::Option<MaybeStaticStr>"** %_1) unnamed_addr #0 !dbg !1166 {
start:
  %_1.dbg.spill = alloca %"core::option::Option<MaybeStaticStr>"**, align 8
  store %"core::option::Option<MaybeStaticStr>"** %_1, %"core::option::Option<MaybeStaticStr>"*** %_1.dbg.spill, align 8
  call void @llvm.dbg.declare(metadata %"core::option::Option<MaybeStaticStr>"*** %_1.dbg.spill, metadata !1171, metadata !DIExpression()), !dbg !1174
  ret void, !dbg !1174
}

; core::ptr::mut_ptr::<impl *mut T>::guaranteed_eq
; Function Attrs: inlinehint nounwind
define zeroext i1 @"_ZN4core3ptr7mut_ptr31_$LT$impl$u20$$BP$mut$u20$T$GT$13guaranteed_eq17h646f7d05c6b47d07E"(i8* %self, i8* %other) unnamed_addr #0 !dbg !1175 {
start:
  %0 = alloca i8, align 1
  %other.dbg.spill = alloca i8*, align 8
  %self.dbg.spill = alloca i8*, align 8
  store i8* %self, i8** %self.dbg.spill, align 8
  call void @llvm.dbg.declare(metadata i8** %self.dbg.spill, metadata !1182, metadata !DIExpression()), !dbg !1184
  store i8* %other, i8** %other.dbg.spill, align 8
  call void @llvm.dbg.declare(metadata i8** %other.dbg.spill, metadata !1183, metadata !DIExpression()), !dbg !1185
  %1 = icmp eq i8* %self, %other, !dbg !1186
  %2 = zext i1 %1 to i8, !dbg !1186
  store i8 %2, i8* %0, align 1, !dbg !1186
  %3 = load i8, i8* %0, align 1, !dbg !1186, !range !473
  %4 = trunc i8 %3 to i1, !dbg !1186
  br label %bb1, !dbg !1186

bb1:                                              ; preds = %start
  ret i1 %4, !dbg !1187
}

; core::ptr::mut_ptr::<impl *mut T>::is_null
; Function Attrs: inlinehint nounwind
define zeroext i1 @"_ZN4core3ptr7mut_ptr31_$LT$impl$u20$$BP$mut$u20$T$GT$7is_null17h4d0dda8ac6b25c7dE"({ [0 x i8]*, i64 }* %self) unnamed_addr #0 !dbg !1188 {
start:
  %self.dbg.spill = alloca { [0 x i8]*, i64 }*, align 8
  store { [0 x i8]*, i64 }* %self, { [0 x i8]*, i64 }** %self.dbg.spill, align 8
  call void @llvm.dbg.declare(metadata { [0 x i8]*, i64 }** %self.dbg.spill, metadata !1193, metadata !DIExpression()), !dbg !1194
  %_2 = bitcast { [0 x i8]*, i64 }* %self to i8*, !dbg !1195
  br label %bb1, !dbg !1196

bb1:                                              ; preds = %start
; call core::ptr::mut_ptr::<impl *mut T>::guaranteed_eq
  %0 = call zeroext i1 @"_ZN4core3ptr7mut_ptr31_$LT$impl$u20$$BP$mut$u20$T$GT$13guaranteed_eq17h646f7d05c6b47d07E"(i8* %_2, i8* null), !dbg !1195
  br label %bb2, !dbg !1195

bb2:                                              ; preds = %bb1
  ret i1 %0, !dbg !1197
}

; core::ptr::non_null::NonNull<T>::new_unchecked
; Function Attrs: inlinehint nounwind
define nonnull i64* @"_ZN4core3ptr8non_null16NonNull$LT$T$GT$13new_unchecked17h363b9aa771cbed47E"({ [0 x i8]*, i64 }* %ptr) unnamed_addr #0 !dbg !1198 {
start:
  %ptr.dbg.spill = alloca { [0 x i8]*, i64 }*, align 8
  %0 = alloca i64*, align 8
  store { [0 x i8]*, i64 }* %ptr, { [0 x i8]*, i64 }** %ptr.dbg.spill, align 8
  call void @llvm.dbg.declare(metadata { [0 x i8]*, i64 }** %ptr.dbg.spill, metadata !1206, metadata !DIExpression()), !dbg !1207
  %1 = bitcast i64** %0 to { [0 x i8]*, i64 }**, !dbg !1208
  store { [0 x i8]*, i64 }* %ptr, { [0 x i8]*, i64 }** %1, align 8, !dbg !1208
  %2 = load i64*, i64** %0, align 8, !dbg !1209, !nonnull !4
  ret i64* %2, !dbg !1209
}

; core::ptr::non_null::NonNull<T>::new_unchecked
; Function Attrs: inlinehint nounwind
define nonnull i8* @"_ZN4core3ptr8non_null16NonNull$LT$T$GT$13new_unchecked17h4dc771f164818da4E"(i8* %ptr) unnamed_addr #0 !dbg !1210 {
start:
  %ptr.dbg.spill = alloca i8*, align 8
  %0 = alloca i8*, align 8
  store i8* %ptr, i8** %ptr.dbg.spill, align 8
  call void @llvm.dbg.declare(metadata i8** %ptr.dbg.spill, metadata !1214, metadata !DIExpression()), !dbg !1215
  store i8* %ptr, i8** %0, align 8, !dbg !1216
  %1 = load i8*, i8** %0, align 8, !dbg !1217, !nonnull !4
  ret i8* %1, !dbg !1217
}

; core::ptr::non_null::NonNull<T>::as_ptr
; Function Attrs: inlinehint nounwind
define { [0 x i8]*, i64 }* @"_ZN4core3ptr8non_null16NonNull$LT$T$GT$6as_ptr17h6840c2b1e583d24dE"(i64* nonnull %self) unnamed_addr #0 !dbg !1218 {
start:
  %self.dbg.spill = alloca i64*, align 8
  store i64* %self, i64** %self.dbg.spill, align 8
  call void @llvm.dbg.declare(metadata i64** %self.dbg.spill, metadata !1222, metadata !DIExpression()), !dbg !1223
  %_2 = bitcast i64* %self to { [0 x i8]*, i64 }*, !dbg !1224
  ret { [0 x i8]*, i64 }* %_2, !dbg !1225
}

; core::ptr::non_null::NonNull<T>::as_ptr
; Function Attrs: inlinehint nounwind
define i8* @"_ZN4core3ptr8non_null16NonNull$LT$T$GT$6as_ptr17h693be9d1aa38e18cE"(i8* nonnull %self) unnamed_addr #0 !dbg !1226 {
start:
  %self.dbg.spill = alloca i8*, align 8
  store i8* %self, i8** %self.dbg.spill, align 8
  call void @llvm.dbg.declare(metadata i8** %self.dbg.spill, metadata !1230, metadata !DIExpression()), !dbg !1231
  ret i8* %self, !dbg !1232
}

; core::ptr::const_ptr::<impl *const T>::guaranteed_eq
; Function Attrs: inlinehint nounwind
define zeroext i1 @"_ZN4core3ptr9const_ptr33_$LT$impl$u20$$BP$const$u20$T$GT$13guaranteed_eq17h2a1608ae53c34db6E"(i8* %self, i8* %other) unnamed_addr #0 !dbg !1233 {
start:
  %0 = alloca i8, align 1
  %other.dbg.spill = alloca i8*, align 8
  %self.dbg.spill = alloca i8*, align 8
  store i8* %self, i8** %self.dbg.spill, align 8
  call void @llvm.dbg.declare(metadata i8** %self.dbg.spill, metadata !1240, metadata !DIExpression()), !dbg !1242
  store i8* %other, i8** %other.dbg.spill, align 8
  call void @llvm.dbg.declare(metadata i8** %other.dbg.spill, metadata !1241, metadata !DIExpression()), !dbg !1243
  %1 = icmp eq i8* %self, %other, !dbg !1244
  %2 = zext i1 %1 to i8, !dbg !1244
  store i8 %2, i8* %0, align 1, !dbg !1244
  %3 = load i8, i8* %0, align 1, !dbg !1244, !range !473
  %4 = trunc i8 %3 to i1, !dbg !1244
  br label %bb1, !dbg !1244

bb1:                                              ; preds = %start
  ret i1 %4, !dbg !1245
}

; core::ptr::const_ptr::<impl *const T>::is_null
; Function Attrs: inlinehint nounwind
define zeroext i1 @"_ZN4core3ptr9const_ptr33_$LT$impl$u20$$BP$const$u20$T$GT$7is_null17h113522e86b98d089E"({ [0 x i8]*, i64 }* %self) unnamed_addr #0 !dbg !1246 {
start:
  %self.dbg.spill = alloca { [0 x i8]*, i64 }*, align 8
  store { [0 x i8]*, i64 }* %self, { [0 x i8]*, i64 }** %self.dbg.spill, align 8
  call void @llvm.dbg.declare(metadata { [0 x i8]*, i64 }** %self.dbg.spill, metadata !1250, metadata !DIExpression()), !dbg !1251
  %_2 = bitcast { [0 x i8]*, i64 }* %self to i8*, !dbg !1252
  br label %bb1, !dbg !1253

bb1:                                              ; preds = %start
; call core::ptr::const_ptr::<impl *const T>::guaranteed_eq
  %0 = call zeroext i1 @"_ZN4core3ptr9const_ptr33_$LT$impl$u20$$BP$const$u20$T$GT$13guaranteed_eq17h2a1608ae53c34db6E"(i8* %_2, i8* null), !dbg !1252
  br label %bb2, !dbg !1252

bb2:                                              ; preds = %bb1
  ret i1 %0, !dbg !1254
}

; core::ptr::const_ptr::<impl *const T>::is_null
; Function Attrs: inlinehint nounwind
define zeroext i1 @"_ZN4core3ptr9const_ptr33_$LT$impl$u20$$BP$const$u20$T$GT$7is_null17hf2eeacbe18ac206aE"(i8* %self) unnamed_addr #0 !dbg !1255 {
start:
  %self.dbg.spill = alloca i8*, align 8
  store i8* %self, i8** %self.dbg.spill, align 8
  call void @llvm.dbg.declare(metadata i8** %self.dbg.spill, metadata !1259, metadata !DIExpression()), !dbg !1260
  br label %bb1, !dbg !1261

bb1:                                              ; preds = %start
; call core::ptr::const_ptr::<impl *const T>::guaranteed_eq
  %0 = call zeroext i1 @"_ZN4core3ptr9const_ptr33_$LT$impl$u20$$BP$const$u20$T$GT$13guaranteed_eq17h2a1608ae53c34db6E"(i8* %self, i8* null), !dbg !1262
  br label %bb2, !dbg !1262

bb2:                                              ; preds = %bb1
  ret i1 %0, !dbg !1263
}

; core::str::<impl str>::len
; Function Attrs: inlinehint nounwind
define internal i64 @"_ZN4core3str21_$LT$impl$u20$str$GT$3len17h0900bd344bb57c6fE"([0 x i8]* nonnull align 1 %self.0, i64 %self.1) unnamed_addr #0 !dbg !1264 {
start:
  %0 = alloca { [0 x i8]*, i64 }, align 8
  %self.dbg.spill.i = alloca { [0 x i8]*, i64 }, align 8
  %self.dbg.spill = alloca { [0 x i8]*, i64 }, align 8
  %1 = getelementptr inbounds { [0 x i8]*, i64 }, { [0 x i8]*, i64 }* %self.dbg.spill, i32 0, i32 0
  store [0 x i8]* %self.0, [0 x i8]** %1, align 8
  %2 = getelementptr inbounds { [0 x i8]*, i64 }, { [0 x i8]*, i64 }* %self.dbg.spill, i32 0, i32 1
  store i64 %self.1, i64* %2, align 8
  call void @llvm.dbg.declare(metadata { [0 x i8]*, i64 }* %self.dbg.spill, metadata !1270, metadata !DIExpression()), !dbg !1271
  %3 = getelementptr inbounds { [0 x i8]*, i64 }, { [0 x i8]*, i64 }* %self.dbg.spill.i, i32 0, i32 0
  store [0 x i8]* %self.0, [0 x i8]** %3, align 8
  %4 = getelementptr inbounds { [0 x i8]*, i64 }, { [0 x i8]*, i64 }* %self.dbg.spill.i, i32 0, i32 1
  store i64 %self.1, i64* %4, align 8
  call void @llvm.dbg.declare(metadata { [0 x i8]*, i64 }* %self.dbg.spill.i, metadata !1272, metadata !DIExpression()), !dbg !1281
  %5 = getelementptr inbounds { [0 x i8]*, i64 }, { [0 x i8]*, i64 }* %0, i32 0, i32 0, !dbg !1283
  store [0 x i8]* %self.0, [0 x i8]** %5, align 8, !dbg !1283
  %6 = getelementptr inbounds { [0 x i8]*, i64 }, { [0 x i8]*, i64 }* %0, i32 0, i32 1, !dbg !1283
  store i64 %self.1, i64* %6, align 8, !dbg !1283
  %7 = getelementptr inbounds { [0 x i8]*, i64 }, { [0 x i8]*, i64 }* %0, i32 0, i32 0, !dbg !1283
  %8 = load [0 x i8]*, [0 x i8]** %7, align 8, !dbg !1283, !nonnull !4
  %9 = getelementptr inbounds { [0 x i8]*, i64 }, { [0 x i8]*, i64 }* %0, i32 0, i32 1, !dbg !1283
  %10 = load i64, i64* %9, align 8, !dbg !1283
  %11 = insertvalue { [0 x i8]*, i64 } undef, [0 x i8]* %8, 0, !dbg !1284
  %12 = insertvalue { [0 x i8]*, i64 } %11, i64 %10, 1, !dbg !1284
  %_3.0 = extractvalue { [0 x i8]*, i64 } %12, 0, !dbg !1285
  %_3.1 = extractvalue { [0 x i8]*, i64 } %12, 1, !dbg !1285
  br label %bb1, !dbg !1285

bb1:                                              ; preds = %start
  ret i64 %_3.1, !dbg !1286
}

; core::str::<impl str>::bytes
; Function Attrs: inlinehint nounwind
define internal { i8*, i8* } @"_ZN4core3str21_$LT$impl$u20$str$GT$5bytes17h4cfe5a4d68101661E"([0 x i8]* nonnull align 1 %self.0, i64 %self.1) unnamed_addr #0 !dbg !1287 {
start:
  %0 = alloca { [0 x i8]*, i64 }, align 8
  %self.dbg.spill.i = alloca { [0 x i8]*, i64 }, align 8
  %self.dbg.spill = alloca { [0 x i8]*, i64 }, align 8
  %1 = alloca { i8*, i8* }, align 8
  %2 = getelementptr inbounds { [0 x i8]*, i64 }, { [0 x i8]*, i64 }* %self.dbg.spill, i32 0, i32 0
  store [0 x i8]* %self.0, [0 x i8]** %2, align 8
  %3 = getelementptr inbounds { [0 x i8]*, i64 }, { [0 x i8]*, i64 }* %self.dbg.spill, i32 0, i32 1
  store i64 %self.1, i64* %3, align 8
  call void @llvm.dbg.declare(metadata { [0 x i8]*, i64 }* %self.dbg.spill, metadata !1291, metadata !DIExpression()), !dbg !1292
  %4 = getelementptr inbounds { [0 x i8]*, i64 }, { [0 x i8]*, i64 }* %self.dbg.spill.i, i32 0, i32 0
  store [0 x i8]* %self.0, [0 x i8]** %4, align 8
  %5 = getelementptr inbounds { [0 x i8]*, i64 }, { [0 x i8]*, i64 }* %self.dbg.spill.i, i32 0, i32 1
  store i64 %self.1, i64* %5, align 8
  call void @llvm.dbg.declare(metadata { [0 x i8]*, i64 }* %self.dbg.spill.i, metadata !1272, metadata !DIExpression()), !dbg !1293
  %6 = getelementptr inbounds { [0 x i8]*, i64 }, { [0 x i8]*, i64 }* %0, i32 0, i32 0, !dbg !1295
  store [0 x i8]* %self.0, [0 x i8]** %6, align 8, !dbg !1295
  %7 = getelementptr inbounds { [0 x i8]*, i64 }, { [0 x i8]*, i64 }* %0, i32 0, i32 1, !dbg !1295
  store i64 %self.1, i64* %7, align 8, !dbg !1295
  %8 = getelementptr inbounds { [0 x i8]*, i64 }, { [0 x i8]*, i64 }* %0, i32 0, i32 0, !dbg !1295
  %9 = load [0 x i8]*, [0 x i8]** %8, align 8, !dbg !1295, !nonnull !4
  %10 = getelementptr inbounds { [0 x i8]*, i64 }, { [0 x i8]*, i64 }* %0, i32 0, i32 1, !dbg !1295
  %11 = load i64, i64* %10, align 8, !dbg !1295
  %12 = insertvalue { [0 x i8]*, i64 } undef, [0 x i8]* %9, 0, !dbg !1296
  %13 = insertvalue { [0 x i8]*, i64 } %12, i64 %11, 1, !dbg !1296
  %_5.0 = extractvalue { [0 x i8]*, i64 } %13, 0, !dbg !1297
  %_5.1 = extractvalue { [0 x i8]*, i64 } %13, 1, !dbg !1297
  br label %bb1, !dbg !1297

bb1:                                              ; preds = %start
; call core::slice::<impl [T]>::iter
  %14 = call { i8*, i8* } @"_ZN4core5slice29_$LT$impl$u20$$u5b$T$u5d$$GT$4iter17h0b5e5ff6e1736f79E"([0 x i8]* nonnull align 1 %_5.0, i64 %_5.1), !dbg !1297
  %_3.0 = extractvalue { i8*, i8* } %14, 0, !dbg !1297
  %_3.1 = extractvalue { i8*, i8* } %14, 1, !dbg !1297
  br label %bb2, !dbg !1297

bb2:                                              ; preds = %bb1
; call core::iter::traits::iterator::Iterator::copied
  %15 = call { i8*, i8* } @_ZN4core4iter6traits8iterator8Iterator6copied17hac823e9fbab04735E(i8* nonnull %_3.0, i8* %_3.1), !dbg !1297
  %_2.0 = extractvalue { i8*, i8* } %15, 0, !dbg !1297
  %_2.1 = extractvalue { i8*, i8* } %15, 1, !dbg !1297
  br label %bb3, !dbg !1297

bb3:                                              ; preds = %bb2
  %16 = getelementptr inbounds { i8*, i8* }, { i8*, i8* }* %1, i32 0, i32 0, !dbg !1298
  store i8* %_2.0, i8** %16, align 8, !dbg !1298
  %17 = getelementptr inbounds { i8*, i8* }, { i8*, i8* }* %1, i32 0, i32 1, !dbg !1298
  store i8* %_2.1, i8** %17, align 8, !dbg !1298
  %18 = getelementptr inbounds { i8*, i8* }, { i8*, i8* }* %1, i32 0, i32 0, !dbg !1299
  %19 = load i8*, i8** %18, align 8, !dbg !1299, !nonnull !4
  %20 = getelementptr inbounds { i8*, i8* }, { i8*, i8* }* %1, i32 0, i32 1, !dbg !1299
  %21 = load i8*, i8** %20, align 8, !dbg !1299
  %22 = insertvalue { i8*, i8* } undef, i8* %19, 0, !dbg !1299
  %23 = insertvalue { i8*, i8* } %22, i8* %21, 1, !dbg !1299
  ret { i8*, i8* } %23, !dbg !1299
}

; core::hint::spin_loop
; Function Attrs: inlinehint nounwind
define internal void @_ZN4core4hint9spin_loop17h8f9297827c77aab5E() unnamed_addr #0 !dbg !1300 {
start:
  ret void, !dbg !1305
}

; core::iter::traits::iterator::Iterator::all
; Function Attrs: inlinehint nounwind
define zeroext i1 @_ZN4core4iter6traits8iterator8Iterator3all17h38b5cdcedef29836E(%"core::iter::Zip<core::str::Bytes, core::str::Bytes>"* align 8 dereferenceable(56) %self) unnamed_addr #0 !dbg !1306 {
start:
  %f.dbg.spill = alloca %"[closure@/root/.cargo/registry/src/github.com-1ecc6299db9ec823/log-0.4.14/src/lib.rs:505:18: 505:73]", align 1
  %self.dbg.spill = alloca %"core::iter::Zip<core::str::Bytes, core::str::Bytes>"*, align 8
  %_4 = alloca i8, align 1
  store %"core::iter::Zip<core::str::Bytes, core::str::Bytes>"* %self, %"core::iter::Zip<core::str::Bytes, core::str::Bytes>"** %self.dbg.spill, align 8
  call void @llvm.dbg.declare(metadata %"core::iter::Zip<core::str::Bytes, core::str::Bytes>"** %self.dbg.spill, metadata !1316, metadata !DIExpression()), !dbg !1321
  call void @llvm.dbg.declare(metadata %"[closure@/root/.cargo/registry/src/github.com-1ecc6299db9ec823/log-0.4.14/src/lib.rs:505:18: 505:73]"* %f.dbg.spill, metadata !1317, metadata !DIExpression()), !dbg !1322
; call core::iter::traits::iterator::Iterator::all::check
  call void @_ZN4core4iter6traits8iterator8Iterator3all5check17h9dccf31a703fcdfcE(), !dbg !1323
  br label %bb1, !dbg !1323

bb1:                                              ; preds = %start
; call core::iter::traits::iterator::Iterator::try_fold
  %0 = call zeroext i1 @_ZN4core4iter6traits8iterator8Iterator8try_fold17h35c4bd95da483bcbE(%"core::iter::Zip<core::str::Bytes, core::str::Bytes>"* align 8 dereferenceable(56) %self), !dbg !1324
  %1 = zext i1 %0 to i8, !dbg !1324
  store i8 %1, i8* %_4, align 1, !dbg !1324
  br label %bb2, !dbg !1324

bb2:                                              ; preds = %bb1
; call <core::ops::control_flow::ControlFlow<B,C> as core::cmp::PartialEq>::eq
  %2 = call zeroext i1 @"_ZN90_$LT$core..ops..control_flow..ControlFlow$LT$B$C$C$GT$$u20$as$u20$core..cmp..PartialEq$GT$2eq17h8ee704728160a1f5E"(i8* align 1 dereferenceable(1) %_4, i8* align 1 dereferenceable(1) getelementptr inbounds (<{ [1 x i8] }>, <{ [1 x i8] }>* @alloc210, i32 0, i32 0, i32 0)), !dbg !1324
  br label %bb3, !dbg !1324

bb3:                                              ; preds = %bb2
  ret i1 %2, !dbg !1325
}

; core::iter::traits::iterator::Iterator::all::check
; Function Attrs: inlinehint nounwind
define void @_ZN4core4iter6traits8iterator8Iterator3all5check17h9dccf31a703fcdfcE() unnamed_addr #0 !dbg !1326 {
start:
  %f.dbg.spill = alloca %"[closure@/root/.cargo/registry/src/github.com-1ecc6299db9ec823/log-0.4.14/src/lib.rs:505:18: 505:73]", align 1
  %0 = alloca %"[closure@core::iter::Iterator::all::check<(u8, u8), [closure@/root/.cargo/registry/src/github.com-1ecc6299db9ec823/log-0.4.14/src/lib.rs:505:18: 505:73]>::{closure#0}]", align 1
  call void @llvm.dbg.declare(metadata %"[closure@/root/.cargo/registry/src/github.com-1ecc6299db9ec823/log-0.4.14/src/lib.rs:505:18: 505:73]"* %f.dbg.spill, metadata !1331, metadata !DIExpression()), !dbg !1334
  %1 = bitcast %"[closure@core::iter::Iterator::all::check<(u8, u8), [closure@/root/.cargo/registry/src/github.com-1ecc6299db9ec823/log-0.4.14/src/lib.rs:505:18: 505:73]>::{closure#0}]"* %0 to %"[closure@/root/.cargo/registry/src/github.com-1ecc6299db9ec823/log-0.4.14/src/lib.rs:505:18: 505:73]"*, !dbg !1335
  ret void, !dbg !1336
}

; core::iter::traits::iterator::Iterator::all::check::{{closure}}
; Function Attrs: inlinehint nounwind
define zeroext i1 @"_ZN4core4iter6traits8iterator8Iterator3all5check28_$u7b$$u7b$closure$u7d$$u7d$17h36c38e5f84eade41E"(%"[closure@core::iter::Iterator::all::check<(u8, u8), [closure@/root/.cargo/registry/src/github.com-1ecc6299db9ec823/log-0.4.14/src/lib.rs:505:18: 505:73]>::{closure#0}]"* nonnull align 1 %_1, i8 %x.0, i8 %x.1) unnamed_addr #0 !dbg !1337 {
start:
  %x.dbg.spill = alloca { i8, i8 }, align 1
  %_2.dbg.spill = alloca {}, align 1
  %_1.dbg.spill = alloca %"[closure@core::iter::Iterator::all::check<(u8, u8), [closure@/root/.cargo/registry/src/github.com-1ecc6299db9ec823/log-0.4.14/src/lib.rs:505:18: 505:73]>::{closure#0}]"*, align 8
  %_6 = alloca { i8, i8 }, align 1
  %0 = alloca i8, align 1
  store %"[closure@core::iter::Iterator::all::check<(u8, u8), [closure@/root/.cargo/registry/src/github.com-1ecc6299db9ec823/log-0.4.14/src/lib.rs:505:18: 505:73]>::{closure#0}]"* %_1, %"[closure@core::iter::Iterator::all::check<(u8, u8), [closure@/root/.cargo/registry/src/github.com-1ecc6299db9ec823/log-0.4.14/src/lib.rs:505:18: 505:73]>::{closure#0}]"** %_1.dbg.spill, align 8
  %1 = load %"[closure@core::iter::Iterator::all::check<(u8, u8), [closure@/root/.cargo/registry/src/github.com-1ecc6299db9ec823/log-0.4.14/src/lib.rs:505:18: 505:73]>::{closure#0}]"*, %"[closure@core::iter::Iterator::all::check<(u8, u8), [closure@/root/.cargo/registry/src/github.com-1ecc6299db9ec823/log-0.4.14/src/lib.rs:505:18: 505:73]>::{closure#0}]"** %_1.dbg.spill, align 8, !nonnull !4
  %2 = bitcast %"[closure@core::iter::Iterator::all::check<(u8, u8), [closure@/root/.cargo/registry/src/github.com-1ecc6299db9ec823/log-0.4.14/src/lib.rs:505:18: 505:73]>::{closure#0}]"* %1 to %"[closure@/root/.cargo/registry/src/github.com-1ecc6299db9ec823/log-0.4.14/src/lib.rs:505:18: 505:73]"*
  call void @llvm.dbg.declare(metadata %"[closure@core::iter::Iterator::all::check<(u8, u8), [closure@/root/.cargo/registry/src/github.com-1ecc6299db9ec823/log-0.4.14/src/lib.rs:505:18: 505:73]>::{closure#0}]"** %_1.dbg.spill, metadata !1347, metadata !DIExpression(DW_OP_deref)), !dbg !1349
  call void @llvm.dbg.declare(metadata {}* %_2.dbg.spill, metadata !1348, metadata !DIExpression()), !dbg !1350
  %3 = getelementptr inbounds { i8, i8 }, { i8, i8 }* %x.dbg.spill, i32 0, i32 0
  store i8 %x.0, i8* %3, align 1
  %4 = getelementptr inbounds { i8, i8 }, { i8, i8 }* %x.dbg.spill, i32 0, i32 1
  store i8 %x.1, i8* %4, align 1
  call void @llvm.dbg.declare(metadata { i8, i8 }* %x.dbg.spill, metadata !1346, metadata !DIExpression()), !dbg !1351
  %_5 = bitcast %"[closure@core::iter::Iterator::all::check<(u8, u8), [closure@/root/.cargo/registry/src/github.com-1ecc6299db9ec823/log-0.4.14/src/lib.rs:505:18: 505:73]>::{closure#0}]"* %_1 to %"[closure@/root/.cargo/registry/src/github.com-1ecc6299db9ec823/log-0.4.14/src/lib.rs:505:18: 505:73]"*, !dbg !1352
  %5 = getelementptr inbounds { i8, i8 }, { i8, i8 }* %_6, i32 0, i32 0, !dbg !1352
  store i8 %x.0, i8* %5, align 1, !dbg !1352
  %6 = getelementptr inbounds { i8, i8 }, { i8, i8 }* %_6, i32 0, i32 1, !dbg !1352
  store i8 %x.1, i8* %6, align 1, !dbg !1352
  %7 = getelementptr inbounds { i8, i8 }, { i8, i8 }* %_6, i32 0, i32 0, !dbg !1352
  %8 = load i8, i8* %7, align 1, !dbg !1352
  %9 = getelementptr inbounds { i8, i8 }, { i8, i8 }* %_6, i32 0, i32 1, !dbg !1352
  %10 = load i8, i8* %9, align 1, !dbg !1352
; call log::eq_ignore_ascii_case::{{closure}}
  %_4 = call zeroext i1 @"_ZN3log20eq_ignore_ascii_case28_$u7b$$u7b$closure$u7d$$u7d$17h3a6de137ddce4f34E"(%"[closure@/root/.cargo/registry/src/github.com-1ecc6299db9ec823/log-0.4.14/src/lib.rs:505:18: 505:73]"* nonnull align 1 %_5, i8 %8, i8 %10), !dbg !1352
  br label %bb1, !dbg !1352

bb1:                                              ; preds = %start
  br i1 %_4, label %bb2, label %bb3, !dbg !1352

bb3:                                              ; preds = %bb1
  store i8 1, i8* %0, align 1, !dbg !1353
  br label %bb4, !dbg !1354

bb2:                                              ; preds = %bb1
  store i8 0, i8* %0, align 1, !dbg !1355
  br label %bb4, !dbg !1354

bb4:                                              ; preds = %bb3, %bb2
  %11 = load i8, i8* %0, align 1, !dbg !1356, !range !473
  %12 = trunc i8 %11 to i1, !dbg !1356
  ret i1 %12, !dbg !1356
}

; core::iter::traits::iterator::Iterator::map
; Function Attrs: inlinehint nounwind
define { i64, i64 } @_ZN4core4iter6traits8iterator8Iterator3map17h8e39235e73e53c3bE(i64 %self.0, i64 %self.1) unnamed_addr #0 !dbg !1357 {
start:
  %f.dbg.spill = alloca %"[closure@/root/.cargo/registry/src/github.com-1ecc6299db9ec823/log-0.4.14/src/lib.rs:520:22: 520:59]", align 1
  %self.dbg.spill = alloca { i64, i64 }, align 8
  %0 = getelementptr inbounds { i64, i64 }, { i64, i64 }* %self.dbg.spill, i32 0, i32 0
  store i64 %self.0, i64* %0, align 8
  %1 = getelementptr inbounds { i64, i64 }, { i64, i64 }* %self.dbg.spill, i32 0, i32 1
  store i64 %self.1, i64* %1, align 8
  call void @llvm.dbg.declare(metadata { i64, i64 }* %self.dbg.spill, metadata !1361, metadata !DIExpression()), !dbg !1365
  call void @llvm.dbg.declare(metadata %"[closure@/root/.cargo/registry/src/github.com-1ecc6299db9ec823/log-0.4.14/src/lib.rs:520:22: 520:59]"* %f.dbg.spill, metadata !1362, metadata !DIExpression()), !dbg !1366
; call core::iter::adapters::map::Map<I,F>::new
  %2 = call { i64, i64 } @"_ZN4core4iter8adapters3map16Map$LT$I$C$F$GT$3new17h68a33820593df772E"(i64 %self.0, i64 %self.1), !dbg !1367
  %3 = extractvalue { i64, i64 } %2, 0, !dbg !1367
  %4 = extractvalue { i64, i64 } %2, 1, !dbg !1367
  br label %bb1, !dbg !1367

bb1:                                              ; preds = %start
  %5 = insertvalue { i64, i64 } undef, i64 %3, 0, !dbg !1368
  %6 = insertvalue { i64, i64 } %5, i64 %4, 1, !dbg !1368
  ret { i64, i64 } %6, !dbg !1368
}

; core::iter::traits::iterator::Iterator::zip
; Function Attrs: inlinehint nounwind
define void @_ZN4core4iter6traits8iterator8Iterator3zip17h49b9b57e125b73b3E(%"core::iter::Zip<core::str::Bytes, core::str::Bytes>"* noalias nocapture sret(%"core::iter::Zip<core::str::Bytes, core::str::Bytes>") dereferenceable(56) %0, i8* nonnull %self.0, i8* %self.1, i8* nonnull %other.0, i8* %other.1) unnamed_addr #0 !dbg !1369 {
start:
  %other.dbg.spill = alloca { i8*, i8* }, align 8
  %self.dbg.spill = alloca { i8*, i8* }, align 8
  %1 = getelementptr inbounds { i8*, i8* }, { i8*, i8* }* %self.dbg.spill, i32 0, i32 0
  store i8* %self.0, i8** %1, align 8
  %2 = getelementptr inbounds { i8*, i8* }, { i8*, i8* }* %self.dbg.spill, i32 0, i32 1
  store i8* %self.1, i8** %2, align 8
  call void @llvm.dbg.declare(metadata { i8*, i8* }* %self.dbg.spill, metadata !1371, metadata !DIExpression()), !dbg !1376
  %3 = getelementptr inbounds { i8*, i8* }, { i8*, i8* }* %other.dbg.spill, i32 0, i32 0
  store i8* %other.0, i8** %3, align 8
  %4 = getelementptr inbounds { i8*, i8* }, { i8*, i8* }* %other.dbg.spill, i32 0, i32 1
  store i8* %other.1, i8** %4, align 8
  call void @llvm.dbg.declare(metadata { i8*, i8* }* %other.dbg.spill, metadata !1372, metadata !DIExpression()), !dbg !1377
; call <I as core::iter::traits::collect::IntoIterator>::into_iter
  %5 = call { i8*, i8* } @"_ZN63_$LT$I$u20$as$u20$core..iter..traits..collect..IntoIterator$GT$9into_iter17hd5f3c09e85b99246E"(i8* nonnull %other.0, i8* %other.1), !dbg !1378
  %_4.0 = extractvalue { i8*, i8* } %5, 0, !dbg !1378
  %_4.1 = extractvalue { i8*, i8* } %5, 1, !dbg !1378
  br label %bb1, !dbg !1378

bb1:                                              ; preds = %start
; call core::iter::adapters::zip::Zip<A,B>::new
  call void @"_ZN4core4iter8adapters3zip16Zip$LT$A$C$B$GT$3new17h48cf91d364ecd37eE"(%"core::iter::Zip<core::str::Bytes, core::str::Bytes>"* noalias nocapture sret(%"core::iter::Zip<core::str::Bytes, core::str::Bytes>") dereferenceable(56) %0, i8* nonnull %self.0, i8* %self.1, i8* nonnull %_4.0, i8* %_4.1), !dbg !1379
  br label %bb2, !dbg !1379

bb2:                                              ; preds = %bb1
  ret void, !dbg !1380
}

; core::iter::traits::iterator::Iterator::find
; Function Attrs: inlinehint nounwind
define { i64, i64 } @_ZN4core4iter6traits8iterator8Iterator4find17hadad5320b1b4b0d0E({ i64, i64 }* align 8 dereferenceable(16) %self, %"[closure@/root/.cargo/registry/src/github.com-1ecc6299db9ec823/log-0.4.14/src/lib.rs:519:25: 519:40]"* nonnull align 1 %predicate) unnamed_addr #0 !dbg !1381 {
start:
  %predicate.dbg.spill = alloca %"[closure@/root/.cargo/registry/src/github.com-1ecc6299db9ec823/log-0.4.14/src/lib.rs:519:25: 519:40]"*, align 8
  %self.dbg.spill = alloca { i64, i64 }*, align 8
  store { i64, i64 }* %self, { i64, i64 }** %self.dbg.spill, align 8
  call void @llvm.dbg.declare(metadata { i64, i64 }** %self.dbg.spill, metadata !1386, metadata !DIExpression()), !dbg !1391
  store %"[closure@/root/.cargo/registry/src/github.com-1ecc6299db9ec823/log-0.4.14/src/lib.rs:519:25: 519:40]"* %predicate, %"[closure@/root/.cargo/registry/src/github.com-1ecc6299db9ec823/log-0.4.14/src/lib.rs:519:25: 519:40]"** %predicate.dbg.spill, align 8
  call void @llvm.dbg.declare(metadata %"[closure@/root/.cargo/registry/src/github.com-1ecc6299db9ec823/log-0.4.14/src/lib.rs:519:25: 519:40]"** %predicate.dbg.spill, metadata !1387, metadata !DIExpression()), !dbg !1392
; call core::iter::traits::iterator::Iterator::find::check
  %_6 = call nonnull align 1 i8* @_ZN4core4iter6traits8iterator8Iterator4find5check17h1f6a3848140f57dfE(%"[closure@/root/.cargo/registry/src/github.com-1ecc6299db9ec823/log-0.4.14/src/lib.rs:519:25: 519:40]"* nonnull align 1 %predicate), !dbg !1393
  br label %bb1, !dbg !1393

bb1:                                              ; preds = %start
; call core::iter::traits::iterator::Iterator::try_fold
  %0 = call { i64, i64 } @_ZN4core4iter6traits8iterator8Iterator8try_fold17h4f508f62b0f086cdE({ i64, i64 }* align 8 dereferenceable(16) %self, i8* nonnull align 1 %_6), !dbg !1394
  %_3.0 = extractvalue { i64, i64 } %0, 0, !dbg !1394
  %_3.1 = extractvalue { i64, i64 } %0, 1, !dbg !1394
  br label %bb2, !dbg !1394

bb2:                                              ; preds = %bb1
; call core::ops::control_flow::ControlFlow<B,C>::break_value
  %1 = call { i64, i64 } @"_ZN4core3ops12control_flow24ControlFlow$LT$B$C$C$GT$11break_value17hc3a29f2221021b84E"(i64 %_3.0, i64 %_3.1), !dbg !1394
  %2 = extractvalue { i64, i64 } %1, 0, !dbg !1394
  %3 = extractvalue { i64, i64 } %1, 1, !dbg !1394
  br label %bb3, !dbg !1394

bb3:                                              ; preds = %bb2
  %4 = insertvalue { i64, i64 } undef, i64 %2, 0, !dbg !1395
  %5 = insertvalue { i64, i64 } %4, i64 %3, 1, !dbg !1395
  ret { i64, i64 } %5, !dbg !1395
}

; core::iter::traits::iterator::Iterator::find::check
; Function Attrs: inlinehint nounwind
define nonnull align 1 i8* @_ZN4core4iter6traits8iterator8Iterator4find5check17h1f6a3848140f57dfE(%"[closure@/root/.cargo/registry/src/github.com-1ecc6299db9ec823/log-0.4.14/src/lib.rs:519:25: 519:40]"* nonnull align 1 %predicate) unnamed_addr #0 !dbg !1396 {
start:
  %predicate.dbg.spill = alloca %"[closure@/root/.cargo/registry/src/github.com-1ecc6299db9ec823/log-0.4.14/src/lib.rs:519:25: 519:40]"*, align 8
  %0 = alloca i8*, align 8
  store %"[closure@/root/.cargo/registry/src/github.com-1ecc6299db9ec823/log-0.4.14/src/lib.rs:519:25: 519:40]"* %predicate, %"[closure@/root/.cargo/registry/src/github.com-1ecc6299db9ec823/log-0.4.14/src/lib.rs:519:25: 519:40]"** %predicate.dbg.spill, align 8
  call void @llvm.dbg.declare(metadata %"[closure@/root/.cargo/registry/src/github.com-1ecc6299db9ec823/log-0.4.14/src/lib.rs:519:25: 519:40]"** %predicate.dbg.spill, metadata !1405, metadata !DIExpression()), !dbg !1408
  %1 = bitcast i8** %0 to %"[closure@/root/.cargo/registry/src/github.com-1ecc6299db9ec823/log-0.4.14/src/lib.rs:519:25: 519:40]"**, !dbg !1409
  store %"[closure@/root/.cargo/registry/src/github.com-1ecc6299db9ec823/log-0.4.14/src/lib.rs:519:25: 519:40]"* %predicate, %"[closure@/root/.cargo/registry/src/github.com-1ecc6299db9ec823/log-0.4.14/src/lib.rs:519:25: 519:40]"** %1, align 8, !dbg !1409
  %2 = load i8*, i8** %0, align 8, !dbg !1410, !nonnull !4
  ret i8* %2, !dbg !1410
}

; core::iter::traits::iterator::Iterator::find::check::{{closure}}
; Function Attrs: inlinehint nounwind
define { i64, i64 } @"_ZN4core4iter6traits8iterator8Iterator4find5check28_$u7b$$u7b$closure$u7d$$u7d$17hdf3cce251265a8dcE"(i8** align 8 dereferenceable(8) %_1, i64 %0) unnamed_addr #0 !dbg !1411 {
start:
  %_2.dbg.spill = alloca {}, align 1
  %_1.dbg.spill = alloca i8**, align 8
  %_10 = alloca i8, align 1
  %_6 = alloca i64*, align 8
  %1 = alloca { i64, i64 }, align 8
  %x = alloca i64, align 8
  store i64 %0, i64* %x, align 8
  store i8** %_1, i8*** %_1.dbg.spill, align 8
  %2 = load i8**, i8*** %_1.dbg.spill, align 8, !nonnull !4
  %3 = bitcast i8** %2 to %"[closure@/root/.cargo/registry/src/github.com-1ecc6299db9ec823/log-0.4.14/src/lib.rs:519:25: 519:40]"**
  call void @llvm.dbg.declare(metadata i8*** %_1.dbg.spill, metadata !1417, metadata !DIExpression(DW_OP_deref)), !dbg !1419
  call void @llvm.dbg.declare(metadata {}* %_2.dbg.spill, metadata !1418, metadata !DIExpression()), !dbg !1420
  call void @llvm.dbg.declare(metadata i64* %x, metadata !1416, metadata !DIExpression()), !dbg !1421
  store i8 0, i8* %_10, align 1, !dbg !1422
  store i8 1, i8* %_10, align 1, !dbg !1422
  %_5 = bitcast i8** %_1 to %"[closure@/root/.cargo/registry/src/github.com-1ecc6299db9ec823/log-0.4.14/src/lib.rs:519:25: 519:40]"**, !dbg !1422
  store i64* %x, i64** %_6, align 8, !dbg !1422
  %4 = load i64*, i64** %_6, align 8, !dbg !1422, !nonnull !4
; call core::ops::function::impls::<impl core::ops::function::FnMut<A> for &mut F>::call_mut
  %_4 = call zeroext i1 @"_ZN4core3ops8function5impls79_$LT$impl$u20$core..ops..function..FnMut$LT$A$GT$$u20$for$u20$$RF$mut$u20$F$GT$8call_mut17h363eda8bb6d94066E"(%"[closure@/root/.cargo/registry/src/github.com-1ecc6299db9ec823/log-0.4.14/src/lib.rs:519:25: 519:40]"** align 8 dereferenceable(8) %_5, i64* align 8 dereferenceable(8) %4), !dbg !1422
  br label %bb1, !dbg !1422

bb1:                                              ; preds = %start
  br i1 %_4, label %bb2, label %bb3, !dbg !1422

bb3:                                              ; preds = %bb1
  %5 = load i64, i64* getelementptr inbounds ({ i64, i64 }, { i64, i64 }* bitcast (<{ [16 x i8] }>* @0 to { i64, i64 }*), i32 0, i32 0), align 8, !dbg !1423, !range !510
  %6 = load i64, i64* getelementptr inbounds ({ i64, i64 }, { i64, i64 }* bitcast (<{ [16 x i8] }>* @0 to { i64, i64 }*), i32 0, i32 1), align 8, !dbg !1423
  %7 = getelementptr inbounds { i64, i64 }, { i64, i64 }* %1, i32 0, i32 0, !dbg !1423
  store i64 %5, i64* %7, align 8, !dbg !1423
  %8 = getelementptr inbounds { i64, i64 }, { i64, i64 }* %1, i32 0, i32 1, !dbg !1423
  store i64 %6, i64* %8, align 8, !dbg !1423
  br label %bb4, !dbg !1424

bb2:                                              ; preds = %bb1
  store i8 0, i8* %_10, align 1, !dbg !1425
  %_9 = load i64, i64* %x, align 8, !dbg !1425
  %9 = bitcast { i64, i64 }* %1 to %"core::ops::ControlFlow<usize>::Break"*, !dbg !1426
  %10 = getelementptr inbounds %"core::ops::ControlFlow<usize>::Break", %"core::ops::ControlFlow<usize>::Break"* %9, i32 0, i32 1, !dbg !1426
  store i64 %_9, i64* %10, align 8, !dbg !1426
  %11 = bitcast { i64, i64 }* %1 to i64*, !dbg !1426
  store i64 1, i64* %11, align 8, !dbg !1426
  br label %bb4, !dbg !1424

bb4:                                              ; preds = %bb3, %bb2
  %12 = load i8, i8* %_10, align 1, !dbg !1427, !range !473
  %13 = trunc i8 %12 to i1, !dbg !1427
  br i1 %13, label %bb6, label %bb5, !dbg !1427

bb5:                                              ; preds = %bb6, %bb4
  %14 = getelementptr inbounds { i64, i64 }, { i64, i64 }* %1, i32 0, i32 0, !dbg !1428
  %15 = load i64, i64* %14, align 8, !dbg !1428, !range !510
  %16 = getelementptr inbounds { i64, i64 }, { i64, i64 }* %1, i32 0, i32 1, !dbg !1428
  %17 = load i64, i64* %16, align 8, !dbg !1428
  %18 = insertvalue { i64, i64 } undef, i64 %15, 0, !dbg !1428
  %19 = insertvalue { i64, i64 } %18, i64 %17, 1, !dbg !1428
  ret { i64, i64 } %19, !dbg !1428

bb6:                                              ; preds = %bb4
  br label %bb5, !dbg !1427
}

; core::iter::traits::iterator::Iterator::copied
; Function Attrs: nounwind
define { i8*, i8* } @_ZN4core4iter6traits8iterator8Iterator6copied17hac823e9fbab04735E(i8* nonnull %self.0, i8* %self.1) unnamed_addr #1 !dbg !1429 {
start:
  %self.dbg.spill = alloca { i8*, i8* }, align 8
  %0 = getelementptr inbounds { i8*, i8* }, { i8*, i8* }* %self.dbg.spill, i32 0, i32 0
  store i8* %self.0, i8** %0, align 8
  %1 = getelementptr inbounds { i8*, i8* }, { i8*, i8* }* %self.dbg.spill, i32 0, i32 1
  store i8* %self.1, i8** %1, align 8
  call void @llvm.dbg.declare(metadata { i8*, i8* }* %self.dbg.spill, metadata !1433, metadata !DIExpression()), !dbg !1436
; call core::iter::adapters::copied::Copied<I>::new
  %2 = call { i8*, i8* } @"_ZN4core4iter8adapters6copied15Copied$LT$I$GT$3new17h4f174662140350adE"(i8* nonnull %self.0, i8* %self.1), !dbg !1437
  %3 = extractvalue { i8*, i8* } %2, 0, !dbg !1437
  %4 = extractvalue { i8*, i8* } %2, 1, !dbg !1437
  br label %bb1, !dbg !1437

bb1:                                              ; preds = %start
  %5 = insertvalue { i8*, i8* } undef, i8* %3, 0, !dbg !1438
  %6 = insertvalue { i8*, i8* } %5, i8* %4, 1, !dbg !1438
  ret { i8*, i8* } %6, !dbg !1438
}

; core::iter::traits::iterator::Iterator::filter
; Function Attrs: inlinehint nounwind
define { i64, i64 } @_ZN4core4iter6traits8iterator8Iterator6filter17hb5063274b4879391E(i64 %self.0, i64 %self.1) unnamed_addr #0 !dbg !1439 {
start:
  %predicate.dbg.spill = alloca %"[closure@/root/.cargo/registry/src/github.com-1ecc6299db9ec823/log-0.4.14/src/lib.rs:519:25: 519:40]", align 1
  %self.dbg.spill = alloca { i64, i64 }, align 8
  %0 = getelementptr inbounds { i64, i64 }, { i64, i64 }* %self.dbg.spill, i32 0, i32 0
  store i64 %self.0, i64* %0, align 8
  %1 = getelementptr inbounds { i64, i64 }, { i64, i64 }* %self.dbg.spill, i32 0, i32 1
  store i64 %self.1, i64* %1, align 8
  call void @llvm.dbg.declare(metadata { i64, i64 }* %self.dbg.spill, metadata !1443, metadata !DIExpression()), !dbg !1446
  call void @llvm.dbg.declare(metadata %"[closure@/root/.cargo/registry/src/github.com-1ecc6299db9ec823/log-0.4.14/src/lib.rs:519:25: 519:40]"* %predicate.dbg.spill, metadata !1444, metadata !DIExpression()), !dbg !1447
; call core::iter::adapters::filter::Filter<I,P>::new
  %2 = call { i64, i64 } @"_ZN4core4iter8adapters6filter19Filter$LT$I$C$P$GT$3new17h701bb576abcd47a6E"(i64 %self.0, i64 %self.1), !dbg !1448
  %3 = extractvalue { i64, i64 } %2, 0, !dbg !1448
  %4 = extractvalue { i64, i64 } %2, 1, !dbg !1448
  br label %bb1, !dbg !1448

bb1:                                              ; preds = %start
  %5 = insertvalue { i64, i64 } undef, i64 %3, 0, !dbg !1449
  %6 = insertvalue { i64, i64 } %5, i64 %4, 1, !dbg !1449
  ret { i64, i64 } %6, !dbg !1449
}

; core::iter::traits::iterator::Iterator::try_fold
; Function Attrs: inlinehint nounwind
define zeroext i1 @_ZN4core4iter6traits8iterator8Iterator8try_fold17h35c4bd95da483bcbE(%"core::iter::Zip<core::str::Bytes, core::str::Bytes>"* align 8 dereferenceable(56) %self) unnamed_addr #0 !dbg !1450 {
start:
  %x.dbg.spill = alloca { i8, i8 }, align 1
  %0 = alloca i24, align 4
  %val.dbg.spill = alloca {}, align 1
  %residual.dbg.spill = alloca %"core::ops::ControlFlow<(), core::convert::Infallible>::Break", align 1
  %accum.dbg.spill = alloca {}, align 1
  %init.dbg.spill = alloca {}, align 1
  %self.dbg.spill = alloca %"core::iter::Zip<core::str::Bytes, core::str::Bytes>"*, align 8
  %_13 = alloca { i8, i8 }, align 1
  %_10 = alloca i8, align 1
  %_5 = alloca %"core::option::Option<(u8, u8)>", align 1
  %1 = alloca i8, align 1
  %f = alloca %"[closure@core::iter::Iterator::all::check<(u8, u8), [closure@/root/.cargo/registry/src/github.com-1ecc6299db9ec823/log-0.4.14/src/lib.rs:505:18: 505:73]>::{closure#0}]", align 1
  store %"core::iter::Zip<core::str::Bytes, core::str::Bytes>"* %self, %"core::iter::Zip<core::str::Bytes, core::str::Bytes>"** %self.dbg.spill, align 8
  call void @llvm.dbg.declare(metadata %"core::iter::Zip<core::str::Bytes, core::str::Bytes>"** %self.dbg.spill, metadata !1454, metadata !DIExpression()), !dbg !1468
  call void @llvm.dbg.declare(metadata {}* %init.dbg.spill, metadata !1455, metadata !DIExpression()), !dbg !1469
  call void @llvm.dbg.declare(metadata %"[closure@core::iter::Iterator::all::check<(u8, u8), [closure@/root/.cargo/registry/src/github.com-1ecc6299db9ec823/log-0.4.14/src/lib.rs:505:18: 505:73]>::{closure#0}]"* %f, metadata !1456, metadata !DIExpression()), !dbg !1470
  call void @llvm.dbg.declare(metadata {}* %accum.dbg.spill, metadata !1457, metadata !DIExpression()), !dbg !1471
  call void @llvm.dbg.declare(metadata %"core::ops::ControlFlow<(), core::convert::Infallible>::Break"* %residual.dbg.spill, metadata !1461, metadata !DIExpression()), !dbg !1472
  call void @llvm.dbg.declare(metadata {}* %val.dbg.spill, metadata !1463, metadata !DIExpression()), !dbg !1473
  br label %bb1, !dbg !1474

bb1:                                              ; preds = %bb6, %start
; call <core::iter::adapters::zip::Zip<A,B> as core::iter::traits::iterator::Iterator>::next
  %2 = call i24 @"_ZN102_$LT$core..iter..adapters..zip..Zip$LT$A$C$B$GT$$u20$as$u20$core..iter..traits..iterator..Iterator$GT$4next17hf1372be93e740425E"(%"core::iter::Zip<core::str::Bytes, core::str::Bytes>"* align 8 dereferenceable(56) %self), !dbg !1475
  store i24 %2, i24* %0, align 4, !dbg !1475
  %3 = bitcast %"core::option::Option<(u8, u8)>"* %_5 to i8*, !dbg !1475
  %4 = bitcast i24* %0 to i8*, !dbg !1475
  call void @llvm.memcpy.p0i8.p0i8.i64(i8* align 1 %3, i8* align 4 %4, i64 3, i1 false), !dbg !1475
  br label %bb2, !dbg !1475

bb2:                                              ; preds = %bb1
  %5 = bitcast %"core::option::Option<(u8, u8)>"* %_5 to i8*, !dbg !1476
  %6 = load i8, i8* %5, align 1, !dbg !1476, !range !473
  %7 = trunc i8 %6 to i1, !dbg !1476
  %_7 = zext i1 %7 to i64, !dbg !1476
  %8 = icmp eq i64 %_7, 1, !dbg !1476
  br i1 %8, label %bb3, label %bb10, !dbg !1476

bb3:                                              ; preds = %bb2
  %9 = bitcast %"core::option::Option<(u8, u8)>"* %_5 to %"core::option::Option<(u8, u8)>::Some"*, !dbg !1477
  %10 = getelementptr inbounds %"core::option::Option<(u8, u8)>::Some", %"core::option::Option<(u8, u8)>::Some"* %9, i32 0, i32 1, !dbg !1477
  %11 = getelementptr inbounds { i8, i8 }, { i8, i8 }* %10, i32 0, i32 0, !dbg !1477
  %x.0 = load i8, i8* %11, align 1, !dbg !1477
  %12 = getelementptr inbounds { i8, i8 }, { i8, i8 }* %10, i32 0, i32 1, !dbg !1477
  %x.1 = load i8, i8* %12, align 1, !dbg !1477
  %13 = getelementptr inbounds { i8, i8 }, { i8, i8 }* %x.dbg.spill, i32 0, i32 0, !dbg !1477
  store i8 %x.0, i8* %13, align 1, !dbg !1477
  %14 = getelementptr inbounds { i8, i8 }, { i8, i8 }* %x.dbg.spill, i32 0, i32 1, !dbg !1477
  store i8 %x.1, i8* %14, align 1, !dbg !1477
  call void @llvm.dbg.declare(metadata { i8, i8 }* %x.dbg.spill, metadata !1459, metadata !DIExpression()), !dbg !1478
  %15 = bitcast { i8, i8 }* %_13 to {}*, !dbg !1479
  %16 = getelementptr inbounds { i8, i8 }, { i8, i8 }* %_13, i32 0, i32 0, !dbg !1479
  store i8 %x.0, i8* %16, align 1, !dbg !1479
  %17 = getelementptr inbounds { i8, i8 }, { i8, i8 }* %_13, i32 0, i32 1, !dbg !1479
  store i8 %x.1, i8* %17, align 1, !dbg !1479
  %18 = getelementptr inbounds { i8, i8 }, { i8, i8 }* %_13, i32 0, i32 0, !dbg !1479
  %19 = load i8, i8* %18, align 1, !dbg !1479
  %20 = getelementptr inbounds { i8, i8 }, { i8, i8 }* %_13, i32 0, i32 1, !dbg !1479
  %21 = load i8, i8* %20, align 1, !dbg !1479
; call core::iter::traits::iterator::Iterator::all::check::{{closure}}
  %_11 = call zeroext i1 @"_ZN4core4iter6traits8iterator8Iterator3all5check28_$u7b$$u7b$closure$u7d$$u7d$17h36c38e5f84eade41E"(%"[closure@core::iter::Iterator::all::check<(u8, u8), [closure@/root/.cargo/registry/src/github.com-1ecc6299db9ec823/log-0.4.14/src/lib.rs:505:18: 505:73]>::{closure#0}]"* nonnull align 1 %f, i8 %19, i8 %21), !dbg !1479
  br label %bb4, !dbg !1479

bb10:                                             ; preds = %bb2
  br label %bb11, !dbg !1480

bb11:                                             ; preds = %bb10
; call <core::ops::control_flow::ControlFlow<B,C> as core::ops::try_trait::Try>::from_output
  %22 = call zeroext i1 @"_ZN95_$LT$core..ops..control_flow..ControlFlow$LT$B$C$C$GT$$u20$as$u20$core..ops..try_trait..Try$GT$11from_output17h7c3bc216c1b87389E"(), !dbg !1481
  %23 = zext i1 %22 to i8, !dbg !1481
  store i8 %23, i8* %1, align 1, !dbg !1481
  br label %bb12, !dbg !1481

bb12:                                             ; preds = %bb11
  br label %bb13, !dbg !1482

bb13:                                             ; preds = %bb9, %bb12
  %24 = load i8, i8* %1, align 1, !dbg !1483, !range !473
  %25 = trunc i8 %24 to i1, !dbg !1483
  ret i1 %25, !dbg !1483

bb4:                                              ; preds = %bb3
; call <core::ops::control_flow::ControlFlow<B,C> as core::ops::try_trait::Try>::branch
  %26 = call zeroext i1 @"_ZN95_$LT$core..ops..control_flow..ControlFlow$LT$B$C$C$GT$$u20$as$u20$core..ops..try_trait..Try$GT$6branch17hacb6245aa4ff0f1fE"(i1 zeroext %_11), !dbg !1479
  %27 = zext i1 %26 to i8, !dbg !1479
  store i8 %27, i8* %_10, align 1, !dbg !1479
  br label %bb5, !dbg !1479

bb5:                                              ; preds = %bb4
  %28 = load i8, i8* %_10, align 1, !dbg !1479, !range !473
  %29 = trunc i8 %28 to i1, !dbg !1479
  %_16 = zext i1 %29 to i64, !dbg !1479
  switch i64 %_16, label %bb7 [
    i64 0, label %bb6
    i64 1, label %bb8
  ], !dbg !1479

bb7:                                              ; preds = %bb5
  unreachable, !dbg !1479

bb6:                                              ; preds = %bb5
  br label %bb1, !dbg !1474

bb8:                                              ; preds = %bb5
; call <core::ops::control_flow::ControlFlow<B,C> as core::ops::try_trait::FromResidual>::from_residual
  %30 = call zeroext i1 @"_ZN104_$LT$core..ops..control_flow..ControlFlow$LT$B$C$C$GT$$u20$as$u20$core..ops..try_trait..FromResidual$GT$13from_residual17hc6f6bb713943246bE"(), !dbg !1484
  %31 = zext i1 %30 to i8, !dbg !1484
  store i8 %31, i8* %1, align 1, !dbg !1484
  br label %bb9, !dbg !1484

bb9:                                              ; preds = %bb8
  br label %bb13, !dbg !1482
}

; core::iter::traits::iterator::Iterator::try_fold
; Function Attrs: inlinehint nounwind
define { i64, i64 } @_ZN4core4iter6traits8iterator8Iterator8try_fold17h4f508f62b0f086cdE({ i64, i64 }* align 8 dereferenceable(16) %self, i8* nonnull align 1 %0) unnamed_addr #0 !dbg !1485 {
start:
  %residual.dbg.spill = alloca i64, align 8
  %x.dbg.spill = alloca i64, align 8
  %val.dbg.spill = alloca {}, align 1
  %accum.dbg.spill = alloca {}, align 1
  %init.dbg.spill = alloca {}, align 1
  %self.dbg.spill = alloca { i64, i64 }*, align 8
  %_13 = alloca i64, align 8
  %_10 = alloca { i64, i64 }, align 8
  %_5 = alloca { i64, i64 }, align 8
  %1 = alloca { i64, i64 }, align 8
  %f = alloca i8*, align 8
  store i8* %0, i8** %f, align 8
  store { i64, i64 }* %self, { i64, i64 }** %self.dbg.spill, align 8
  call void @llvm.dbg.declare(metadata { i64, i64 }** %self.dbg.spill, metadata !1489, metadata !DIExpression()), !dbg !1503
  call void @llvm.dbg.declare(metadata {}* %init.dbg.spill, metadata !1490, metadata !DIExpression()), !dbg !1504
  call void @llvm.dbg.declare(metadata i8** %f, metadata !1491, metadata !DIExpression()), !dbg !1505
  call void @llvm.dbg.declare(metadata {}* %accum.dbg.spill, metadata !1492, metadata !DIExpression()), !dbg !1506
  call void @llvm.dbg.declare(metadata {}* %val.dbg.spill, metadata !1498, metadata !DIExpression()), !dbg !1507
  br label %bb1, !dbg !1508

bb1:                                              ; preds = %bb6, %start
; call <core::option::IntoIter<A> as core::iter::traits::iterator::Iterator>::next
  %2 = call { i64, i64 } @"_ZN90_$LT$core..option..IntoIter$LT$A$GT$$u20$as$u20$core..iter..traits..iterator..Iterator$GT$4next17h79c0b28b9465d1c0E"({ i64, i64 }* align 8 dereferenceable(16) %self), !dbg !1509
  store { i64, i64 } %2, { i64, i64 }* %_5, align 8, !dbg !1509
  br label %bb2, !dbg !1509

bb2:                                              ; preds = %bb1
  %3 = bitcast { i64, i64 }* %_5 to i64*, !dbg !1510
  %_7 = load i64, i64* %3, align 8, !dbg !1510, !range !510
  %4 = icmp eq i64 %_7, 1, !dbg !1510
  br i1 %4, label %bb3, label %bb10, !dbg !1510

bb3:                                              ; preds = %bb2
  %5 = bitcast { i64, i64 }* %_5 to %"core::option::Option<usize>::Some"*, !dbg !1511
  %6 = getelementptr inbounds %"core::option::Option<usize>::Some", %"core::option::Option<usize>::Some"* %5, i32 0, i32 1, !dbg !1511
  %x = load i64, i64* %6, align 8, !dbg !1511
  store i64 %x, i64* %x.dbg.spill, align 8, !dbg !1511
  call void @llvm.dbg.declare(metadata i64* %x.dbg.spill, metadata !1494, metadata !DIExpression()), !dbg !1512
  %7 = bitcast i64* %_13 to {}*, !dbg !1513
  store i64 %x, i64* %_13, align 8, !dbg !1513
  %8 = load i64, i64* %_13, align 8, !dbg !1513
; call core::iter::traits::iterator::Iterator::find::check::{{closure}}
  %9 = call { i64, i64 } @"_ZN4core4iter6traits8iterator8Iterator4find5check28_$u7b$$u7b$closure$u7d$$u7d$17hdf3cce251265a8dcE"(i8** align 8 dereferenceable(8) %f, i64 %8), !dbg !1513
  %_11.0 = extractvalue { i64, i64 } %9, 0, !dbg !1513
  %_11.1 = extractvalue { i64, i64 } %9, 1, !dbg !1513
  br label %bb4, !dbg !1513

bb10:                                             ; preds = %bb2
  br label %bb11, !dbg !1514

bb11:                                             ; preds = %bb10
; call <core::ops::control_flow::ControlFlow<B,C> as core::ops::try_trait::Try>::from_output
  %10 = call { i64, i64 } @"_ZN95_$LT$core..ops..control_flow..ControlFlow$LT$B$C$C$GT$$u20$as$u20$core..ops..try_trait..Try$GT$11from_output17h6daa8fa1a99ebceaE"(), !dbg !1515
  store { i64, i64 } %10, { i64, i64 }* %1, align 8, !dbg !1515
  br label %bb12, !dbg !1515

bb12:                                             ; preds = %bb11
  br label %bb13, !dbg !1516

bb13:                                             ; preds = %bb9, %bb12
  %11 = getelementptr inbounds { i64, i64 }, { i64, i64 }* %1, i32 0, i32 0, !dbg !1517
  %12 = load i64, i64* %11, align 8, !dbg !1517, !range !510
  %13 = getelementptr inbounds { i64, i64 }, { i64, i64 }* %1, i32 0, i32 1, !dbg !1517
  %14 = load i64, i64* %13, align 8, !dbg !1517
  %15 = insertvalue { i64, i64 } undef, i64 %12, 0, !dbg !1517
  %16 = insertvalue { i64, i64 } %15, i64 %14, 1, !dbg !1517
  ret { i64, i64 } %16, !dbg !1517

bb4:                                              ; preds = %bb3
; call <core::ops::control_flow::ControlFlow<B,C> as core::ops::try_trait::Try>::branch
  %17 = call { i64, i64 } @"_ZN95_$LT$core..ops..control_flow..ControlFlow$LT$B$C$C$GT$$u20$as$u20$core..ops..try_trait..Try$GT$6branch17h374d2df4a620e1a5E"(i64 %_11.0, i64 %_11.1), !dbg !1513
  store { i64, i64 } %17, { i64, i64 }* %_10, align 8, !dbg !1513
  br label %bb5, !dbg !1513

bb5:                                              ; preds = %bb4
  %18 = bitcast { i64, i64 }* %_10 to i64*, !dbg !1513
  %_16 = load i64, i64* %18, align 8, !dbg !1513, !range !510
  switch i64 %_16, label %bb7 [
    i64 0, label %bb6
    i64 1, label %bb8
  ], !dbg !1513

bb7:                                              ; preds = %bb5
  unreachable, !dbg !1513

bb6:                                              ; preds = %bb5
  br label %bb1, !dbg !1508

bb8:                                              ; preds = %bb5
  %19 = bitcast { i64, i64 }* %_10 to %"core::ops::ControlFlow<core::ops::ControlFlow<usize, core::convert::Infallible>>::Break"*, !dbg !1518
  %20 = getelementptr inbounds %"core::ops::ControlFlow<core::ops::ControlFlow<usize, core::convert::Infallible>>::Break", %"core::ops::ControlFlow<core::ops::ControlFlow<usize, core::convert::Infallible>>::Break"* %19, i32 0, i32 1, !dbg !1518
  %residual = load i64, i64* %20, align 8, !dbg !1518
  store i64 %residual, i64* %residual.dbg.spill, align 8, !dbg !1518
  call void @llvm.dbg.declare(metadata i64* %residual.dbg.spill, metadata !1496, metadata !DIExpression()), !dbg !1519
; call <core::ops::control_flow::ControlFlow<B,C> as core::ops::try_trait::FromResidual>::from_residual
  %21 = call { i64, i64 } @"_ZN104_$LT$core..ops..control_flow..ControlFlow$LT$B$C$C$GT$$u20$as$u20$core..ops..try_trait..FromResidual$GT$13from_residual17he6e0d1233cfec38bE"(i64 %residual), !dbg !1520
  store { i64, i64 } %21, { i64, i64 }* %1, align 8, !dbg !1520
  br label %bb9, !dbg !1520

bb9:                                              ; preds = %bb8
  br label %bb13, !dbg !1516
}

; core::iter::adapters::map::Map<I,F>::new
; Function Attrs: nounwind
define { i64, i64 } @"_ZN4core4iter8adapters3map16Map$LT$I$C$F$GT$3new17h68a33820593df772E"(i64 %iter.0, i64 %iter.1) unnamed_addr #1 !dbg !1521 {
start:
  %f.dbg.spill = alloca %"[closure@/root/.cargo/registry/src/github.com-1ecc6299db9ec823/log-0.4.14/src/lib.rs:520:22: 520:59]", align 1
  %iter.dbg.spill = alloca { i64, i64 }, align 8
  %0 = alloca { i64, i64 }, align 8
  %1 = getelementptr inbounds { i64, i64 }, { i64, i64 }* %iter.dbg.spill, i32 0, i32 0
  store i64 %iter.0, i64* %1, align 8
  %2 = getelementptr inbounds { i64, i64 }, { i64, i64 }* %iter.dbg.spill, i32 0, i32 1
  store i64 %iter.1, i64* %2, align 8
  call void @llvm.dbg.declare(metadata { i64, i64 }* %iter.dbg.spill, metadata !1523, metadata !DIExpression()), !dbg !1525
  call void @llvm.dbg.declare(metadata %"[closure@/root/.cargo/registry/src/github.com-1ecc6299db9ec823/log-0.4.14/src/lib.rs:520:22: 520:59]"* %f.dbg.spill, metadata !1524, metadata !DIExpression()), !dbg !1526
  %3 = getelementptr inbounds { i64, i64 }, { i64, i64 }* %0, i32 0, i32 0, !dbg !1527
  store i64 %iter.0, i64* %3, align 8, !dbg !1527
  %4 = getelementptr inbounds { i64, i64 }, { i64, i64 }* %0, i32 0, i32 1, !dbg !1527
  store i64 %iter.1, i64* %4, align 8, !dbg !1527
  %5 = bitcast { i64, i64 }* %0 to %"[closure@/root/.cargo/registry/src/github.com-1ecc6299db9ec823/log-0.4.14/src/lib.rs:520:22: 520:59]"*, !dbg !1527
  %6 = getelementptr inbounds { i64, i64 }, { i64, i64 }* %0, i32 0, i32 0, !dbg !1528
  %7 = load i64, i64* %6, align 8, !dbg !1528, !range !510
  %8 = getelementptr inbounds { i64, i64 }, { i64, i64 }* %0, i32 0, i32 1, !dbg !1528
  %9 = load i64, i64* %8, align 8, !dbg !1528
  %10 = insertvalue { i64, i64 } undef, i64 %7, 0, !dbg !1528
  %11 = insertvalue { i64, i64 } %10, i64 %9, 1, !dbg !1528
  ret { i64, i64 } %11, !dbg !1528
}

; core::iter::adapters::zip::Zip<A,B>::new
; Function Attrs: nounwind
define void @"_ZN4core4iter8adapters3zip16Zip$LT$A$C$B$GT$3new17h48cf91d364ecd37eE"(%"core::iter::Zip<core::str::Bytes, core::str::Bytes>"* noalias nocapture sret(%"core::iter::Zip<core::str::Bytes, core::str::Bytes>") dereferenceable(56) %0, i8* nonnull %a.0, i8* %a.1, i8* nonnull %b.0, i8* %b.1) unnamed_addr #1 !dbg !1529 {
start:
  %b.dbg.spill = alloca { i8*, i8* }, align 8
  %a.dbg.spill = alloca { i8*, i8* }, align 8
  %1 = getelementptr inbounds { i8*, i8* }, { i8*, i8* }* %a.dbg.spill, i32 0, i32 0
  store i8* %a.0, i8** %1, align 8
  %2 = getelementptr inbounds { i8*, i8* }, { i8*, i8* }* %a.dbg.spill, i32 0, i32 1
  store i8* %a.1, i8** %2, align 8
  call void @llvm.dbg.declare(metadata { i8*, i8* }* %a.dbg.spill, metadata !1531, metadata !DIExpression()), !dbg !1533
  %3 = getelementptr inbounds { i8*, i8* }, { i8*, i8* }* %b.dbg.spill, i32 0, i32 0
  store i8* %b.0, i8** %3, align 8
  %4 = getelementptr inbounds { i8*, i8* }, { i8*, i8* }* %b.dbg.spill, i32 0, i32 1
  store i8* %b.1, i8** %4, align 8
  call void @llvm.dbg.declare(metadata { i8*, i8* }* %b.dbg.spill, metadata !1532, metadata !DIExpression()), !dbg !1534
; call <core::iter::adapters::zip::Zip<A,B> as core::iter::adapters::zip::ZipImpl<A,B>>::new
  call void @"_ZN111_$LT$core..iter..adapters..zip..Zip$LT$A$C$B$GT$$u20$as$u20$core..iter..adapters..zip..ZipImpl$LT$A$C$B$GT$$GT$3new17hf6ea94df3439f6e8E"(%"core::iter::Zip<core::str::Bytes, core::str::Bytes>"* noalias nocapture sret(%"core::iter::Zip<core::str::Bytes, core::str::Bytes>") dereferenceable(56) %0, i8* nonnull %a.0, i8* %a.1, i8* nonnull %b.0, i8* %b.1), !dbg !1535
  br label %bb1, !dbg !1535

bb1:                                              ; preds = %start
  ret void, !dbg !1536
}

; core::iter::adapters::zip::try_get_unchecked
; Function Attrs: nounwind
define align 1 dereferenceable(1) i8* @_ZN4core4iter8adapters3zip17try_get_unchecked17hb48ed04ca8404321E({ i8*, i8* }* align 8 dereferenceable(16) %it, i64 %idx) unnamed_addr #1 !dbg !1537 {
start:
  %idx.dbg.spill = alloca i64, align 8
  %it.dbg.spill = alloca { i8*, i8* }*, align 8
  store { i8*, i8* }* %it, { i8*, i8* }** %it.dbg.spill, align 8
  call void @llvm.dbg.declare(metadata { i8*, i8* }** %it.dbg.spill, metadata !1542, metadata !DIExpression()), !dbg !1544
  store i64 %idx, i64* %idx.dbg.spill, align 8
  call void @llvm.dbg.declare(metadata i64* %idx.dbg.spill, metadata !1543, metadata !DIExpression()), !dbg !1545
; call <I as core::iter::adapters::zip::SpecTrustedRandomAccess>::try_get_unchecked
  %0 = call align 1 dereferenceable(1) i8* @"_ZN72_$LT$I$u20$as$u20$core..iter..adapters..zip..SpecTrustedRandomAccess$GT$17try_get_unchecked17h62a0988e21df3913E"({ i8*, i8* }* align 8 dereferenceable(16) %it, i64 %idx), !dbg !1546
  br label %bb1, !dbg !1546

bb1:                                              ; preds = %start
  ret i8* %0, !dbg !1547
}

; core::iter::adapters::zip::TrustedRandomAccessNoCoerce::size
; Function Attrs: nounwind
define i64 @_ZN4core4iter8adapters3zip27TrustedRandomAccessNoCoerce4size17h2ddd07498266be0eE({ i8*, i8* }* align 8 dereferenceable(16) %self) unnamed_addr #1 !dbg !1548 {
start:
  %self.dbg.spill = alloca { i8*, i8* }*, align 8
  %_2 = alloca { i64, { i64, i64 } }, align 8
  store { i8*, i8* }* %self, { i8*, i8* }** %self.dbg.spill, align 8
  call void @llvm.dbg.declare(metadata { i8*, i8* }** %self.dbg.spill, metadata !1554, metadata !DIExpression()), !dbg !1556
; call <core::str::iter::Bytes as core::iter::traits::iterator::Iterator>::size_hint
  call void @"_ZN81_$LT$core..str..iter..Bytes$u20$as$u20$core..iter..traits..iterator..Iterator$GT$9size_hint17hd5a045a626742e69E"({ i64, { i64, i64 } }* noalias nocapture sret({ i64, { i64, i64 } }) dereferenceable(24) %_2, { i8*, i8* }* align 8 dereferenceable(16) %self), !dbg !1557
  br label %bb1, !dbg !1557

bb1:                                              ; preds = %start
  %0 = bitcast { i64, { i64, i64 } }* %_2 to i64*, !dbg !1557
  %1 = load i64, i64* %0, align 8, !dbg !1557
  ret i64 %1, !dbg !1558
}

; core::iter::adapters::copied::Copied<I>::new
; Function Attrs: nounwind
define { i8*, i8* } @"_ZN4core4iter8adapters6copied15Copied$LT$I$GT$3new17h4f174662140350adE"(i8* nonnull %it.0, i8* %it.1) unnamed_addr #1 !dbg !1559 {
start:
  %it.dbg.spill = alloca { i8*, i8* }, align 8
  %0 = alloca { i8*, i8* }, align 8
  %1 = getelementptr inbounds { i8*, i8* }, { i8*, i8* }* %it.dbg.spill, i32 0, i32 0
  store i8* %it.0, i8** %1, align 8
  %2 = getelementptr inbounds { i8*, i8* }, { i8*, i8* }* %it.dbg.spill, i32 0, i32 1
  store i8* %it.1, i8** %2, align 8
  call void @llvm.dbg.declare(metadata { i8*, i8* }* %it.dbg.spill, metadata !1561, metadata !DIExpression()), !dbg !1562
  %3 = getelementptr inbounds { i8*, i8* }, { i8*, i8* }* %0, i32 0, i32 0, !dbg !1563
  store i8* %it.0, i8** %3, align 8, !dbg !1563
  %4 = getelementptr inbounds { i8*, i8* }, { i8*, i8* }* %0, i32 0, i32 1, !dbg !1563
  store i8* %it.1, i8** %4, align 8, !dbg !1563
  %5 = getelementptr inbounds { i8*, i8* }, { i8*, i8* }* %0, i32 0, i32 0, !dbg !1564
  %6 = load i8*, i8** %5, align 8, !dbg !1564, !nonnull !4
  %7 = getelementptr inbounds { i8*, i8* }, { i8*, i8* }* %0, i32 0, i32 1, !dbg !1564
  %8 = load i8*, i8** %7, align 8, !dbg !1564
  %9 = insertvalue { i8*, i8* } undef, i8* %6, 0, !dbg !1564
  %10 = insertvalue { i8*, i8* } %9, i8* %8, 1, !dbg !1564
  ret { i8*, i8* } %10, !dbg !1564
}

; core::iter::adapters::filter::Filter<I,P>::new
; Function Attrs: nounwind
define { i64, i64 } @"_ZN4core4iter8adapters6filter19Filter$LT$I$C$P$GT$3new17h701bb576abcd47a6E"(i64 %iter.0, i64 %iter.1) unnamed_addr #1 !dbg !1565 {
start:
  %predicate.dbg.spill = alloca %"[closure@/root/.cargo/registry/src/github.com-1ecc6299db9ec823/log-0.4.14/src/lib.rs:519:25: 519:40]", align 1
  %iter.dbg.spill = alloca { i64, i64 }, align 8
  %0 = alloca { i64, i64 }, align 8
  %1 = getelementptr inbounds { i64, i64 }, { i64, i64 }* %iter.dbg.spill, i32 0, i32 0
  store i64 %iter.0, i64* %1, align 8
  %2 = getelementptr inbounds { i64, i64 }, { i64, i64 }* %iter.dbg.spill, i32 0, i32 1
  store i64 %iter.1, i64* %2, align 8
  call void @llvm.dbg.declare(metadata { i64, i64 }* %iter.dbg.spill, metadata !1567, metadata !DIExpression()), !dbg !1569
  call void @llvm.dbg.declare(metadata %"[closure@/root/.cargo/registry/src/github.com-1ecc6299db9ec823/log-0.4.14/src/lib.rs:519:25: 519:40]"* %predicate.dbg.spill, metadata !1568, metadata !DIExpression()), !dbg !1570
  %3 = getelementptr inbounds { i64, i64 }, { i64, i64 }* %0, i32 0, i32 0, !dbg !1571
  store i64 %iter.0, i64* %3, align 8, !dbg !1571
  %4 = getelementptr inbounds { i64, i64 }, { i64, i64 }* %0, i32 0, i32 1, !dbg !1571
  store i64 %iter.1, i64* %4, align 8, !dbg !1571
  %5 = bitcast { i64, i64 }* %0 to %"[closure@/root/.cargo/registry/src/github.com-1ecc6299db9ec823/log-0.4.14/src/lib.rs:519:25: 519:40]"*, !dbg !1571
  %6 = getelementptr inbounds { i64, i64 }, { i64, i64 }* %0, i32 0, i32 0, !dbg !1572
  %7 = load i64, i64* %6, align 8, !dbg !1572, !range !510
  %8 = getelementptr inbounds { i64, i64 }, { i64, i64 }* %0, i32 0, i32 1, !dbg !1572
  %9 = load i64, i64* %8, align 8, !dbg !1572
  %10 = insertvalue { i64, i64 } undef, i64 %7, 0, !dbg !1572
  %11 = insertvalue { i64, i64 } %10, i64 %9, 1, !dbg !1572
  ret { i64, i64 } %11, !dbg !1572
}

; core::sync::atomic::AtomicUsize::compare_exchange
; Function Attrs: inlinehint nounwind
define internal { i64, i64 } @_ZN4core4sync6atomic11AtomicUsize16compare_exchange17h56fcf7107692d873E(%"core::sync::atomic::AtomicUsize"* align 8 dereferenceable(8) %self, i64 %current, i64 %new, i8 %success, i8 %failure) unnamed_addr #0 !dbg !1573 {
start:
  %self.dbg.spill.i = alloca i64*, align 8
  %failure.dbg.spill = alloca i8, align 1
  %success.dbg.spill = alloca i8, align 1
  %new.dbg.spill = alloca i64, align 8
  %current.dbg.spill = alloca i64, align 8
  %self.dbg.spill = alloca %"core::sync::atomic::AtomicUsize"*, align 8
  store %"core::sync::atomic::AtomicUsize"* %self, %"core::sync::atomic::AtomicUsize"** %self.dbg.spill, align 8
  call void @llvm.dbg.declare(metadata %"core::sync::atomic::AtomicUsize"** %self.dbg.spill, metadata !1594, metadata !DIExpression()), !dbg !1599
  store i64 %current, i64* %current.dbg.spill, align 8
  call void @llvm.dbg.declare(metadata i64* %current.dbg.spill, metadata !1595, metadata !DIExpression()), !dbg !1600
  store i64 %new, i64* %new.dbg.spill, align 8
  call void @llvm.dbg.declare(metadata i64* %new.dbg.spill, metadata !1596, metadata !DIExpression()), !dbg !1601
  store i8 %success, i8* %success.dbg.spill, align 1
  call void @llvm.dbg.declare(metadata i8* %success.dbg.spill, metadata !1597, metadata !DIExpression()), !dbg !1602
  store i8 %failure, i8* %failure.dbg.spill, align 1
  call void @llvm.dbg.declare(metadata i8* %failure.dbg.spill, metadata !1598, metadata !DIExpression()), !dbg !1603
  %_7 = bitcast %"core::sync::atomic::AtomicUsize"* %self to i64*, !dbg !1604
  store i64* %_7, i64** %self.dbg.spill.i, align 8
  call void @llvm.dbg.declare(metadata i64** %self.dbg.spill.i, metadata !1605, metadata !DIExpression()), !dbg !1613
  br label %bb1, !dbg !1604

bb1:                                              ; preds = %start
; call core::sync::atomic::atomic_compare_exchange
  %0 = call { i64, i64 } @_ZN4core4sync6atomic23atomic_compare_exchange17hfd5f67bc9598e2e1E(i64* %_7, i64 %current, i64 %new, i8 %success, i8 %failure), !dbg !1615
  %1 = extractvalue { i64, i64 } %0, 0, !dbg !1615
  %2 = extractvalue { i64, i64 } %0, 1, !dbg !1615
  br label %bb2, !dbg !1615

bb2:                                              ; preds = %bb1
  %3 = insertvalue { i64, i64 } undef, i64 %1, 0, !dbg !1616
  %4 = insertvalue { i64, i64 } %3, i64 %2, 1, !dbg !1616
  ret { i64, i64 } %4, !dbg !1616
}

; core::sync::atomic::AtomicUsize::load
; Function Attrs: inlinehint nounwind
define internal i64 @_ZN4core4sync6atomic11AtomicUsize4load17h71ca0f01e6961a26E(%"core::sync::atomic::AtomicUsize"* align 8 dereferenceable(8) %self, i8 %order) unnamed_addr #0 !dbg !1617 {
start:
  %self.dbg.spill.i = alloca i64*, align 8
  %order.dbg.spill = alloca i8, align 1
  %self.dbg.spill = alloca %"core::sync::atomic::AtomicUsize"*, align 8
  store %"core::sync::atomic::AtomicUsize"* %self, %"core::sync::atomic::AtomicUsize"** %self.dbg.spill, align 8
  call void @llvm.dbg.declare(metadata %"core::sync::atomic::AtomicUsize"** %self.dbg.spill, metadata !1621, metadata !DIExpression()), !dbg !1623
  store i8 %order, i8* %order.dbg.spill, align 1
  call void @llvm.dbg.declare(metadata i8* %order.dbg.spill, metadata !1622, metadata !DIExpression()), !dbg !1624
  %_5 = bitcast %"core::sync::atomic::AtomicUsize"* %self to i64*, !dbg !1625
  store i64* %_5, i64** %self.dbg.spill.i, align 8
  call void @llvm.dbg.declare(metadata i64** %self.dbg.spill.i, metadata !1605, metadata !DIExpression()), !dbg !1626
  br label %bb1, !dbg !1625

bb1:                                              ; preds = %start
; call core::sync::atomic::atomic_load
  %0 = call i64 @_ZN4core4sync6atomic11atomic_load17hc9c9198092969be7E(i64* %_5, i8 %order), !dbg !1628
  br label %bb2, !dbg !1628

bb2:                                              ; preds = %bb1
  ret i64 %0, !dbg !1629
}

; core::sync::atomic::AtomicUsize::store
; Function Attrs: inlinehint nounwind
define internal void @_ZN4core4sync6atomic11AtomicUsize5store17h0a62d4ba4d2c7794E(%"core::sync::atomic::AtomicUsize"* align 8 dereferenceable(8) %self, i64 %val, i8 %order) unnamed_addr #0 !dbg !1630 {
start:
  %self.dbg.spill.i = alloca i64*, align 8
  %order.dbg.spill = alloca i8, align 1
  %val.dbg.spill = alloca i64, align 8
  %self.dbg.spill = alloca %"core::sync::atomic::AtomicUsize"*, align 8
  store %"core::sync::atomic::AtomicUsize"* %self, %"core::sync::atomic::AtomicUsize"** %self.dbg.spill, align 8
  call void @llvm.dbg.declare(metadata %"core::sync::atomic::AtomicUsize"** %self.dbg.spill, metadata !1634, metadata !DIExpression()), !dbg !1637
  store i64 %val, i64* %val.dbg.spill, align 8
  call void @llvm.dbg.declare(metadata i64* %val.dbg.spill, metadata !1635, metadata !DIExpression()), !dbg !1638
  store i8 %order, i8* %order.dbg.spill, align 1
  call void @llvm.dbg.declare(metadata i8* %order.dbg.spill, metadata !1636, metadata !DIExpression()), !dbg !1639
  %_6 = bitcast %"core::sync::atomic::AtomicUsize"* %self to i64*, !dbg !1640
  store i64* %_6, i64** %self.dbg.spill.i, align 8
  call void @llvm.dbg.declare(metadata i64** %self.dbg.spill.i, metadata !1605, metadata !DIExpression()), !dbg !1641
  br label %bb1, !dbg !1640

bb1:                                              ; preds = %start
; call core::sync::atomic::atomic_store
  call void @_ZN4core4sync6atomic12atomic_store17hb6432d1c4f85ea04E(i64* %_6, i64 %val, i8 %order), !dbg !1643
  br label %bb2, !dbg !1643

bb2:                                              ; preds = %bb1
  ret void, !dbg !1644
}

; core::sync::atomic::atomic_load
; Function Attrs: inlinehint nounwind
define i64 @_ZN4core4sync6atomic11atomic_load17hc9c9198092969be7E(i64* %dst, i8 %order) unnamed_addr #0 !dbg !1645 {
start:
  %order.dbg.spill = alloca i8, align 1
  %dst.dbg.spill = alloca i64*, align 8
  store i64* %dst, i64** %dst.dbg.spill, align 8
  call void @llvm.dbg.declare(metadata i64** %dst.dbg.spill, metadata !1650, metadata !DIExpression()), !dbg !1652
  store i8 %order, i8* %order.dbg.spill, align 1
  call void @llvm.dbg.declare(metadata i8* %order.dbg.spill, metadata !1651, metadata !DIExpression()), !dbg !1653
  %0 = load i64, i64* %dst, align 8, !dbg !1654
  ret i64 %0, !dbg !1655
}

; core::sync::atomic::atomic_store
; Function Attrs: inlinehint nounwind
define void @_ZN4core4sync6atomic12atomic_store17hb6432d1c4f85ea04E(i64* %dst, i64 %val, i8 %order) unnamed_addr #0 !dbg !1656 {
start:
  %order.dbg.spill = alloca i8, align 1
  %val.dbg.spill = alloca i64, align 8
  %dst.dbg.spill = alloca i64*, align 8
  store i64* %dst, i64** %dst.dbg.spill, align 8
  call void @llvm.dbg.declare(metadata i64** %dst.dbg.spill, metadata !1660, metadata !DIExpression()), !dbg !1663
  store i64 %val, i64* %val.dbg.spill, align 8
  call void @llvm.dbg.declare(metadata i64* %val.dbg.spill, metadata !1661, metadata !DIExpression()), !dbg !1664
  store i8 %order, i8* %order.dbg.spill, align 1
  call void @llvm.dbg.declare(metadata i8* %order.dbg.spill, metadata !1662, metadata !DIExpression()), !dbg !1665
  store i64 %val, i64* %dst, align 8, !dbg !1666
  ret void, !dbg !1667
}

; core::sync::atomic::spin_loop_hint
; Function Attrs: inlinehint nounwind
define internal void @_ZN4core4sync6atomic14spin_loop_hint17h013ab9f33736e8a4E() unnamed_addr #0 !dbg !1668 {
start:
; call core::hint::spin_loop
  call void @_ZN4core4hint9spin_loop17h8f9297827c77aab5E(), !dbg !1669
  br label %bb1, !dbg !1669

bb1:                                              ; preds = %start
  ret void, !dbg !1670
}

; core::sync::atomic::atomic_compare_exchange
; Function Attrs: inlinehint nounwind
define { i64, i64 } @_ZN4core4sync6atomic23atomic_compare_exchange17hfd5f67bc9598e2e1E(i64* %dst, i64 %0, i64 %new, i8 %success, i8 %failure) unnamed_addr #0 !dbg !1671 {
start:
  %failure.dbg.spill = alloca i8, align 1
  %success.dbg.spill = alloca i8, align 1
  %new.dbg.spill = alloca i64, align 8
  %dst.dbg.spill = alloca i64*, align 8
  %current = alloca i64, align 8
  %1 = alloca { i64, i64 }, align 8
  %old = alloca i64, align 8
  store i64 %0, i64* %old, align 8
  store i64* %dst, i64** %dst.dbg.spill, align 8
  call void @llvm.dbg.declare(metadata i64** %dst.dbg.spill, metadata !1675, metadata !DIExpression()), !dbg !1682
  call void @llvm.dbg.declare(metadata i64* %old, metadata !1676, metadata !DIExpression()), !dbg !1683
  store i64 %new, i64* %new.dbg.spill, align 8
  call void @llvm.dbg.declare(metadata i64* %new.dbg.spill, metadata !1677, metadata !DIExpression()), !dbg !1684
  store i8 %success, i8* %success.dbg.spill, align 1
  call void @llvm.dbg.declare(metadata i8* %success.dbg.spill, metadata !1678, metadata !DIExpression()), !dbg !1685
  store i8 %failure, i8* %failure.dbg.spill, align 1
  call void @llvm.dbg.declare(metadata i8* %failure.dbg.spill, metadata !1679, metadata !DIExpression()), !dbg !1686
  call void @llvm.dbg.declare(metadata i64* %current, metadata !1680, metadata !DIExpression()), !dbg !1687
  %2 = load i64, i64* %dst, align 8, !dbg !1688
  store i64 %2, i64* %current, align 8, !dbg !1688
; call core::cmp::impls::<impl core::cmp::PartialEq for usize>::eq
  %_7 = call zeroext i1 @"_ZN4core3cmp5impls56_$LT$impl$u20$core..cmp..PartialEq$u20$for$u20$usize$GT$2eq17h57a125d2be5bab3eE"(i64* align 8 dereferenceable(8) %current, i64* align 8 dereferenceable(8) %old), !dbg !1689
  br label %bb1, !dbg !1689

bb1:                                              ; preds = %start
  br i1 %_7, label %bb2, label %bb3, !dbg !1689

bb3:                                              ; preds = %bb1
  %_12 = load i64, i64* %current, align 8, !dbg !1690
  %3 = bitcast { i64, i64 }* %1 to %"core::result::Result<usize, usize>::Err"*, !dbg !1691
  %4 = getelementptr inbounds %"core::result::Result<usize, usize>::Err", %"core::result::Result<usize, usize>::Err"* %3, i32 0, i32 1, !dbg !1691
  store i64 %_12, i64* %4, align 8, !dbg !1691
  %5 = bitcast { i64, i64 }* %1 to i64*, !dbg !1691
  store i64 1, i64* %5, align 8, !dbg !1691
  br label %bb4, !dbg !1692

bb2:                                              ; preds = %bb1
  store i64 %new, i64* %dst, align 8, !dbg !1693
  %_11 = load i64, i64* %current, align 8, !dbg !1694
  %6 = bitcast { i64, i64 }* %1 to %"core::result::Result<usize, usize>::Ok"*, !dbg !1695
  %7 = getelementptr inbounds %"core::result::Result<usize, usize>::Ok", %"core::result::Result<usize, usize>::Ok"* %6, i32 0, i32 1, !dbg !1695
  store i64 %_11, i64* %7, align 8, !dbg !1695
  %8 = bitcast { i64, i64 }* %1 to i64*, !dbg !1695
  store i64 0, i64* %8, align 8, !dbg !1695
  br label %bb4, !dbg !1692

bb4:                                              ; preds = %bb3, %bb2
  %9 = getelementptr inbounds { i64, i64 }, { i64, i64 }* %1, i32 0, i32 0, !dbg !1696
  %10 = load i64, i64* %9, align 8, !dbg !1696, !range !510
  %11 = getelementptr inbounds { i64, i64 }, { i64, i64 }* %1, i32 0, i32 1, !dbg !1696
  %12 = load i64, i64* %11, align 8, !dbg !1696
  %13 = insertvalue { i64, i64 } undef, i64 %10, 0, !dbg !1696
  %14 = insertvalue { i64, i64 } %13, i64 %12, 1, !dbg !1696
  ret { i64, i64 } %14, !dbg !1696
}

; core::clone::impls::<impl core::clone::Clone for u32>::clone
; Function Attrs: inlinehint nounwind
define internal i32 @"_ZN4core5clone5impls52_$LT$impl$u20$core..clone..Clone$u20$for$u20$u32$GT$5clone17hb7203972272f6ec7E"(i32* align 4 dereferenceable(4) %self) unnamed_addr #0 !dbg !1697 {
start:
  %self.dbg.spill = alloca i32*, align 8
  store i32* %self, i32** %self.dbg.spill, align 8
  call void @llvm.dbg.declare(metadata i32** %self.dbg.spill, metadata !1705, metadata !DIExpression()), !dbg !1706
  %0 = load i32, i32* %self, align 4, !dbg !1707
  ret i32 %0, !dbg !1708
}

; core::clone::impls::<impl core::clone::Clone for &T>::clone
; Function Attrs: inlinehint nounwind
define { [0 x i8]*, i64 } @"_ZN4core5clone5impls54_$LT$impl$u20$core..clone..Clone$u20$for$u20$$RF$T$GT$5clone17h8277ac2a34cc7585E"({ [0 x i8]*, i64 }* align 8 dereferenceable(16) %self) unnamed_addr #0 !dbg !1709 {
start:
  %self.dbg.spill = alloca { [0 x i8]*, i64 }*, align 8
  store { [0 x i8]*, i64 }* %self, { [0 x i8]*, i64 }** %self.dbg.spill, align 8
  call void @llvm.dbg.declare(metadata { [0 x i8]*, i64 }** %self.dbg.spill, metadata !1714, metadata !DIExpression()), !dbg !1715
  %0 = getelementptr inbounds { [0 x i8]*, i64 }, { [0 x i8]*, i64 }* %self, i32 0, i32 0, !dbg !1716
  %1 = load [0 x i8]*, [0 x i8]** %0, align 8, !dbg !1716, !nonnull !4
  %2 = getelementptr inbounds { [0 x i8]*, i64 }, { [0 x i8]*, i64 }* %self, i32 0, i32 1, !dbg !1716
  %3 = load i64, i64* %2, align 8, !dbg !1716
  %4 = insertvalue { [0 x i8]*, i64 } undef, [0 x i8]* %1, 0, !dbg !1717
  %5 = insertvalue { [0 x i8]*, i64 } %4, i64 %3, 1, !dbg !1717
  ret { [0 x i8]*, i64 } %5, !dbg !1717
}

; core::slice::<impl [T]>::iter
; Function Attrs: inlinehint nounwind
define { i8*, i8* } @"_ZN4core5slice29_$LT$impl$u20$$u5b$T$u5d$$GT$4iter17h0b5e5ff6e1736f79E"([0 x i8]* nonnull align 1 %self.0, i64 %self.1) unnamed_addr #0 !dbg !1718 {
start:
  %self.dbg.spill = alloca { [0 x i8]*, i64 }, align 8
  %0 = getelementptr inbounds { [0 x i8]*, i64 }, { [0 x i8]*, i64 }* %self.dbg.spill, i32 0, i32 0
  store [0 x i8]* %self.0, [0 x i8]** %0, align 8
  %1 = getelementptr inbounds { [0 x i8]*, i64 }, { [0 x i8]*, i64 }* %self.dbg.spill, i32 0, i32 1
  store i64 %self.1, i64* %1, align 8
  call void @llvm.dbg.declare(metadata { [0 x i8]*, i64 }* %self.dbg.spill, metadata !1724, metadata !DIExpression()), !dbg !1725
; call core::slice::iter::Iter<T>::new
  %2 = call { i8*, i8* } @"_ZN4core5slice4iter13Iter$LT$T$GT$3new17h19517c0a803acc75E"([0 x i8]* nonnull align 1 %self.0, i64 %self.1), !dbg !1726
  %3 = extractvalue { i8*, i8* } %2, 0, !dbg !1726
  %4 = extractvalue { i8*, i8* } %2, 1, !dbg !1726
  br label %bb1, !dbg !1726

bb1:                                              ; preds = %start
  %5 = insertvalue { i8*, i8* } undef, i8* %3, 0, !dbg !1727
  %6 = insertvalue { i8*, i8* } %5, i8* %4, 1, !dbg !1727
  ret { i8*, i8* } %6, !dbg !1727
}

; core::slice::<impl [T]>::iter
; Function Attrs: inlinehint nounwind
define { i64*, i64* } @"_ZN4core5slice29_$LT$impl$u20$$u5b$T$u5d$$GT$4iter17hbbd5c8e61954286aE"([0 x { [0 x i8]*, i64 }]* nonnull align 8 %self.0, i64 %self.1) unnamed_addr #0 !dbg !1728 {
start:
  %self.dbg.spill = alloca { [0 x { [0 x i8]*, i64 }]*, i64 }, align 8
  %0 = getelementptr inbounds { [0 x { [0 x i8]*, i64 }]*, i64 }, { [0 x { [0 x i8]*, i64 }]*, i64 }* %self.dbg.spill, i32 0, i32 0
  store [0 x { [0 x i8]*, i64 }]* %self.0, [0 x { [0 x i8]*, i64 }]** %0, align 8
  %1 = getelementptr inbounds { [0 x { [0 x i8]*, i64 }]*, i64 }, { [0 x { [0 x i8]*, i64 }]*, i64 }* %self.dbg.spill, i32 0, i32 1
  store i64 %self.1, i64* %1, align 8
  call void @llvm.dbg.declare(metadata { [0 x { [0 x i8]*, i64 }]*, i64 }* %self.dbg.spill, metadata !1738, metadata !DIExpression()), !dbg !1739
; call core::slice::iter::Iter<T>::new
  %2 = call { i64*, i64* } @"_ZN4core5slice4iter13Iter$LT$T$GT$3new17hfd52ff462031cde5E"([0 x { [0 x i8]*, i64 }]* nonnull align 8 %self.0, i64 %self.1), !dbg !1740
  %3 = extractvalue { i64*, i64* } %2, 0, !dbg !1740
  %4 = extractvalue { i64*, i64* } %2, 1, !dbg !1740
  br label %bb1, !dbg !1740

bb1:                                              ; preds = %start
  %5 = insertvalue { i64*, i64* } undef, i64* %3, 0, !dbg !1741
  %6 = insertvalue { i64*, i64* } %5, i64* %4, 1, !dbg !1741
  ret { i64*, i64* } %6, !dbg !1741
}

; core::slice::<impl [T]>::as_ptr
; Function Attrs: inlinehint nounwind
define { [0 x i8]*, i64 }* @"_ZN4core5slice29_$LT$impl$u20$$u5b$T$u5d$$GT$6as_ptr17h8baefb639a71709eE"([0 x { [0 x i8]*, i64 }]* nonnull align 8 %self.0, i64 %self.1) unnamed_addr #0 !dbg !1742 {
start:
  %self.dbg.spill = alloca { [0 x { [0 x i8]*, i64 }]*, i64 }, align 8
  %0 = getelementptr inbounds { [0 x { [0 x i8]*, i64 }]*, i64 }, { [0 x { [0 x i8]*, i64 }]*, i64 }* %self.dbg.spill, i32 0, i32 0
  store [0 x { [0 x i8]*, i64 }]* %self.0, [0 x { [0 x i8]*, i64 }]** %0, align 8
  %1 = getelementptr inbounds { [0 x { [0 x i8]*, i64 }]*, i64 }, { [0 x { [0 x i8]*, i64 }]*, i64 }* %self.dbg.spill, i32 0, i32 1
  store i64 %self.1, i64* %1, align 8
  call void @llvm.dbg.declare(metadata { [0 x { [0 x i8]*, i64 }]*, i64 }* %self.dbg.spill, metadata !1746, metadata !DIExpression()), !dbg !1747
  %2 = bitcast [0 x { [0 x i8]*, i64 }]* %self.0 to { [0 x i8]*, i64 }*, !dbg !1748
  ret { [0 x i8]*, i64 }* %2, !dbg !1749
}

; core::slice::<impl [T]>::as_ptr
; Function Attrs: inlinehint nounwind
define i8* @"_ZN4core5slice29_$LT$impl$u20$$u5b$T$u5d$$GT$6as_ptr17hb1a4a6933b9ea025E"([0 x i8]* nonnull align 1 %self.0, i64 %self.1) unnamed_addr #0 !dbg !1750 {
start:
  %self.dbg.spill = alloca { [0 x i8]*, i64 }, align 8
  %0 = getelementptr inbounds { [0 x i8]*, i64 }, { [0 x i8]*, i64 }* %self.dbg.spill, i32 0, i32 0
  store [0 x i8]* %self.0, [0 x i8]** %0, align 8
  %1 = getelementptr inbounds { [0 x i8]*, i64 }, { [0 x i8]*, i64 }* %self.dbg.spill, i32 0, i32 1
  store i64 %self.1, i64* %1, align 8
  call void @llvm.dbg.declare(metadata { [0 x i8]*, i64 }* %self.dbg.spill, metadata !1754, metadata !DIExpression()), !dbg !1755
  %2 = bitcast [0 x i8]* %self.0 to i8*, !dbg !1756
  ret i8* %2, !dbg !1757
}

; core::slice::iter::Iter<T>::new
; Function Attrs: inlinehint nounwind
define { i8*, i8* } @"_ZN4core5slice4iter13Iter$LT$T$GT$3new17h19517c0a803acc75E"([0 x i8]* nonnull align 1 %slice.0, i64 %slice.1) unnamed_addr #0 !dbg !1758 {
start:
  %0 = alloca i8*, align 8
  %count.dbg.spill.i.i1 = alloca i64, align 8
  %self.dbg.spill.i.i2 = alloca i8*, align 8
  %count.dbg.spill.i3 = alloca i64, align 8
  %self.dbg.spill.i4 = alloca i8*, align 8
  %1 = alloca i8*, align 8
  %count.dbg.spill.i.i = alloca i64, align 8
  %self.dbg.spill.i.i = alloca i8*, align 8
  %count.dbg.spill.i = alloca i64, align 8
  %self.dbg.spill.i = alloca i8*, align 8
  %ptr.dbg.spill = alloca i8*, align 8
  %slice.dbg.spill = alloca { [0 x i8]*, i64 }, align 8
  %end = alloca i8*, align 8
  %2 = alloca { i8*, i8* }, align 8
  %3 = getelementptr inbounds { [0 x i8]*, i64 }, { [0 x i8]*, i64 }* %slice.dbg.spill, i32 0, i32 0
  store [0 x i8]* %slice.0, [0 x i8]** %3, align 8
  %4 = getelementptr inbounds { [0 x i8]*, i64 }, { [0 x i8]*, i64 }* %slice.dbg.spill, i32 0, i32 1
  store i64 %slice.1, i64* %4, align 8
  call void @llvm.dbg.declare(metadata { [0 x i8]*, i64 }* %slice.dbg.spill, metadata !1761, metadata !DIExpression()), !dbg !1766
  call void @llvm.dbg.declare(metadata i8** %end, metadata !1764, metadata !DIExpression()), !dbg !1767
; call core::slice::<impl [T]>::as_ptr
  %ptr = call i8* @"_ZN4core5slice29_$LT$impl$u20$$u5b$T$u5d$$GT$6as_ptr17hb1a4a6933b9ea025E"([0 x i8]* nonnull align 1 %slice.0, i64 %slice.1), !dbg !1768
  store i8* %ptr, i8** %ptr.dbg.spill, align 8, !dbg !1768
  call void @llvm.dbg.declare(metadata i8** %ptr.dbg.spill, metadata !1762, metadata !DIExpression()), !dbg !1769
  br label %bb1, !dbg !1768

bb1:                                              ; preds = %start
; call core::ptr::const_ptr::<impl *const T>::is_null
  %_6 = call zeroext i1 @"_ZN4core3ptr9const_ptr33_$LT$impl$u20$$BP$const$u20$T$GT$7is_null17hf2eeacbe18ac206aE"(i8* %ptr), !dbg !1770
  br label %bb2, !dbg !1770

bb2:                                              ; preds = %bb1
  %_5 = xor i1 %_6, true, !dbg !1771
  call void @llvm.assume(i1 %_5), !dbg !1772
  br label %bb3, !dbg !1772

bb3:                                              ; preds = %bb2
  br label %bb4, !dbg !1773

bb4:                                              ; preds = %bb3
  %5 = icmp eq i64 1, 0, !dbg !1773
  br i1 %5, label %bb5, label %bb7, !dbg !1773

bb5:                                              ; preds = %bb4
  store i8* %ptr, i8** %self.dbg.spill.i, align 8
  call void @llvm.dbg.declare(metadata i8** %self.dbg.spill.i, metadata !1774, metadata !DIExpression()), !dbg !1780
  store i64 %slice.1, i64* %count.dbg.spill.i, align 8
  call void @llvm.dbg.declare(metadata i64* %count.dbg.spill.i, metadata !1779, metadata !DIExpression()), !dbg !1782
  store i8* %ptr, i8** %self.dbg.spill.i.i, align 8
  call void @llvm.dbg.declare(metadata i8** %self.dbg.spill.i.i, metadata !1783, metadata !DIExpression()), !dbg !1790
  store i64 %slice.1, i64* %count.dbg.spill.i.i, align 8
  call void @llvm.dbg.declare(metadata i64* %count.dbg.spill.i.i, metadata !1789, metadata !DIExpression()), !dbg !1792
  %6 = getelementptr i8, i8* %ptr, i64 %slice.1, !dbg !1793
  store i8* %6, i8** %1, align 8, !dbg !1793
  %7 = load i8*, i8** %1, align 8, !dbg !1793
  br label %bb6, !dbg !1794

bb7:                                              ; preds = %bb4
  store i8* %ptr, i8** %self.dbg.spill.i4, align 8
  call void @llvm.dbg.declare(metadata i8** %self.dbg.spill.i4, metadata !1795, metadata !DIExpression()), !dbg !1799
  store i64 %slice.1, i64* %count.dbg.spill.i3, align 8
  call void @llvm.dbg.declare(metadata i64* %count.dbg.spill.i3, metadata !1798, metadata !DIExpression()), !dbg !1801
  store i8* %ptr, i8** %self.dbg.spill.i.i2, align 8
  call void @llvm.dbg.declare(metadata i8** %self.dbg.spill.i.i2, metadata !1802, metadata !DIExpression()), !dbg !1806
  store i64 %slice.1, i64* %count.dbg.spill.i.i1, align 8
  call void @llvm.dbg.declare(metadata i64* %count.dbg.spill.i.i1, metadata !1805, metadata !DIExpression()), !dbg !1808
  %8 = getelementptr inbounds i8, i8* %ptr, i64 %slice.1, !dbg !1809
  store i8* %8, i8** %0, align 8, !dbg !1809
  %9 = load i8*, i8** %0, align 8, !dbg !1809
  store i8* %9, i8** %end, align 8, !dbg !1810
  br label %bb8, !dbg !1810

bb8:                                              ; preds = %bb7
  br label %bb9, !dbg !1811

bb9:                                              ; preds = %bb6, %bb8
; call core::ptr::non_null::NonNull<T>::new_unchecked
  %_18 = call nonnull i8* @"_ZN4core3ptr8non_null16NonNull$LT$T$GT$13new_unchecked17h4dc771f164818da4E"(i8* %ptr), !dbg !1812
  br label %bb10, !dbg !1812

bb6:                                              ; preds = %bb5
  store i8* %7, i8** %end, align 8, !dbg !1794
  br label %bb9, !dbg !1811

bb10:                                             ; preds = %bb9
  %_21 = load i8*, i8** %end, align 8, !dbg !1813
  %10 = bitcast { i8*, i8* }* %2 to i8**, !dbg !1814
  store i8* %_18, i8** %10, align 8, !dbg !1814
  %11 = getelementptr inbounds { i8*, i8* }, { i8*, i8* }* %2, i32 0, i32 1, !dbg !1814
  store i8* %_21, i8** %11, align 8, !dbg !1814
  %12 = getelementptr inbounds { i8*, i8* }, { i8*, i8* }* %2, i32 0, i32 0, !dbg !1815
  %13 = load i8*, i8** %12, align 8, !dbg !1815, !nonnull !4
  %14 = getelementptr inbounds { i8*, i8* }, { i8*, i8* }* %2, i32 0, i32 1, !dbg !1815
  %15 = load i8*, i8** %14, align 8, !dbg !1815
  %16 = insertvalue { i8*, i8* } undef, i8* %13, 0, !dbg !1815
  %17 = insertvalue { i8*, i8* } %16, i8* %15, 1, !dbg !1815
  ret { i8*, i8* } %17, !dbg !1815
}

; core::slice::iter::Iter<T>::new
; Function Attrs: inlinehint nounwind
define { i64*, i64* } @"_ZN4core5slice4iter13Iter$LT$T$GT$3new17hfd52ff462031cde5E"([0 x { [0 x i8]*, i64 }]* nonnull align 8 %slice.0, i64 %slice.1) unnamed_addr #0 !dbg !1816 {
start:
  %0 = alloca { [0 x i8]*, i64 }*, align 8
  %count.dbg.spill.i.i1 = alloca i64, align 8
  %self.dbg.spill.i.i2 = alloca { [0 x i8]*, i64 }*, align 8
  %count.dbg.spill.i3 = alloca i64, align 8
  %self.dbg.spill.i4 = alloca { [0 x i8]*, i64 }*, align 8
  %1 = alloca i8*, align 8
  %count.dbg.spill.i.i = alloca i64, align 8
  %self.dbg.spill.i.i = alloca i8*, align 8
  %count.dbg.spill.i = alloca i64, align 8
  %self.dbg.spill.i = alloca i8*, align 8
  %ptr.dbg.spill = alloca { [0 x i8]*, i64 }*, align 8
  %slice.dbg.spill = alloca { [0 x { [0 x i8]*, i64 }]*, i64 }, align 8
  %end = alloca { [0 x i8]*, i64 }*, align 8
  %2 = alloca { i64*, i64* }, align 8
  %3 = getelementptr inbounds { [0 x { [0 x i8]*, i64 }]*, i64 }, { [0 x { [0 x i8]*, i64 }]*, i64 }* %slice.dbg.spill, i32 0, i32 0
  store [0 x { [0 x i8]*, i64 }]* %slice.0, [0 x { [0 x i8]*, i64 }]** %3, align 8
  %4 = getelementptr inbounds { [0 x { [0 x i8]*, i64 }]*, i64 }, { [0 x { [0 x i8]*, i64 }]*, i64 }* %slice.dbg.spill, i32 0, i32 1
  store i64 %slice.1, i64* %4, align 8
  call void @llvm.dbg.declare(metadata { [0 x { [0 x i8]*, i64 }]*, i64 }* %slice.dbg.spill, metadata !1818, metadata !DIExpression()), !dbg !1823
  call void @llvm.dbg.declare(metadata { [0 x i8]*, i64 }** %end, metadata !1821, metadata !DIExpression()), !dbg !1824
; call core::slice::<impl [T]>::as_ptr
  %ptr = call { [0 x i8]*, i64 }* @"_ZN4core5slice29_$LT$impl$u20$$u5b$T$u5d$$GT$6as_ptr17h8baefb639a71709eE"([0 x { [0 x i8]*, i64 }]* nonnull align 8 %slice.0, i64 %slice.1), !dbg !1825
  store { [0 x i8]*, i64 }* %ptr, { [0 x i8]*, i64 }** %ptr.dbg.spill, align 8, !dbg !1825
  call void @llvm.dbg.declare(metadata { [0 x i8]*, i64 }** %ptr.dbg.spill, metadata !1819, metadata !DIExpression()), !dbg !1826
  br label %bb1, !dbg !1825

bb1:                                              ; preds = %start
; call core::ptr::const_ptr::<impl *const T>::is_null
  %_6 = call zeroext i1 @"_ZN4core3ptr9const_ptr33_$LT$impl$u20$$BP$const$u20$T$GT$7is_null17h113522e86b98d089E"({ [0 x i8]*, i64 }* %ptr), !dbg !1827
  br label %bb2, !dbg !1827

bb2:                                              ; preds = %bb1
  %_5 = xor i1 %_6, true, !dbg !1828
  call void @llvm.assume(i1 %_5), !dbg !1829
  br label %bb3, !dbg !1829

bb3:                                              ; preds = %bb2
  br label %bb4, !dbg !1830

bb4:                                              ; preds = %bb3
  %5 = icmp eq i64 16, 0, !dbg !1830
  br i1 %5, label %bb5, label %bb7, !dbg !1830

bb5:                                              ; preds = %bb4
  %_11 = bitcast { [0 x i8]*, i64 }* %ptr to i8*, !dbg !1831
  store i8* %_11, i8** %self.dbg.spill.i, align 8
  call void @llvm.dbg.declare(metadata i8** %self.dbg.spill.i, metadata !1774, metadata !DIExpression()), !dbg !1832
  store i64 %slice.1, i64* %count.dbg.spill.i, align 8
  call void @llvm.dbg.declare(metadata i64* %count.dbg.spill.i, metadata !1779, metadata !DIExpression()), !dbg !1834
  store i8* %_11, i8** %self.dbg.spill.i.i, align 8
  call void @llvm.dbg.declare(metadata i8** %self.dbg.spill.i.i, metadata !1783, metadata !DIExpression()), !dbg !1835
  store i64 %slice.1, i64* %count.dbg.spill.i.i, align 8
  call void @llvm.dbg.declare(metadata i64* %count.dbg.spill.i.i, metadata !1789, metadata !DIExpression()), !dbg !1837
  %6 = getelementptr i8, i8* %_11, i64 %slice.1, !dbg !1838
  store i8* %6, i8** %1, align 8, !dbg !1838
  %7 = load i8*, i8** %1, align 8, !dbg !1838
  br label %bb6, !dbg !1831

bb7:                                              ; preds = %bb4
  store { [0 x i8]*, i64 }* %ptr, { [0 x i8]*, i64 }** %self.dbg.spill.i4, align 8
  call void @llvm.dbg.declare(metadata { [0 x i8]*, i64 }** %self.dbg.spill.i4, metadata !1839, metadata !DIExpression()), !dbg !1845
  store i64 %slice.1, i64* %count.dbg.spill.i3, align 8
  call void @llvm.dbg.declare(metadata i64* %count.dbg.spill.i3, metadata !1844, metadata !DIExpression()), !dbg !1847
  store { [0 x i8]*, i64 }* %ptr, { [0 x i8]*, i64 }** %self.dbg.spill.i.i2, align 8
  call void @llvm.dbg.declare(metadata { [0 x i8]*, i64 }** %self.dbg.spill.i.i2, metadata !1848, metadata !DIExpression()), !dbg !1854
  store i64 %slice.1, i64* %count.dbg.spill.i.i1, align 8
  call void @llvm.dbg.declare(metadata i64* %count.dbg.spill.i.i1, metadata !1853, metadata !DIExpression()), !dbg !1856
  %8 = getelementptr inbounds { [0 x i8]*, i64 }, { [0 x i8]*, i64 }* %ptr, i64 %slice.1, !dbg !1857
  store { [0 x i8]*, i64 }* %8, { [0 x i8]*, i64 }** %0, align 8, !dbg !1857
  %9 = load { [0 x i8]*, i64 }*, { [0 x i8]*, i64 }** %0, align 8, !dbg !1857
  store { [0 x i8]*, i64 }* %9, { [0 x i8]*, i64 }** %end, align 8, !dbg !1858
  br label %bb8, !dbg !1858

bb8:                                              ; preds = %bb7
  br label %bb9, !dbg !1859

bb9:                                              ; preds = %bb6, %bb8
; call core::ptr::non_null::NonNull<T>::new_unchecked
  %_18 = call nonnull i64* @"_ZN4core3ptr8non_null16NonNull$LT$T$GT$13new_unchecked17h363b9aa771cbed47E"({ [0 x i8]*, i64 }* %ptr), !dbg !1860
  br label %bb10, !dbg !1860

bb6:                                              ; preds = %bb5
  %10 = bitcast i8* %7 to { [0 x i8]*, i64 }*, !dbg !1831
  store { [0 x i8]*, i64 }* %10, { [0 x i8]*, i64 }** %end, align 8, !dbg !1831
  br label %bb9, !dbg !1859

bb10:                                             ; preds = %bb9
  %_21 = load { [0 x i8]*, i64 }*, { [0 x i8]*, i64 }** %end, align 8, !dbg !1861
  %11 = bitcast { i64*, i64* }* %2 to i64**, !dbg !1862
  store i64* %_18, i64** %11, align 8, !dbg !1862
  %12 = getelementptr inbounds { i64*, i64* }, { i64*, i64* }* %2, i32 0, i32 1, !dbg !1862
  %13 = bitcast i64** %12 to { [0 x i8]*, i64 }**, !dbg !1862
  store { [0 x i8]*, i64 }* %_21, { [0 x i8]*, i64 }** %13, align 8, !dbg !1862
  %14 = getelementptr inbounds { i64*, i64* }, { i64*, i64* }* %2, i32 0, i32 0, !dbg !1863
  %15 = load i64*, i64** %14, align 8, !dbg !1863, !nonnull !4
  %16 = getelementptr inbounds { i64*, i64* }, { i64*, i64* }* %2, i32 0, i32 1, !dbg !1863
  %17 = load i64*, i64** %16, align 8, !dbg !1863
  %18 = insertvalue { i64*, i64* } undef, i64* %15, 0, !dbg !1863
  %19 = insertvalue { i64*, i64* } %18, i64* %17, 1, !dbg !1863
  ret { i64*, i64* } %19, !dbg !1863
}

; core::option::Option<T>::map
; Function Attrs: inlinehint nounwind
define void @"_ZN4core6option15Option$LT$T$GT$3map17h93a7abfef745fcc5E"(%"core::option::Option<MaybeStaticStr>"* noalias nocapture sret(%"core::option::Option<MaybeStaticStr>") dereferenceable(24) %0, i8* align 1 %1, i64 %2) unnamed_addr #0 !dbg !1864 {
start:
  %x.dbg.spill = alloca { [0 x i8]*, i64 }, align 8
  %f.dbg.spill = alloca {}, align 1
  %_9 = alloca i8, align 1
  %_7 = alloca { i8*, i64 }, align 8
  %_5 = alloca %MaybeStaticStr, align 8
  %self = alloca { i8*, i64 }, align 8
  %3 = getelementptr inbounds { i8*, i64 }, { i8*, i64 }* %self, i32 0, i32 0
  store i8* %1, i8** %3, align 8
  %4 = getelementptr inbounds { i8*, i64 }, { i8*, i64 }* %self, i32 0, i32 1
  store i64 %2, i64* %4, align 8
  call void @llvm.dbg.declare(metadata { i8*, i64 }* %self, metadata !1879, metadata !DIExpression()), !dbg !1886
  call void @llvm.dbg.declare(metadata {}* %f.dbg.spill, metadata !1880, metadata !DIExpression()), !dbg !1887
  store i8 0, i8* %_9, align 1, !dbg !1888
  store i8 1, i8* %_9, align 1, !dbg !1888
  %5 = bitcast { i8*, i64 }* %self to {}**, !dbg !1888
  %6 = load {}*, {}** %5, align 8, !dbg !1888
  %7 = icmp eq {}* %6, null, !dbg !1888
  %_3 = select i1 %7, i64 0, i64 1, !dbg !1888
  switch i64 %_3, label %bb2 [
    i64 0, label %bb1
    i64 1, label %bb3
  ], !dbg !1889

bb2:                                              ; preds = %start
  unreachable, !dbg !1888

bb1:                                              ; preds = %start
  %8 = bitcast %"core::option::Option<MaybeStaticStr>"* %0 to i64*, !dbg !1890
  store i64 2, i64* %8, align 8, !dbg !1890
  br label %bb7, !dbg !1890

bb3:                                              ; preds = %start
  %9 = bitcast { i8*, i64 }* %self to { [0 x i8]*, i64 }*, !dbg !1891
  %10 = getelementptr inbounds { [0 x i8]*, i64 }, { [0 x i8]*, i64 }* %9, i32 0, i32 0, !dbg !1891
  %x.0 = load [0 x i8]*, [0 x i8]** %10, align 8, !dbg !1891, !nonnull !4
  %11 = getelementptr inbounds { [0 x i8]*, i64 }, { [0 x i8]*, i64 }* %9, i32 0, i32 1, !dbg !1891
  %x.1 = load i64, i64* %11, align 8, !dbg !1891
  %12 = getelementptr inbounds { [0 x i8]*, i64 }, { [0 x i8]*, i64 }* %x.dbg.spill, i32 0, i32 0, !dbg !1891
  store [0 x i8]* %x.0, [0 x i8]** %12, align 8, !dbg !1891
  %13 = getelementptr inbounds { [0 x i8]*, i64 }, { [0 x i8]*, i64 }* %x.dbg.spill, i32 0, i32 1, !dbg !1891
  store i64 %x.1, i64* %13, align 8, !dbg !1891
  call void @llvm.dbg.declare(metadata { [0 x i8]*, i64 }* %x.dbg.spill, metadata !1881, metadata !DIExpression()), !dbg !1892
  store i8 0, i8* %_9, align 1, !dbg !1893
  %14 = bitcast { i8*, i64 }* %_7 to { [0 x i8]*, i64 }*, !dbg !1893
  %15 = getelementptr inbounds { [0 x i8]*, i64 }, { [0 x i8]*, i64 }* %14, i32 0, i32 0, !dbg !1893
  store [0 x i8]* %x.0, [0 x i8]** %15, align 8, !dbg !1893
  %16 = getelementptr inbounds { [0 x i8]*, i64 }, { [0 x i8]*, i64 }* %14, i32 0, i32 1, !dbg !1893
  store i64 %x.1, i64* %16, align 8, !dbg !1893
  %17 = getelementptr inbounds { i8*, i64 }, { i8*, i64 }* %_7, i32 0, i32 0, !dbg !1893
  %18 = load i8*, i8** %17, align 8, !dbg !1893, !nonnull !4
  %19 = getelementptr inbounds { i8*, i64 }, { i8*, i64 }* %_7, i32 0, i32 1, !dbg !1893
  %20 = load i64, i64* %19, align 8, !dbg !1893
  %21 = bitcast i8* %18 to [0 x i8]*, !dbg !1893
; call core::ops::function::FnOnce::call_once
  call void @_ZN4core3ops8function6FnOnce9call_once17h85eca909b47b830cE(%MaybeStaticStr* noalias nocapture sret(%MaybeStaticStr) dereferenceable(24) %_5, [0 x i8]* nonnull align 1 %21, i64 %20), !dbg !1893
  br label %bb4, !dbg !1893

bb4:                                              ; preds = %bb3
  %22 = bitcast %"core::option::Option<MaybeStaticStr>"* %0 to %"core::option::Option<MaybeStaticStr>::Some"*, !dbg !1894
  %23 = bitcast %"core::option::Option<MaybeStaticStr>::Some"* %22 to %MaybeStaticStr*, !dbg !1894
  %24 = bitcast %MaybeStaticStr* %23 to i8*, !dbg !1894
  %25 = bitcast %MaybeStaticStr* %_5 to i8*, !dbg !1894
  call void @llvm.memcpy.p0i8.p0i8.i64(i8* align 8 %24, i8* align 8 %25, i64 24, i1 false), !dbg !1894
  br label %bb7, !dbg !1895

bb7:                                              ; preds = %bb1, %bb4
  %26 = load i8, i8* %_9, align 1, !dbg !1895, !range !473
  %27 = trunc i8 %26 to i1, !dbg !1895
  br i1 %27, label %bb6, label %bb5, !dbg !1895

bb5:                                              ; preds = %bb6, %bb7
  ret void, !dbg !1896

bb6:                                              ; preds = %bb7
  br label %bb5, !dbg !1895
}

; core::option::Option<T>::map
; Function Attrs: inlinehint nounwind
define i64 @"_ZN4core6option15Option$LT$T$GT$3map17hd2ca6782674f233cE"(i64 %0, i64 %1) unnamed_addr #0 !dbg !1897 {
start:
  %x.dbg.spill = alloca i64, align 8
  %f.dbg.spill = alloca %"[closure@/root/.cargo/registry/src/github.com-1ecc6299db9ec823/log-0.4.14/src/lib.rs:681:22: 681:61]", align 1
  %_9 = alloca i8, align 1
  %_7 = alloca i64, align 8
  %2 = alloca i64, align 8
  %self = alloca { i64, i64 }, align 8
  %3 = getelementptr inbounds { i64, i64 }, { i64, i64 }* %self, i32 0, i32 0
  store i64 %0, i64* %3, align 8
  %4 = getelementptr inbounds { i64, i64 }, { i64, i64 }* %self, i32 0, i32 1
  store i64 %1, i64* %4, align 8
  call void @llvm.dbg.declare(metadata { i64, i64 }* %self, metadata !1916, metadata !DIExpression()), !dbg !1923
  call void @llvm.dbg.declare(metadata %"[closure@/root/.cargo/registry/src/github.com-1ecc6299db9ec823/log-0.4.14/src/lib.rs:681:22: 681:61]"* %f.dbg.spill, metadata !1917, metadata !DIExpression()), !dbg !1924
  store i8 0, i8* %_9, align 1, !dbg !1925
  store i8 1, i8* %_9, align 1, !dbg !1925
  %5 = bitcast { i64, i64 }* %self to i64*, !dbg !1925
  %_3 = load i64, i64* %5, align 8, !dbg !1925, !range !510
  switch i64 %_3, label %bb2 [
    i64 0, label %bb1
    i64 1, label %bb3
  ], !dbg !1926

bb2:                                              ; preds = %start
  unreachable, !dbg !1925

bb1:                                              ; preds = %start
  store i64 6, i64* %2, align 8, !dbg !1927
  br label %bb7, !dbg !1927

bb3:                                              ; preds = %start
  %6 = bitcast { i64, i64 }* %self to %"core::option::Option<usize>::Some"*, !dbg !1928
  %7 = getelementptr inbounds %"core::option::Option<usize>::Some", %"core::option::Option<usize>::Some"* %6, i32 0, i32 1, !dbg !1928
  %x = load i64, i64* %7, align 8, !dbg !1928
  store i64 %x, i64* %x.dbg.spill, align 8, !dbg !1928
  call void @llvm.dbg.declare(metadata i64* %x.dbg.spill, metadata !1918, metadata !DIExpression()), !dbg !1929
  store i8 0, i8* %_9, align 1, !dbg !1930
  store i64 %x, i64* %_7, align 8, !dbg !1930
  %8 = load i64, i64* %_7, align 8, !dbg !1930
; call <log::LevelFilter as core::str::traits::FromStr>::from_str::{{closure}}
  %_5 = call i64 @"_ZN63_$LT$log..LevelFilter$u20$as$u20$core..str..traits..FromStr$GT$8from_str28_$u7b$$u7b$closure$u7d$$u7d$17h3f359460fc73db7dE"(i64 %8), !dbg !1930, !range !1931
  br label %bb4, !dbg !1930

bb4:                                              ; preds = %bb3
  store i64 %_5, i64* %2, align 8, !dbg !1932
  br label %bb7, !dbg !1933

bb7:                                              ; preds = %bb1, %bb4
  %9 = load i8, i8* %_9, align 1, !dbg !1933, !range !473
  %10 = trunc i8 %9 to i1, !dbg !1933
  br i1 %10, label %bb6, label %bb5, !dbg !1933

bb5:                                              ; preds = %bb6, %bb7
  %11 = load i64, i64* %2, align 8, !dbg !1934, !range !1935
  ret i64 %11, !dbg !1934

bb6:                                              ; preds = %bb7
  br label %bb5, !dbg !1933
}

; core::option::Option<T>::map
; Function Attrs: inlinehint nounwind
define i64 @"_ZN4core6option15Option$LT$T$GT$3map17hf0a9317ad200a8ceE"(i64 %0, i64 %1, %"[closure@/root/.cargo/registry/src/github.com-1ecc6299db9ec823/log-0.4.14/src/lib.rs:520:22: 520:59]"* nonnull align 1 %f) unnamed_addr #0 !dbg !1936 {
start:
  %x.dbg.spill = alloca i64, align 8
  %f.dbg.spill = alloca %"[closure@/root/.cargo/registry/src/github.com-1ecc6299db9ec823/log-0.4.14/src/lib.rs:520:22: 520:59]"*, align 8
  %_9 = alloca i8, align 1
  %_7 = alloca i64, align 8
  %2 = alloca i64, align 8
  %self = alloca { i64, i64 }, align 8
  %3 = getelementptr inbounds { i64, i64 }, { i64, i64 }* %self, i32 0, i32 0
  store i64 %0, i64* %3, align 8
  %4 = getelementptr inbounds { i64, i64 }, { i64, i64 }* %self, i32 0, i32 1
  store i64 %1, i64* %4, align 8
  call void @llvm.dbg.declare(metadata { i64, i64 }* %self, metadata !1940, metadata !DIExpression()), !dbg !1947
  store %"[closure@/root/.cargo/registry/src/github.com-1ecc6299db9ec823/log-0.4.14/src/lib.rs:520:22: 520:59]"* %f, %"[closure@/root/.cargo/registry/src/github.com-1ecc6299db9ec823/log-0.4.14/src/lib.rs:520:22: 520:59]"** %f.dbg.spill, align 8
  call void @llvm.dbg.declare(metadata %"[closure@/root/.cargo/registry/src/github.com-1ecc6299db9ec823/log-0.4.14/src/lib.rs:520:22: 520:59]"** %f.dbg.spill, metadata !1941, metadata !DIExpression()), !dbg !1948
  store i8 0, i8* %_9, align 1, !dbg !1949
  store i8 1, i8* %_9, align 1, !dbg !1949
  %5 = bitcast { i64, i64 }* %self to i64*, !dbg !1949
  %_3 = load i64, i64* %5, align 8, !dbg !1949, !range !510
  switch i64 %_3, label %bb2 [
    i64 0, label %bb1
    i64 1, label %bb3
  ], !dbg !1950

bb2:                                              ; preds = %start
  unreachable, !dbg !1949

bb1:                                              ; preds = %start
  store i64 6, i64* %2, align 8, !dbg !1951
  br label %bb7, !dbg !1951

bb3:                                              ; preds = %start
  %6 = bitcast { i64, i64 }* %self to %"core::option::Option<usize>::Some"*, !dbg !1952
  %7 = getelementptr inbounds %"core::option::Option<usize>::Some", %"core::option::Option<usize>::Some"* %6, i32 0, i32 1, !dbg !1952
  %x = load i64, i64* %7, align 8, !dbg !1952
  store i64 %x, i64* %x.dbg.spill, align 8, !dbg !1952
  call void @llvm.dbg.declare(metadata i64* %x.dbg.spill, metadata !1942, metadata !DIExpression()), !dbg !1953
  store i8 0, i8* %_9, align 1, !dbg !1954
  store i64 %x, i64* %_7, align 8, !dbg !1954
  %8 = load i64, i64* %_7, align 8, !dbg !1954
; call core::ops::function::impls::<impl core::ops::function::FnOnce<A> for &mut F>::call_once
  %_5 = call i64 @"_ZN4core3ops8function5impls80_$LT$impl$u20$core..ops..function..FnOnce$LT$A$GT$$u20$for$u20$$RF$mut$u20$F$GT$9call_once17haa2c311b93246535E"(%"[closure@/root/.cargo/registry/src/github.com-1ecc6299db9ec823/log-0.4.14/src/lib.rs:520:22: 520:59]"* nonnull align 1 %f, i64 %8), !dbg !1954, !range !967
  br label %bb4, !dbg !1954

bb4:                                              ; preds = %bb3
  store i64 %_5, i64* %2, align 8, !dbg !1955
  br label %bb7, !dbg !1956

bb7:                                              ; preds = %bb1, %bb4
  %9 = load i8, i8* %_9, align 1, !dbg !1956, !range !473
  %10 = trunc i8 %9 to i1, !dbg !1956
  br i1 %10, label %bb6, label %bb5, !dbg !1956

bb5:                                              ; preds = %bb6, %bb7
  %11 = load i64, i64* %2, align 8, !dbg !1957, !range !344
  ret i64 %11, !dbg !1957

bb6:                                              ; preds = %bb7
  br label %bb5, !dbg !1956
}

; core::option::Option<T>::take
; Function Attrs: inlinehint nounwind
define { i64, i64 } @"_ZN4core6option15Option$LT$T$GT$4take17hf55e0ae67f1a4124E"({ i64, i64 }* align 8 dereferenceable(16) %self) unnamed_addr #0 !dbg !1958 {
start:
  %self.dbg.spill = alloca { i64, i64 }*, align 8
  store { i64, i64 }* %self, { i64, i64 }** %self.dbg.spill, align 8
  call void @llvm.dbg.declare(metadata { i64, i64 }** %self.dbg.spill, metadata !1960, metadata !DIExpression()), !dbg !1961
; call core::mem::take
  %0 = call { i64, i64 } @_ZN4core3mem4take17h8741cd25dbca93f3E({ i64, i64 }* align 8 dereferenceable(16) %self), !dbg !1962
  %1 = extractvalue { i64, i64 } %0, 0, !dbg !1962
  %2 = extractvalue { i64, i64 } %0, 1, !dbg !1962
  br label %bb1, !dbg !1962

bb1:                                              ; preds = %start
  %3 = insertvalue { i64, i64 } undef, i64 %1, 0, !dbg !1963
  %4 = insertvalue { i64, i64 } %3, i64 %2, 1, !dbg !1963
  ret { i64, i64 } %4, !dbg !1963
}

; core::option::Option<T>::unwrap
; Function Attrs: inlinehint nounwind
define i64 @"_ZN4core6option15Option$LT$T$GT$6unwrap17h264255bd88f1eb11E"(i64 %0, %"core::panic::Location"* align 8 dereferenceable(24) %1) unnamed_addr #0 !dbg !1964 {
start:
  %val.dbg.spill = alloca i64, align 8
  %self = alloca i64, align 8
  store i64 %0, i64* %self, align 8
  call void @llvm.dbg.declare(metadata i64* %self, metadata !1968, metadata !DIExpression()), !dbg !1971
  %2 = load i64, i64* %self, align 8, !dbg !1972, !range !344
  %3 = sub i64 %2, 6, !dbg !1972
  %4 = icmp eq i64 %3, 0, !dbg !1972
  %_2 = select i1 %4, i64 0, i64 1, !dbg !1972
  switch i64 %_2, label %bb2 [
    i64 0, label %bb1
    i64 1, label %bb3
  ], !dbg !1973

bb2:                                              ; preds = %start
  unreachable, !dbg !1972

bb1:                                              ; preds = %start
; call core::panicking::panic
  call void @_ZN4core9panicking5panic17h560e3e4b7752857aE([0 x i8]* nonnull align 1 bitcast (<{ [43 x i8] }>* @alloc348 to [0 x i8]*), i64 43, %"core::panic::Location"* align 8 dereferenceable(24) %1), !dbg !1974
  unreachable, !dbg !1974

bb3:                                              ; preds = %start
  %val = load i64, i64* %self, align 8, !dbg !1975, !range !967
  store i64 %val, i64* %val.dbg.spill, align 8, !dbg !1975
  call void @llvm.dbg.declare(metadata i64* %val.dbg.spill, metadata !1969, metadata !DIExpression()), !dbg !1976
  ret i64 %val, !dbg !1977
}

; core::option::Option<T>::unwrap
; Function Attrs: inlinehint nounwind
define i64 @"_ZN4core6option15Option$LT$T$GT$6unwrap17h728025b548506a21E"(i64 %0, %"core::panic::Location"* align 8 dereferenceable(24) %1) unnamed_addr #0 !dbg !1978 {
start:
  %val.dbg.spill = alloca i64, align 8
  %self = alloca i64, align 8
  store i64 %0, i64* %self, align 8
  call void @llvm.dbg.declare(metadata i64* %self, metadata !1982, metadata !DIExpression()), !dbg !1985
  %2 = load i64, i64* %self, align 8, !dbg !1986, !range !1935
  %3 = sub i64 %2, 6, !dbg !1986
  %4 = icmp eq i64 %3, 0, !dbg !1986
  %_2 = select i1 %4, i64 0, i64 1, !dbg !1986
  switch i64 %_2, label %bb2 [
    i64 0, label %bb1
    i64 1, label %bb3
  ], !dbg !1987

bb2:                                              ; preds = %start
  unreachable, !dbg !1986

bb1:                                              ; preds = %start
; call core::panicking::panic
  call void @_ZN4core9panicking5panic17h560e3e4b7752857aE([0 x i8]* nonnull align 1 bitcast (<{ [43 x i8] }>* @alloc348 to [0 x i8]*), i64 43, %"core::panic::Location"* align 8 dereferenceable(24) %1), !dbg !1988
  unreachable, !dbg !1988

bb3:                                              ; preds = %start
  %val = load i64, i64* %self, align 8, !dbg !1989, !range !1931
  store i64 %val, i64* %val.dbg.spill, align 8, !dbg !1989
  call void @llvm.dbg.declare(metadata i64* %val.dbg.spill, metadata !1983, metadata !DIExpression()), !dbg !1990
  ret i64 %val, !dbg !1991
}

; <core::fmt::Arguments as core::clone::Clone>::clone
; Function Attrs: inlinehint nounwind
define internal void @"_ZN59_$LT$core..fmt..Arguments$u20$as$u20$core..clone..Clone$GT$5clone17h4739bed1698f2d85E"(%"core::fmt::Arguments"* noalias nocapture sret(%"core::fmt::Arguments") dereferenceable(48) %0, %"core::fmt::Arguments"* align 8 dereferenceable(48) %self) unnamed_addr #0 !dbg !1992 {
start:
  %self.dbg.spill = alloca %"core::fmt::Arguments"*, align 8
  store %"core::fmt::Arguments"* %self, %"core::fmt::Arguments"** %self.dbg.spill, align 8
  call void @llvm.dbg.declare(metadata %"core::fmt::Arguments"** %self.dbg.spill, metadata !1997, metadata !DIExpression()), !dbg !1998
  %1 = bitcast %"core::fmt::Arguments"* %0 to i8*, !dbg !1998
  %2 = bitcast %"core::fmt::Arguments"* %self to i8*, !dbg !1998
  call void @llvm.memcpy.p0i8.p0i8.i64(i8* align 8 %1, i8* align 8 %2, i64 48, i1 false), !dbg !1998
  ret void, !dbg !1999
}

; <I as core::iter::traits::collect::IntoIterator>::into_iter
; Function Attrs: inlinehint nounwind
define { i8*, i8* } @"_ZN63_$LT$I$u20$as$u20$core..iter..traits..collect..IntoIterator$GT$9into_iter17hd5f3c09e85b99246E"(i8* nonnull %self.0, i8* %self.1) unnamed_addr #0 !dbg !2000 {
start:
  %self.dbg.spill = alloca { i8*, i8* }, align 8
  %0 = getelementptr inbounds { i8*, i8* }, { i8*, i8* }* %self.dbg.spill, i32 0, i32 0
  store i8* %self.0, i8** %0, align 8
  %1 = getelementptr inbounds { i8*, i8* }, { i8*, i8* }* %self.dbg.spill, i32 0, i32 1
  store i8* %self.1, i8** %1, align 8
  call void @llvm.dbg.declare(metadata { i8*, i8* }* %self.dbg.spill, metadata !2007, metadata !DIExpression()), !dbg !2010
  %2 = insertvalue { i8*, i8* } undef, i8* %self.0, 0, !dbg !2011
  %3 = insertvalue { i8*, i8* } %2, i8* %self.1, 1, !dbg !2011
  ret { i8*, i8* } %3, !dbg !2011
}

; <core::option::Option<T> as core::fmt::Debug>::fmt
; Function Attrs: nounwind
define zeroext i1 @"_ZN66_$LT$core..option..Option$LT$T$GT$$u20$as$u20$core..fmt..Debug$GT$3fmt17h2292bbcc661e7bf3E"(%"core::option::Option<MaybeStaticStr>"* align 8 dereferenceable(24) %self, %"core::fmt::Formatter"* align 8 dereferenceable(64) %f) unnamed_addr #1 !dbg !2012 {
start:
  %debug_trait_builder.dbg.spill1 = alloca %"core::fmt::DebugTuple"*, align 8
  %debug_trait_builder.dbg.spill = alloca %"core::fmt::DebugTuple"*, align 8
  %__self_0.dbg.spill = alloca %MaybeStaticStr*, align 8
  %f.dbg.spill = alloca %"core::fmt::Formatter"*, align 8
  %self.dbg.spill = alloca %"core::option::Option<MaybeStaticStr>"*, align 8
  %_23 = alloca %MaybeStaticStr*, align 8
  %_14 = alloca %"core::fmt::DebugTuple", align 8
  %_7 = alloca %"core::fmt::DebugTuple", align 8
  %_3 = alloca i64*, align 8
  %0 = alloca i8, align 1
  store %"core::option::Option<MaybeStaticStr>"* %self, %"core::option::Option<MaybeStaticStr>"** %self.dbg.spill, align 8
  call void @llvm.dbg.declare(metadata %"core::option::Option<MaybeStaticStr>"** %self.dbg.spill, metadata !2017, metadata !DIExpression()), !dbg !2033
  store %"core::fmt::Formatter"* %f, %"core::fmt::Formatter"** %f.dbg.spill, align 8
  call void @llvm.dbg.declare(metadata %"core::fmt::Formatter"** %f.dbg.spill, metadata !2018, metadata !DIExpression()), !dbg !2033
  %1 = bitcast i64** %_3 to %"core::option::Option<MaybeStaticStr>"**, !dbg !2033
  store %"core::option::Option<MaybeStaticStr>"* %self, %"core::option::Option<MaybeStaticStr>"** %1, align 8, !dbg !2033
  %2 = bitcast i64** %_3 to %"core::option::Option<MaybeStaticStr>"**, !dbg !2033
  %3 = load %"core::option::Option<MaybeStaticStr>"*, %"core::option::Option<MaybeStaticStr>"** %2, align 8, !dbg !2033, !nonnull !4
  %4 = bitcast %"core::option::Option<MaybeStaticStr>"* %3 to i64*, !dbg !2033
  %5 = load i64, i64* %4, align 8, !dbg !2033, !range !2034
  %6 = sub i64 %5, 2, !dbg !2033
  %7 = icmp eq i64 %6, 0, !dbg !2033
  %_5 = select i1 %7, i64 0, i64 1, !dbg !2033
  switch i64 %_5, label %bb2 [
    i64 0, label %bb3
    i64 1, label %bb1
  ], !dbg !2033

bb2:                                              ; preds = %start
  unreachable, !dbg !2033

bb3:                                              ; preds = %start
; call core::fmt::Formatter::debug_tuple
  call void @_ZN4core3fmt9Formatter11debug_tuple17h8b0c4b037c736595E(%"core::fmt::DebugTuple"* noalias nocapture sret(%"core::fmt::DebugTuple") dereferenceable(24) %_7, %"core::fmt::Formatter"* align 8 dereferenceable(64) %f, [0 x i8]* nonnull align 1 bitcast (<{ [4 x i8] }>* @alloc358 to [0 x i8]*), i64 4), !dbg !2033
  br label %bb4, !dbg !2033

bb1:                                              ; preds = %start
  %8 = bitcast i64** %_3 to %"core::option::Option<MaybeStaticStr>"**, !dbg !2035
  %9 = load %"core::option::Option<MaybeStaticStr>"*, %"core::option::Option<MaybeStaticStr>"** %8, align 8, !dbg !2035, !nonnull !4
  %10 = bitcast %"core::option::Option<MaybeStaticStr>"* %9 to %"core::option::Option<MaybeStaticStr>::Some"*, !dbg !2035
  %__self_0 = bitcast %"core::option::Option<MaybeStaticStr>::Some"* %10 to %MaybeStaticStr*, !dbg !2035
  store %MaybeStaticStr* %__self_0, %MaybeStaticStr** %__self_0.dbg.spill, align 8, !dbg !2035
  call void @llvm.dbg.declare(metadata %MaybeStaticStr** %__self_0.dbg.spill, metadata !2029, metadata !DIExpression()), !dbg !2036
; call core::fmt::Formatter::debug_tuple
  call void @_ZN4core3fmt9Formatter11debug_tuple17h8b0c4b037c736595E(%"core::fmt::DebugTuple"* noalias nocapture sret(%"core::fmt::DebugTuple") dereferenceable(24) %_14, %"core::fmt::Formatter"* align 8 dereferenceable(64) %f, [0 x i8]* nonnull align 1 bitcast (<{ [4 x i8] }>* @alloc354 to [0 x i8]*), i64 4), !dbg !2037
  br label %bb6, !dbg !2037

bb6:                                              ; preds = %bb1
  store %"core::fmt::DebugTuple"* %_14, %"core::fmt::DebugTuple"** %debug_trait_builder.dbg.spill, align 8, !dbg !2037
  call void @llvm.dbg.declare(metadata %"core::fmt::DebugTuple"** %debug_trait_builder.dbg.spill, metadata !2031, metadata !DIExpression()), !dbg !2038
  store %MaybeStaticStr* %__self_0, %MaybeStaticStr** %_23, align 8, !dbg !2039
  %_20.0 = bitcast %MaybeStaticStr** %_23 to {}*, !dbg !2039
; call core::fmt::builders::DebugTuple::field
  %_18 = call align 8 dereferenceable(24) %"core::fmt::DebugTuple"* @_ZN4core3fmt8builders10DebugTuple5field17haf529c10112494a2E(%"core::fmt::DebugTuple"* align 8 dereferenceable(24) %_14, {}* nonnull align 1 %_20.0, [3 x i64]* align 8 dereferenceable(24) bitcast (<{ i8*, [16 x i8], i8*, [0 x i8] }>* @vtable.0 to [3 x i64]*)), !dbg !2038
  br label %bb7, !dbg !2038

bb7:                                              ; preds = %bb6
; call core::fmt::builders::DebugTuple::finish
  %11 = call zeroext i1 @_ZN4core3fmt8builders10DebugTuple6finish17h819d2cbd4adc1891E(%"core::fmt::DebugTuple"* align 8 dereferenceable(24) %_14), !dbg !2038
  %12 = zext i1 %11 to i8, !dbg !2038
  store i8 %12, i8* %0, align 1, !dbg !2038
  br label %bb8, !dbg !2038

bb8:                                              ; preds = %bb7
  br label %bb9, !dbg !2040

bb9:                                              ; preds = %bb5, %bb8
  %13 = load i8, i8* %0, align 1, !dbg !2041, !range !473
  %14 = trunc i8 %13 to i1, !dbg !2041
  ret i1 %14, !dbg !2041

bb4:                                              ; preds = %bb3
  store %"core::fmt::DebugTuple"* %_7, %"core::fmt::DebugTuple"** %debug_trait_builder.dbg.spill1, align 8, !dbg !2033
  call void @llvm.dbg.declare(metadata %"core::fmt::DebugTuple"** %debug_trait_builder.dbg.spill1, metadata !2019, metadata !DIExpression()), !dbg !2042
; call core::fmt::builders::DebugTuple::finish
  %15 = call zeroext i1 @_ZN4core3fmt8builders10DebugTuple6finish17h819d2cbd4adc1891E(%"core::fmt::DebugTuple"* align 8 dereferenceable(24) %_7), !dbg !2042
  %16 = zext i1 %15 to i8, !dbg !2042
  store i8 %16, i8* %0, align 1, !dbg !2042
  br label %bb5, !dbg !2042

bb5:                                              ; preds = %bb4
  br label %bb9, !dbg !2040
}

; <core::option::Option<T> as core::fmt::Debug>::fmt
; Function Attrs: nounwind
define zeroext i1 @"_ZN66_$LT$core..option..Option$LT$T$GT$$u20$as$u20$core..fmt..Debug$GT$3fmt17hc1ce3cc1bab6be6cE"({ i32, i32 }* align 4 dereferenceable(8) %self, %"core::fmt::Formatter"* align 8 dereferenceable(64) %f) unnamed_addr #1 !dbg !2043 {
start:
  %debug_trait_builder.dbg.spill1 = alloca %"core::fmt::DebugTuple"*, align 8
  %debug_trait_builder.dbg.spill = alloca %"core::fmt::DebugTuple"*, align 8
  %__self_0.dbg.spill = alloca i32*, align 8
  %f.dbg.spill = alloca %"core::fmt::Formatter"*, align 8
  %self.dbg.spill = alloca { i32, i32 }*, align 8
  %_23 = alloca i32*, align 8
  %_14 = alloca %"core::fmt::DebugTuple", align 8
  %_7 = alloca %"core::fmt::DebugTuple", align 8
  %_3 = alloca i32*, align 8
  %0 = alloca i8, align 1
  store { i32, i32 }* %self, { i32, i32 }** %self.dbg.spill, align 8
  call void @llvm.dbg.declare(metadata { i32, i32 }** %self.dbg.spill, metadata !2047, metadata !DIExpression()), !dbg !2055
  store %"core::fmt::Formatter"* %f, %"core::fmt::Formatter"** %f.dbg.spill, align 8
  call void @llvm.dbg.declare(metadata %"core::fmt::Formatter"** %f.dbg.spill, metadata !2048, metadata !DIExpression()), !dbg !2055
  %1 = bitcast i32** %_3 to { i32, i32 }**, !dbg !2055
  store { i32, i32 }* %self, { i32, i32 }** %1, align 8, !dbg !2055
  %2 = bitcast i32** %_3 to { i32, i32 }**, !dbg !2055
  %3 = load { i32, i32 }*, { i32, i32 }** %2, align 8, !dbg !2055, !nonnull !4
  %4 = bitcast { i32, i32 }* %3 to i32*, !dbg !2055
  %5 = load i32, i32* %4, align 4, !dbg !2055, !range !2056
  %_5 = zext i32 %5 to i64, !dbg !2055
  switch i64 %_5, label %bb2 [
    i64 0, label %bb3
    i64 1, label %bb1
  ], !dbg !2055

bb2:                                              ; preds = %start
  unreachable, !dbg !2055

bb3:                                              ; preds = %start
; call core::fmt::Formatter::debug_tuple
  call void @_ZN4core3fmt9Formatter11debug_tuple17h8b0c4b037c736595E(%"core::fmt::DebugTuple"* noalias nocapture sret(%"core::fmt::DebugTuple") dereferenceable(24) %_7, %"core::fmt::Formatter"* align 8 dereferenceable(64) %f, [0 x i8]* nonnull align 1 bitcast (<{ [4 x i8] }>* @alloc358 to [0 x i8]*), i64 4), !dbg !2055
  br label %bb4, !dbg !2055

bb1:                                              ; preds = %start
  %6 = bitcast i32** %_3 to { i32, i32 }**, !dbg !2057
  %7 = load { i32, i32 }*, { i32, i32 }** %6, align 8, !dbg !2057, !nonnull !4
  %8 = bitcast { i32, i32 }* %7 to %"core::option::Option<u32>::Some"*, !dbg !2057
  %__self_0 = getelementptr inbounds %"core::option::Option<u32>::Some", %"core::option::Option<u32>::Some"* %8, i32 0, i32 1, !dbg !2057
  store i32* %__self_0, i32** %__self_0.dbg.spill, align 8, !dbg !2057
  call void @llvm.dbg.declare(metadata i32** %__self_0.dbg.spill, metadata !2051, metadata !DIExpression()), !dbg !2058
; call core::fmt::Formatter::debug_tuple
  call void @_ZN4core3fmt9Formatter11debug_tuple17h8b0c4b037c736595E(%"core::fmt::DebugTuple"* noalias nocapture sret(%"core::fmt::DebugTuple") dereferenceable(24) %_14, %"core::fmt::Formatter"* align 8 dereferenceable(64) %f, [0 x i8]* nonnull align 1 bitcast (<{ [4 x i8] }>* @alloc354 to [0 x i8]*), i64 4), !dbg !2059
  br label %bb6, !dbg !2059

bb6:                                              ; preds = %bb1
  store %"core::fmt::DebugTuple"* %_14, %"core::fmt::DebugTuple"** %debug_trait_builder.dbg.spill, align 8, !dbg !2059
  call void @llvm.dbg.declare(metadata %"core::fmt::DebugTuple"** %debug_trait_builder.dbg.spill, metadata !2053, metadata !DIExpression()), !dbg !2060
  store i32* %__self_0, i32** %_23, align 8, !dbg !2061
  %_20.0 = bitcast i32** %_23 to {}*, !dbg !2061
; call core::fmt::builders::DebugTuple::field
  %_18 = call align 8 dereferenceable(24) %"core::fmt::DebugTuple"* @_ZN4core3fmt8builders10DebugTuple5field17haf529c10112494a2E(%"core::fmt::DebugTuple"* align 8 dereferenceable(24) %_14, {}* nonnull align 1 %_20.0, [3 x i64]* align 8 dereferenceable(24) bitcast (<{ i8*, [16 x i8], i8*, [0 x i8] }>* @vtable.1 to [3 x i64]*)), !dbg !2060
  br label %bb7, !dbg !2060

bb7:                                              ; preds = %bb6
; call core::fmt::builders::DebugTuple::finish
  %9 = call zeroext i1 @_ZN4core3fmt8builders10DebugTuple6finish17h819d2cbd4adc1891E(%"core::fmt::DebugTuple"* align 8 dereferenceable(24) %_14), !dbg !2060
  %10 = zext i1 %9 to i8, !dbg !2060
  store i8 %10, i8* %0, align 1, !dbg !2060
  br label %bb8, !dbg !2060

bb8:                                              ; preds = %bb7
  br label %bb9, !dbg !2062

bb9:                                              ; preds = %bb5, %bb8
  %11 = load i8, i8* %0, align 1, !dbg !2063, !range !473
  %12 = trunc i8 %11 to i1, !dbg !2063
  ret i1 %12, !dbg !2063

bb4:                                              ; preds = %bb3
  store %"core::fmt::DebugTuple"* %_7, %"core::fmt::DebugTuple"** %debug_trait_builder.dbg.spill1, align 8, !dbg !2055
  call void @llvm.dbg.declare(metadata %"core::fmt::DebugTuple"** %debug_trait_builder.dbg.spill1, metadata !2049, metadata !DIExpression()), !dbg !2064
; call core::fmt::builders::DebugTuple::finish
  %13 = call zeroext i1 @_ZN4core3fmt8builders10DebugTuple6finish17h819d2cbd4adc1891E(%"core::fmt::DebugTuple"* align 8 dereferenceable(24) %_7), !dbg !2064
  %14 = zext i1 %13 to i8, !dbg !2064
  store i8 %14, i8* %0, align 1, !dbg !2064
  br label %bb5, !dbg !2064

bb5:                                              ; preds = %bb4
  br label %bb9, !dbg !2062
}

; <core::option::Option<T> as core::clone::Clone>::clone
; Function Attrs: inlinehint nounwind
define void @"_ZN68_$LT$core..option..Option$LT$T$GT$$u20$as$u20$core..clone..Clone$GT$5clone17h212c10fe53c5ba9aE"(%"core::option::Option<MaybeStaticStr>"* noalias nocapture sret(%"core::option::Option<MaybeStaticStr>") dereferenceable(24) %0, %"core::option::Option<MaybeStaticStr>"* align 8 dereferenceable(24) %self) unnamed_addr #0 !dbg !2065 {
start:
  %x.dbg.spill = alloca %MaybeStaticStr*, align 8
  %self.dbg.spill = alloca %"core::option::Option<MaybeStaticStr>"*, align 8
  %_4 = alloca %MaybeStaticStr, align 8
  store %"core::option::Option<MaybeStaticStr>"* %self, %"core::option::Option<MaybeStaticStr>"** %self.dbg.spill, align 8
  call void @llvm.dbg.declare(metadata %"core::option::Option<MaybeStaticStr>"** %self.dbg.spill, metadata !2070, metadata !DIExpression()), !dbg !2073
  %1 = bitcast %"core::option::Option<MaybeStaticStr>"* %self to i64*, !dbg !2074
  %2 = load i64, i64* %1, align 8, !dbg !2074, !range !2034
  %3 = sub i64 %2, 2, !dbg !2074
  %4 = icmp eq i64 %3, 0, !dbg !2074
  %_2 = select i1 %4, i64 0, i64 1, !dbg !2074
  switch i64 %_2, label %bb2 [
    i64 0, label %bb1
    i64 1, label %bb3
  ], !dbg !2075

bb2:                                              ; preds = %start
  unreachable, !dbg !2074

bb1:                                              ; preds = %start
  %5 = bitcast %"core::option::Option<MaybeStaticStr>"* %0 to i64*, !dbg !2076
  store i64 2, i64* %5, align 8, !dbg !2076
  br label %bb5, !dbg !2076

bb3:                                              ; preds = %start
  %6 = bitcast %"core::option::Option<MaybeStaticStr>"* %self to %"core::option::Option<MaybeStaticStr>::Some"*, !dbg !2077
  %x = bitcast %"core::option::Option<MaybeStaticStr>::Some"* %6 to %MaybeStaticStr*, !dbg !2077
  store %MaybeStaticStr* %x, %MaybeStaticStr** %x.dbg.spill, align 8, !dbg !2077
  call void @llvm.dbg.declare(metadata %MaybeStaticStr** %x.dbg.spill, metadata !2071, metadata !DIExpression()), !dbg !2078
; call <log::MaybeStaticStr as core::clone::Clone>::clone
  call void @"_ZN58_$LT$log..MaybeStaticStr$u20$as$u20$core..clone..Clone$GT$5clone17had9ede7ae119fa88E"(%MaybeStaticStr* noalias nocapture sret(%MaybeStaticStr) dereferenceable(24) %_4, %MaybeStaticStr* align 8 dereferenceable(24) %x), !dbg !2079
  br label %bb4, !dbg !2079

bb4:                                              ; preds = %bb3
  %7 = bitcast %"core::option::Option<MaybeStaticStr>"* %0 to %"core::option::Option<MaybeStaticStr>::Some"*, !dbg !2080
  %8 = bitcast %"core::option::Option<MaybeStaticStr>::Some"* %7 to %MaybeStaticStr*, !dbg !2080
  %9 = bitcast %MaybeStaticStr* %8 to i8*, !dbg !2080
  %10 = bitcast %MaybeStaticStr* %_4 to i8*, !dbg !2080
  call void @llvm.memcpy.p0i8.p0i8.i64(i8* align 8 %9, i8* align 8 %10, i64 24, i1 false), !dbg !2080
  br label %bb5, !dbg !2081

bb5:                                              ; preds = %bb1, %bb4
  ret void, !dbg !2082
}

; <core::option::Option<T> as core::clone::Clone>::clone
; Function Attrs: inlinehint nounwind
define { i32, i32 } @"_ZN68_$LT$core..option..Option$LT$T$GT$$u20$as$u20$core..clone..Clone$GT$5clone17he52aa75c214b8a35E"({ i32, i32 }* align 4 dereferenceable(8) %self) unnamed_addr #0 !dbg !2083 {
start:
  %x.dbg.spill = alloca i32*, align 8
  %self.dbg.spill = alloca { i32, i32 }*, align 8
  %0 = alloca { i32, i32 }, align 4
  store { i32, i32 }* %self, { i32, i32 }** %self.dbg.spill, align 8
  call void @llvm.dbg.declare(metadata { i32, i32 }** %self.dbg.spill, metadata !2087, metadata !DIExpression()), !dbg !2090
  %1 = bitcast { i32, i32 }* %self to i32*, !dbg !2091
  %2 = load i32, i32* %1, align 4, !dbg !2091, !range !2056
  %_2 = zext i32 %2 to i64, !dbg !2091
  switch i64 %_2, label %bb2 [
    i64 0, label %bb1
    i64 1, label %bb3
  ], !dbg !2092

bb2:                                              ; preds = %start
  unreachable, !dbg !2091

bb1:                                              ; preds = %start
  %3 = bitcast { i32, i32 }* %0 to i32*, !dbg !2093
  store i32 0, i32* %3, align 4, !dbg !2093
  br label %bb5, !dbg !2093

bb3:                                              ; preds = %start
  %4 = bitcast { i32, i32 }* %self to %"core::option::Option<u32>::Some"*, !dbg !2094
  %x = getelementptr inbounds %"core::option::Option<u32>::Some", %"core::option::Option<u32>::Some"* %4, i32 0, i32 1, !dbg !2094
  store i32* %x, i32** %x.dbg.spill, align 8, !dbg !2094
  call void @llvm.dbg.declare(metadata i32** %x.dbg.spill, metadata !2088, metadata !DIExpression()), !dbg !2095
; call core::clone::impls::<impl core::clone::Clone for u32>::clone
  %_4 = call i32 @"_ZN4core5clone5impls52_$LT$impl$u20$core..clone..Clone$u20$for$u20$u32$GT$5clone17hb7203972272f6ec7E"(i32* align 4 dereferenceable(4) %x), !dbg !2096
  br label %bb4, !dbg !2096

bb4:                                              ; preds = %bb3
  %5 = bitcast { i32, i32 }* %0 to %"core::option::Option<u32>::Some"*, !dbg !2097
  %6 = getelementptr inbounds %"core::option::Option<u32>::Some", %"core::option::Option<u32>::Some"* %5, i32 0, i32 1, !dbg !2097
  store i32 %_4, i32* %6, align 4, !dbg !2097
  %7 = bitcast { i32, i32 }* %0 to i32*, !dbg !2097
  store i32 1, i32* %7, align 4, !dbg !2097
  br label %bb5, !dbg !2098

bb5:                                              ; preds = %bb1, %bb4
  %8 = getelementptr inbounds { i32, i32 }, { i32, i32 }* %0, i32 0, i32 0, !dbg !2099
  %9 = load i32, i32* %8, align 4, !dbg !2099, !range !2056
  %10 = getelementptr inbounds { i32, i32 }, { i32, i32 }* %0, i32 0, i32 1, !dbg !2099
  %11 = load i32, i32* %10, align 4, !dbg !2099
  %12 = insertvalue { i32, i32 } undef, i32 %9, 0, !dbg !2099
  %13 = insertvalue { i32, i32 } %12, i32 %11, 1, !dbg !2099
  ret { i32, i32 } %13, !dbg !2099
}

; <I as core::iter::adapters::zip::SpecTrustedRandomAccess>::try_get_unchecked
; Function Attrs: nounwind
define align 1 dereferenceable(1) i8* @"_ZN72_$LT$I$u20$as$u20$core..iter..adapters..zip..SpecTrustedRandomAccess$GT$17try_get_unchecked17h62a0988e21df3913E"({ i8*, i8* }* align 8 dereferenceable(16) %self, i64 %index) unnamed_addr #1 !dbg !2100 {
start:
  %index.dbg.spill = alloca i64, align 8
  %self.dbg.spill = alloca { i8*, i8* }*, align 8
  store { i8*, i8* }* %self, { i8*, i8* }** %self.dbg.spill, align 8
  call void @llvm.dbg.declare(metadata { i8*, i8* }** %self.dbg.spill, metadata !2103, metadata !DIExpression()), !dbg !2105
  store i64 %index, i64* %index.dbg.spill, align 8
  call void @llvm.dbg.declare(metadata i64* %index.dbg.spill, metadata !2104, metadata !DIExpression()), !dbg !2106
; call <core::slice::iter::Iter<T> as core::iter::traits::iterator::Iterator>::__iterator_get_unchecked
  %0 = call align 1 dereferenceable(1) i8* @"_ZN91_$LT$core..slice..iter..Iter$LT$T$GT$$u20$as$u20$core..iter..traits..iterator..Iterator$GT$24__iterator_get_unchecked17he463b5f964f6a7b0E"({ i8*, i8* }* align 8 dereferenceable(16) %self, i64 %index), !dbg !2107
  br label %bb1, !dbg !2107

bb1:                                              ; preds = %start
  ret i8* %0, !dbg !2108
}

; <core::option::Option<T> as core::default::Default>::default
; Function Attrs: inlinehint nounwind
define { i64, i64 } @"_ZN72_$LT$core..option..Option$LT$T$GT$$u20$as$u20$core..default..Default$GT$7default17hf39e52b4f14f330bE"() unnamed_addr #0 !dbg !2109 {
start:
  %0 = alloca { i64, i64 }, align 8
  %1 = bitcast { i64, i64 }* %0 to i64*, !dbg !2113
  store i64 0, i64* %1, align 8, !dbg !2113
  %2 = getelementptr inbounds { i64, i64 }, { i64, i64 }* %0, i32 0, i32 0, !dbg !2114
  %3 = load i64, i64* %2, align 8, !dbg !2114, !range !510
  %4 = getelementptr inbounds { i64, i64 }, { i64, i64 }* %0, i32 0, i32 1, !dbg !2114
  %5 = load i64, i64* %4, align 8, !dbg !2114
  %6 = insertvalue { i64, i64 } undef, i64 %3, 0, !dbg !2114
  %7 = insertvalue { i64, i64 } %6, i64 %5, 1, !dbg !2114
  ret { i64, i64 } %7, !dbg !2114
}

; <core::str::iter::Bytes as core::iter::traits::iterator::Iterator>::__iterator_get_unchecked
; Function Attrs: inlinehint nounwind
define internal i8 @"_ZN81_$LT$core..str..iter..Bytes$u20$as$u20$core..iter..traits..iterator..Iterator$GT$24__iterator_get_unchecked17h50b702aab55c5d7fE"({ i8*, i8* }* align 8 dereferenceable(16) %self, i64 %idx) unnamed_addr #0 !dbg !2115 {
start:
  %idx.dbg.spill = alloca i64, align 8
  %self.dbg.spill = alloca { i8*, i8* }*, align 8
  store { i8*, i8* }* %self, { i8*, i8* }** %self.dbg.spill, align 8
  call void @llvm.dbg.declare(metadata { i8*, i8* }** %self.dbg.spill, metadata !2122, metadata !DIExpression()), !dbg !2124
  store i64 %idx, i64* %idx.dbg.spill, align 8
  call void @llvm.dbg.declare(metadata i64* %idx.dbg.spill, metadata !2123, metadata !DIExpression()), !dbg !2125
; call <core::iter::adapters::copied::Copied<I> as core::iter::traits::iterator::Iterator>::__iterator_get_unchecked
  %0 = call i8 @"_ZN104_$LT$core..iter..adapters..copied..Copied$LT$I$GT$$u20$as$u20$core..iter..traits..iterator..Iterator$GT$24__iterator_get_unchecked17h5a5337514686a4d2E"({ i8*, i8* }* align 8 dereferenceable(16) %self, i64 %idx), !dbg !2126
  br label %bb1, !dbg !2126

bb1:                                              ; preds = %start
  ret i8 %0, !dbg !2127
}

; <core::str::iter::Bytes as core::iter::traits::iterator::Iterator>::size_hint
; Function Attrs: inlinehint nounwind
define internal void @"_ZN81_$LT$core..str..iter..Bytes$u20$as$u20$core..iter..traits..iterator..Iterator$GT$9size_hint17hd5a045a626742e69E"({ i64, { i64, i64 } }* noalias nocapture sret({ i64, { i64, i64 } }) dereferenceable(24) %0, { i8*, i8* }* align 8 dereferenceable(16) %self) unnamed_addr #0 !dbg !2128 {
start:
  %self.dbg.spill = alloca { i8*, i8* }*, align 8
  store { i8*, i8* }* %self, { i8*, i8* }** %self.dbg.spill, align 8
  call void @llvm.dbg.declare(metadata { i8*, i8* }** %self.dbg.spill, metadata !2132, metadata !DIExpression()), !dbg !2133
; call <core::iter::adapters::copied::Copied<I> as core::iter::traits::iterator::Iterator>::size_hint
  call void @"_ZN104_$LT$core..iter..adapters..copied..Copied$LT$I$GT$$u20$as$u20$core..iter..traits..iterator..Iterator$GT$9size_hint17h5c0c5c62f889b1ceE"({ i64, { i64, i64 } }* noalias nocapture sret({ i64, { i64, i64 } }) dereferenceable(24) %0, { i8*, i8* }* align 8 dereferenceable(16) %self), !dbg !2134
  br label %bb1, !dbg !2134

bb1:                                              ; preds = %start
  ret void, !dbg !2135
}

; <core::option::Item<A> as core::iter::traits::iterator::Iterator>::next
; Function Attrs: inlinehint nounwind
define { i64, i64 } @"_ZN86_$LT$core..option..Item$LT$A$GT$$u20$as$u20$core..iter..traits..iterator..Iterator$GT$4next17he581f731676aa8e4E"({ i64, i64 }* align 8 dereferenceable(16) %self) unnamed_addr #0 !dbg !2136 {
start:
  %self.dbg.spill = alloca { i64, i64 }*, align 8
  store { i64, i64 }* %self, { i64, i64 }** %self.dbg.spill, align 8
  call void @llvm.dbg.declare(metadata { i64, i64 }** %self.dbg.spill, metadata !2142, metadata !DIExpression()), !dbg !2143
; call core::option::Option<T>::take
  %0 = call { i64, i64 } @"_ZN4core6option15Option$LT$T$GT$4take17hf55e0ae67f1a4124E"({ i64, i64 }* align 8 dereferenceable(16) %self), !dbg !2144
  %1 = extractvalue { i64, i64 } %0, 0, !dbg !2144
  %2 = extractvalue { i64, i64 } %0, 1, !dbg !2144
  br label %bb1, !dbg !2144

bb1:                                              ; preds = %start
  %3 = insertvalue { i64, i64 } undef, i64 %1, 0, !dbg !2145
  %4 = insertvalue { i64, i64 } %3, i64 %2, 1, !dbg !2145
  ret { i64, i64 } %4, !dbg !2145
}

; <core::ops::control_flow::ControlFlow<B,C> as core::cmp::PartialEq>::eq
; Function Attrs: inlinehint nounwind
define zeroext i1 @"_ZN90_$LT$core..ops..control_flow..ControlFlow$LT$B$C$C$GT$$u20$as$u20$core..cmp..PartialEq$GT$2eq17h8ee704728160a1f5E"(i8* align 1 dereferenceable(1) %self, i8* align 1 dereferenceable(1) %other) unnamed_addr #0 !dbg !2146 {
start:
  %__arg_1_0.dbg.spill4 = alloca {}*, align 8
  %__self_0.dbg.spill2 = alloca {}*, align 8
  %__arg_1_0.dbg.spill = alloca {}*, align 8
  %__self_0.dbg.spill = alloca {}*, align 8
  %__arg_1_vi.dbg.spill = alloca i64, align 8
  %__self_vi.dbg.spill = alloca i64, align 8
  %other.dbg.spill = alloca i8*, align 8
  %self.dbg.spill = alloca i8*, align 8
  %_13 = alloca { i8*, i8* }, align 8
  %0 = alloca i8, align 1
  store i8* %self, i8** %self.dbg.spill, align 8
  call void @llvm.dbg.declare(metadata i8** %self.dbg.spill, metadata !2152, metadata !DIExpression()), !dbg !2164
  store i8* %other, i8** %other.dbg.spill, align 8
  call void @llvm.dbg.declare(metadata i8** %other.dbg.spill, metadata !2153, metadata !DIExpression()), !dbg !2164
  %1 = load i8, i8* %self, align 1, !dbg !2164, !range !473
  %2 = trunc i8 %1 to i1, !dbg !2164
  %__self_vi = zext i1 %2 to i64, !dbg !2164
  store i64 %__self_vi, i64* %__self_vi.dbg.spill, align 8, !dbg !2164
  call void @llvm.dbg.declare(metadata i64* %__self_vi.dbg.spill, metadata !2154, metadata !DIExpression()), !dbg !2165
  %3 = load i8, i8* %other, align 1, !dbg !2165, !range !473
  %4 = trunc i8 %3 to i1, !dbg !2165
  %__arg_1_vi = zext i1 %4 to i64, !dbg !2165
  store i64 %__arg_1_vi, i64* %__arg_1_vi.dbg.spill, align 8, !dbg !2165
  call void @llvm.dbg.declare(metadata i64* %__arg_1_vi.dbg.spill, metadata !2156, metadata !DIExpression()), !dbg !2166
  %_10 = icmp eq i64 %__self_vi, %__arg_1_vi, !dbg !2166
  br i1 %_10, label %bb1, label %bb10, !dbg !2166

bb10:                                             ; preds = %start
  store i8 0, i8* %0, align 1, !dbg !2166
  br label %bb11, !dbg !2166

bb1:                                              ; preds = %start
  %5 = bitcast { i8*, i8* }* %_13 to i8**, !dbg !2166
  store i8* %self, i8** %5, align 8, !dbg !2166
  %6 = getelementptr inbounds { i8*, i8* }, { i8*, i8* }* %_13, i32 0, i32 1, !dbg !2166
  store i8* %other, i8** %6, align 8, !dbg !2166
  %7 = bitcast { i8*, i8* }* %_13 to i8**, !dbg !2166
  %8 = load i8*, i8** %7, align 8, !dbg !2166, !nonnull !4
  %9 = load i8, i8* %8, align 1, !dbg !2166, !range !473
  %10 = trunc i8 %9 to i1, !dbg !2166
  %_18 = zext i1 %10 to i64, !dbg !2166
  switch i64 %_18, label %bb3 [
    i64 0, label %bb2
    i64 1, label %bb4
  ], !dbg !2166

bb3:                                              ; preds = %bb2, %bb4, %bb1
  unreachable, !dbg !2166

bb2:                                              ; preds = %bb1
  %11 = getelementptr inbounds { i8*, i8* }, { i8*, i8* }* %_13, i32 0, i32 1, !dbg !2166
  %12 = load i8*, i8** %11, align 8, !dbg !2166, !nonnull !4
  %13 = load i8, i8* %12, align 1, !dbg !2166, !range !473
  %14 = trunc i8 %13 to i1, !dbg !2166
  %_16 = zext i1 %14 to i64, !dbg !2166
  %15 = icmp eq i64 %_16, 0, !dbg !2166
  br i1 %15, label %bb5, label %bb3, !dbg !2166

bb4:                                              ; preds = %bb1
  %16 = getelementptr inbounds { i8*, i8* }, { i8*, i8* }* %_13, i32 0, i32 1, !dbg !2166
  %17 = load i8*, i8** %16, align 8, !dbg !2166, !nonnull !4
  %18 = load i8, i8* %17, align 1, !dbg !2166, !range !473
  %19 = trunc i8 %18 to i1, !dbg !2166
  %_17 = zext i1 %19 to i64, !dbg !2166
  %20 = icmp eq i64 %_17, 1, !dbg !2166
  br i1 %20, label %bb7, label %bb3, !dbg !2166

bb7:                                              ; preds = %bb4
  %21 = bitcast { i8*, i8* }* %_13 to i8**, !dbg !2167
  %22 = load i8*, i8** %21, align 8, !dbg !2167, !nonnull !4
  %23 = bitcast i8* %22 to %"core::ops::ControlFlow<()>::Break"*, !dbg !2167
  %__self_0 = getelementptr inbounds %"core::ops::ControlFlow<()>::Break", %"core::ops::ControlFlow<()>::Break"* %23, i32 0, i32 1, !dbg !2167
  store {}* %__self_0, {}** %__self_0.dbg.spill, align 8, !dbg !2167
  call void @llvm.dbg.declare(metadata {}** %__self_0.dbg.spill, metadata !2161, metadata !DIExpression()), !dbg !2168
  %24 = getelementptr inbounds { i8*, i8* }, { i8*, i8* }* %_13, i32 0, i32 1, !dbg !2167
  %25 = load i8*, i8** %24, align 8, !dbg !2167, !nonnull !4
  %26 = bitcast i8* %25 to %"core::ops::ControlFlow<()>::Break"*, !dbg !2167
  %__arg_1_0 = getelementptr inbounds %"core::ops::ControlFlow<()>::Break", %"core::ops::ControlFlow<()>::Break"* %26, i32 0, i32 1, !dbg !2167
  store {}* %__arg_1_0, {}** %__arg_1_0.dbg.spill, align 8, !dbg !2167
  call void @llvm.dbg.declare(metadata {}** %__arg_1_0.dbg.spill, metadata !2163, metadata !DIExpression()), !dbg !2168
; call core::cmp::impls::<impl core::cmp::PartialEq for ()>::eq
  %27 = call zeroext i1 @"_ZN4core3cmp5impls59_$LT$impl$u20$core..cmp..PartialEq$u20$for$u20$$LP$$RP$$GT$2eq17h216657b16310cb15E"({}* nonnull align 1 %__self_0, {}* nonnull align 1 %__arg_1_0), !dbg !2168
  %28 = zext i1 %27 to i8, !dbg !2168
  store i8 %28, i8* %0, align 1, !dbg !2168
  br label %bb8, !dbg !2168

bb8:                                              ; preds = %bb7
  br label %bb9, !dbg !2169

bb9:                                              ; preds = %bb6, %bb8
  br label %bb11, !dbg !2166

bb5:                                              ; preds = %bb2
  %29 = bitcast { i8*, i8* }* %_13 to i8**, !dbg !2170
  %30 = load i8*, i8** %29, align 8, !dbg !2170, !nonnull !4
  %31 = bitcast i8* %30 to %"core::ops::ControlFlow<()>::Continue"*, !dbg !2170
  %__self_01 = getelementptr inbounds %"core::ops::ControlFlow<()>::Continue", %"core::ops::ControlFlow<()>::Continue"* %31, i32 0, i32 1, !dbg !2170
  store {}* %__self_01, {}** %__self_0.dbg.spill2, align 8, !dbg !2170
  call void @llvm.dbg.declare(metadata {}** %__self_0.dbg.spill2, metadata !2158, metadata !DIExpression()), !dbg !2171
  %32 = getelementptr inbounds { i8*, i8* }, { i8*, i8* }* %_13, i32 0, i32 1, !dbg !2170
  %33 = load i8*, i8** %32, align 8, !dbg !2170, !nonnull !4
  %34 = bitcast i8* %33 to %"core::ops::ControlFlow<()>::Continue"*, !dbg !2170
  %__arg_1_03 = getelementptr inbounds %"core::ops::ControlFlow<()>::Continue", %"core::ops::ControlFlow<()>::Continue"* %34, i32 0, i32 1, !dbg !2170
  store {}* %__arg_1_03, {}** %__arg_1_0.dbg.spill4, align 8, !dbg !2170
  call void @llvm.dbg.declare(metadata {}** %__arg_1_0.dbg.spill4, metadata !2160, metadata !DIExpression()), !dbg !2171
; call core::cmp::impls::<impl core::cmp::PartialEq for ()>::eq
  %35 = call zeroext i1 @"_ZN4core3cmp5impls59_$LT$impl$u20$core..cmp..PartialEq$u20$for$u20$$LP$$RP$$GT$2eq17h216657b16310cb15E"({}* nonnull align 1 %__self_01, {}* nonnull align 1 %__arg_1_03), !dbg !2171
  %36 = zext i1 %35 to i8, !dbg !2171
  store i8 %36, i8* %0, align 1, !dbg !2171
  br label %bb6, !dbg !2171

bb6:                                              ; preds = %bb5
  br label %bb9, !dbg !2169

bb11:                                             ; preds = %bb10, %bb9
  %37 = load i8, i8* %0, align 1, !dbg !2172, !range !473
  %38 = trunc i8 %37 to i1, !dbg !2172
  ret i1 %38, !dbg !2172
}

; <core::option::IntoIter<A> as core::iter::traits::iterator::Iterator>::next
; Function Attrs: inlinehint nounwind
define { i64, i64 } @"_ZN90_$LT$core..option..IntoIter$LT$A$GT$$u20$as$u20$core..iter..traits..iterator..Iterator$GT$4next17h79c0b28b9465d1c0E"({ i64, i64 }* align 8 dereferenceable(16) %self) unnamed_addr #0 !dbg !2173 {
start:
  %self.dbg.spill = alloca { i64, i64 }*, align 8
  store { i64, i64 }* %self, { i64, i64 }** %self.dbg.spill, align 8
  call void @llvm.dbg.declare(metadata { i64, i64 }** %self.dbg.spill, metadata !2178, metadata !DIExpression()), !dbg !2179
; call <core::option::Item<A> as core::iter::traits::iterator::Iterator>::next
  %0 = call { i64, i64 } @"_ZN86_$LT$core..option..Item$LT$A$GT$$u20$as$u20$core..iter..traits..iterator..Iterator$GT$4next17he581f731676aa8e4E"({ i64, i64 }* align 8 dereferenceable(16) %self), !dbg !2180
  %1 = extractvalue { i64, i64 } %0, 0, !dbg !2180
  %2 = extractvalue { i64, i64 } %0, 1, !dbg !2180
  br label %bb1, !dbg !2180

bb1:                                              ; preds = %start
  %3 = insertvalue { i64, i64 } undef, i64 %1, 0, !dbg !2181
  %4 = insertvalue { i64, i64 } %3, i64 %2, 1, !dbg !2181
  ret { i64, i64 } %4, !dbg !2181
}

; <core::option::Option<T> as core::iter::traits::collect::IntoIterator>::into_iter
; Function Attrs: inlinehint nounwind
define { i64, i64 } @"_ZN91_$LT$core..option..Option$LT$T$GT$$u20$as$u20$core..iter..traits..collect..IntoIterator$GT$9into_iter17h1ffe9a95672f3a21E"(i64 %self.0, i64 %self.1) unnamed_addr #0 !dbg !2182 {
start:
  %self.dbg.spill = alloca { i64, i64 }, align 8
  %_2 = alloca { i64, i64 }, align 8
  %0 = alloca { i64, i64 }, align 8
  %1 = getelementptr inbounds { i64, i64 }, { i64, i64 }* %self.dbg.spill, i32 0, i32 0
  store i64 %self.0, i64* %1, align 8
  %2 = getelementptr inbounds { i64, i64 }, { i64, i64 }* %self.dbg.spill, i32 0, i32 1
  store i64 %self.1, i64* %2, align 8
  call void @llvm.dbg.declare(metadata { i64, i64 }* %self.dbg.spill, metadata !2187, metadata !DIExpression()), !dbg !2188
  %3 = getelementptr inbounds { i64, i64 }, { i64, i64 }* %_2, i32 0, i32 0, !dbg !2189
  store i64 %self.0, i64* %3, align 8, !dbg !2189
  %4 = getelementptr inbounds { i64, i64 }, { i64, i64 }* %_2, i32 0, i32 1, !dbg !2189
  store i64 %self.1, i64* %4, align 8, !dbg !2189
  %5 = getelementptr inbounds { i64, i64 }, { i64, i64 }* %_2, i32 0, i32 0, !dbg !2190
  %6 = load i64, i64* %5, align 8, !dbg !2190, !range !510
  %7 = getelementptr inbounds { i64, i64 }, { i64, i64 }* %_2, i32 0, i32 1, !dbg !2190
  %8 = load i64, i64* %7, align 8, !dbg !2190
  %9 = getelementptr inbounds { i64, i64 }, { i64, i64 }* %0, i32 0, i32 0, !dbg !2190
  store i64 %6, i64* %9, align 8, !dbg !2190
  %10 = getelementptr inbounds { i64, i64 }, { i64, i64 }* %0, i32 0, i32 1, !dbg !2190
  store i64 %8, i64* %10, align 8, !dbg !2190
  %11 = getelementptr inbounds { i64, i64 }, { i64, i64 }* %0, i32 0, i32 0, !dbg !2191
  %12 = load i64, i64* %11, align 8, !dbg !2191, !range !510
  %13 = getelementptr inbounds { i64, i64 }, { i64, i64 }* %0, i32 0, i32 1, !dbg !2191
  %14 = load i64, i64* %13, align 8, !dbg !2191
  %15 = insertvalue { i64, i64 } undef, i64 %12, 0, !dbg !2191
  %16 = insertvalue { i64, i64 } %15, i64 %14, 1, !dbg !2191
  ret { i64, i64 } %16, !dbg !2191
}

; <core::slice::iter::Iter<T> as core::iter::traits::iterator::Iterator>::__iterator_get_unchecked
; Function Attrs: nounwind
define align 1 dereferenceable(1) i8* @"_ZN91_$LT$core..slice..iter..Iter$LT$T$GT$$u20$as$u20$core..iter..traits..iterator..Iterator$GT$24__iterator_get_unchecked17he463b5f964f6a7b0E"({ i8*, i8* }* align 8 dereferenceable(16) %self, i64 %idx) unnamed_addr #1 !dbg !2192 {
start:
  %0 = alloca i8*, align 8
  %count.dbg.spill.i.i = alloca i64, align 8
  %self.dbg.spill.i.i = alloca i8*, align 8
  %count.dbg.spill.i = alloca i64, align 8
  %self.dbg.spill.i = alloca i8*, align 8
  %idx.dbg.spill = alloca i64, align 8
  %self.dbg.spill = alloca { i8*, i8* }*, align 8
  store { i8*, i8* }* %self, { i8*, i8* }** %self.dbg.spill, align 8
  call void @llvm.dbg.declare(metadata { i8*, i8* }** %self.dbg.spill, metadata !2196, metadata !DIExpression()), !dbg !2198
  store i64 %idx, i64* %idx.dbg.spill, align 8
  call void @llvm.dbg.declare(metadata i64* %idx.dbg.spill, metadata !2197, metadata !DIExpression()), !dbg !2199
  %1 = bitcast { i8*, i8* }* %self to i8**, !dbg !2200
  %_5 = load i8*, i8** %1, align 8, !dbg !2200, !nonnull !4
; call core::ptr::non_null::NonNull<T>::as_ptr
  %_4 = call i8* @"_ZN4core3ptr8non_null16NonNull$LT$T$GT$6as_ptr17h693be9d1aa38e18cE"(i8* nonnull %_5), !dbg !2200
  br label %bb1, !dbg !2200

bb1:                                              ; preds = %start
  store i8* %_4, i8** %self.dbg.spill.i, align 8
  call void @llvm.dbg.declare(metadata i8** %self.dbg.spill.i, metadata !2201, metadata !DIExpression()), !dbg !2207
  store i64 %idx, i64* %count.dbg.spill.i, align 8
  call void @llvm.dbg.declare(metadata i64* %count.dbg.spill.i, metadata !2206, metadata !DIExpression()), !dbg !2209
  store i8* %_4, i8** %self.dbg.spill.i.i, align 8
  call void @llvm.dbg.declare(metadata i8** %self.dbg.spill.i.i, metadata !2210, metadata !DIExpression()), !dbg !2216
  store i64 %idx, i64* %count.dbg.spill.i.i, align 8
  call void @llvm.dbg.declare(metadata i64* %count.dbg.spill.i.i, metadata !2215, metadata !DIExpression()), !dbg !2218
  %2 = getelementptr inbounds i8, i8* %_4, i64 %idx, !dbg !2219
  store i8* %2, i8** %0, align 8, !dbg !2219
  %_3.i.i = load i8*, i8** %0, align 8, !dbg !2219
  br label %bb2, !dbg !2200

bb2:                                              ; preds = %bb1
  ret i8* %_3.i.i, !dbg !2220
}

; <core::slice::iter::Iter<T> as core::iter::traits::iterator::Iterator>::next
; Function Attrs: inlinehint nounwind
define align 8 dereferenceable_or_null(16) i64* @"_ZN91_$LT$core..slice..iter..Iter$LT$T$GT$$u20$as$u20$core..iter..traits..iterator..Iterator$GT$4next17h1612b9e1f8060468E"({ i64*, i64* }* align 8 dereferenceable(16) %self) unnamed_addr #0 !dbg !2221 {
start:
  %0 = alloca { [0 x i8]*, i64 }*, align 8
  %count.dbg.spill.i1.i = alloca i64, align 8
  %self.dbg.spill.i2.i = alloca { [0 x i8]*, i64 }*, align 8
  %old.dbg.spill.i = alloca { [0 x i8]*, i64 }*, align 8
  %offset.dbg.spill.i = alloca i64, align 8
  %self.dbg.spill.i = alloca { i64*, i64* }*, align 8
  %1 = alloca { [0 x i8]*, i64 }*, align 8
  %self.dbg.spill = alloca { i64*, i64* }*, align 8
  %2 = alloca i64*, align 8
  store { i64*, i64* }* %self, { i64*, i64* }** %self.dbg.spill, align 8
  call void @llvm.dbg.declare(metadata { i64*, i64* }** %self.dbg.spill, metadata !2236, metadata !DIExpression()), !dbg !2237
  %3 = bitcast { i64*, i64* }* %self to i64**, !dbg !2238
  %_6 = load i64*, i64** %3, align 8, !dbg !2238, !nonnull !4
; call core::ptr::non_null::NonNull<T>::as_ptr
  %_5 = call { [0 x i8]*, i64 }* @"_ZN4core3ptr8non_null16NonNull$LT$T$GT$6as_ptr17h6840c2b1e583d24dE"(i64* nonnull %_6), !dbg !2238
  br label %bb1, !dbg !2238

bb1:                                              ; preds = %start
; call core::ptr::mut_ptr::<impl *mut T>::is_null
  %_4 = call zeroext i1 @"_ZN4core3ptr7mut_ptr31_$LT$impl$u20$$BP$mut$u20$T$GT$7is_null17h4d0dda8ac6b25c7dE"({ [0 x i8]*, i64 }* %_5), !dbg !2238
  br label %bb2, !dbg !2238

bb2:                                              ; preds = %bb1
  %_3 = xor i1 %_4, true, !dbg !2239
  call void @llvm.assume(i1 %_3), !dbg !2240
  br label %bb3, !dbg !2240

bb3:                                              ; preds = %bb2
  br label %bb4, !dbg !2241

bb4:                                              ; preds = %bb3
  %4 = icmp eq i64 16, 0, !dbg !2241
  br i1 %4, label %bb8, label %bb5, !dbg !2241

bb8:                                              ; preds = %bb4
  br label %bb9, !dbg !2242

bb5:                                              ; preds = %bb4
  %5 = getelementptr inbounds { i64*, i64* }, { i64*, i64* }* %self, i32 0, i32 1, !dbg !2243
  %6 = bitcast i64** %5 to { [0 x i8]*, i64 }**, !dbg !2243
  %_11 = load { [0 x i8]*, i64 }*, { [0 x i8]*, i64 }** %6, align 8, !dbg !2243
; call core::ptr::const_ptr::<impl *const T>::is_null
  %_10 = call zeroext i1 @"_ZN4core3ptr9const_ptr33_$LT$impl$u20$$BP$const$u20$T$GT$7is_null17h113522e86b98d089E"({ [0 x i8]*, i64 }* %_11), !dbg !2243
  br label %bb6, !dbg !2243

bb6:                                              ; preds = %bb5
  %_9 = xor i1 %_10, true, !dbg !2244
  call void @llvm.assume(i1 %_9), !dbg !2245
  br label %bb7, !dbg !2245

bb7:                                              ; preds = %bb6
  br label %bb9, !dbg !2242

bb9:                                              ; preds = %bb8, %bb7
  %7 = bitcast { i64*, i64* }* %self to i64**, !dbg !2246
  %_15 = load i64*, i64** %7, align 8, !dbg !2246, !nonnull !4
; call core::ptr::non_null::NonNull<T>::as_ptr
  %_14 = call { [0 x i8]*, i64 }* @"_ZN4core3ptr8non_null16NonNull$LT$T$GT$6as_ptr17h6840c2b1e583d24dE"(i64* nonnull %_15), !dbg !2246
  br label %bb10, !dbg !2246

bb10:                                             ; preds = %bb9
  %8 = getelementptr inbounds { i64*, i64* }, { i64*, i64* }* %self, i32 0, i32 1, !dbg !2246
  %9 = bitcast i64** %8 to { [0 x i8]*, i64 }**, !dbg !2246
  %_16 = load { [0 x i8]*, i64 }*, { [0 x i8]*, i64 }** %9, align 8, !dbg !2246
  %_12 = icmp eq { [0 x i8]*, i64 }* %_14, %_16, !dbg !2246
  br i1 %_12, label %bb11, label %bb12, !dbg !2246

bb12:                                             ; preds = %bb10
  store { i64*, i64* }* %self, { i64*, i64* }** %self.dbg.spill.i, align 8
  call void @llvm.dbg.declare(metadata { i64*, i64* }** %self.dbg.spill.i, metadata !2247, metadata !DIExpression()) #7, !dbg !2255
  store i64 1, i64* %offset.dbg.spill.i, align 8
  call void @llvm.dbg.declare(metadata i64* %offset.dbg.spill.i, metadata !2252, metadata !DIExpression()) #7, !dbg !2257
  %10 = bitcast { i64*, i64* }* %self to i64**, !dbg !2258
  %_12.i = load i64*, i64** %10, align 8, !dbg !2258, !nonnull !4
; call core::ptr::non_null::NonNull<T>::as_ptr
  %old.i = call { [0 x i8]*, i64 }* @"_ZN4core3ptr8non_null16NonNull$LT$T$GT$6as_ptr17h6840c2b1e583d24dE"(i64* nonnull %_12.i) #7, !dbg !2258
  store { [0 x i8]*, i64 }* %old.i, { [0 x i8]*, i64 }** %old.dbg.spill.i, align 8, !dbg !2258
  call void @llvm.dbg.declare(metadata { [0 x i8]*, i64 }** %old.dbg.spill.i, metadata !2253, metadata !DIExpression()) #7, !dbg !2259
  %11 = bitcast { i64*, i64* }* %self to i64**, !dbg !2260
  %_16.i = load i64*, i64** %11, align 8, !dbg !2260, !nonnull !4
; call core::ptr::non_null::NonNull<T>::as_ptr
  %_15.i = call { [0 x i8]*, i64 }* @"_ZN4core3ptr8non_null16NonNull$LT$T$GT$6as_ptr17h6840c2b1e583d24dE"(i64* nonnull %_16.i) #7, !dbg !2260
  store { [0 x i8]*, i64 }* %_15.i, { [0 x i8]*, i64 }** %self.dbg.spill.i2.i, align 8
  call void @llvm.dbg.declare(metadata { [0 x i8]*, i64 }** %self.dbg.spill.i2.i, metadata !2261, metadata !DIExpression()) #7, !dbg !2267
  store i64 1, i64* %count.dbg.spill.i1.i, align 8
  call void @llvm.dbg.declare(metadata i64* %count.dbg.spill.i1.i, metadata !2266, metadata !DIExpression()) #7, !dbg !2269
  %12 = getelementptr inbounds { [0 x i8]*, i64 }, { [0 x i8]*, i64 }* %_15.i, i64 1, !dbg !2270
