; ModuleID = 'sha2.9dd253f5-cgu.0'
source_filename = "sha2.9dd253f5-cgu.0"
target datalayout = "e-m:e-p:64:64-i64:64-n32:64-S128"
target triple = "bpfel"

%"core::option::Option<(&mut u64, &[u8])>" = type { {}*, [2 x i64] }
%"core::iter::Zip<core::slice::IterMut<u64>, core::slice::ChunksExact<u8>>" = type { { i64*, i64* }, %"core::slice::ChunksExact<u8>", i64, i64, i64 }
%"core::slice::ChunksExact<u8>" = type { { [0 x i8]*, i64 }, { [0 x i8]*, i64 }, i64 }
%"core::option::Option<(&mut u32, &[u8])>" = type { {}*, [2 x i64] }
%"core::iter::Zip<core::slice::IterMut<u32>, core::slice::ChunksExact<u8>>" = type { { i32*, i32* }, %"core::slice::ChunksExact<u8>", i64, i64, i64 }
%"core::option::Option<(&mut u32, &[u8])>::Some" = type { { i32*, { [0 x i8]*, i64 } } }
%"core::option::Option<(&mut u64, &[u8])>::Some" = type { { i64*, { [0 x i8]*, i64 } } }
%"core::fmt::Formatter" = type { { i64, i64 }, { i64, i64 }, { {}*, [3 x i64]* }, i32, i32, i8, [7 x i8] }
%"core::array::TryFromSliceError" = type { {} }
%"core::ptr::metadata::PtrRepr<[[u8; 128]]>" = type { [2 x i64] }
%"core::ptr::metadata::PtrRepr<[[u8; 64]]>" = type { [2 x i64] }
%"core::result::Result<[u8; 8], core::array::TryFromSliceError>" = type { i8, [8 x i8] }
%"core::result::Result<[u8; 4], core::array::TryFromSliceError>" = type { i8, [4 x i8] }
%"[closure@core::array::<impl core::convert::TryFrom<&[u8]> for [u8; 4]>::try_from::{closure#0}]" = type {}
%"[closure@core::array::<impl core::convert::TryFrom<&[u8]> for [u8; 8]>::try_from::{closure#0}]" = type {}
%"core::option::Option<core::fmt::Arguments>" = type { {}*, [5 x i64] }
%"core::panic::Location" = type { { [0 x i8]*, i64 }, i32, i32 }
%"digest::generic_array::GenericArray<u8, digest::typenum::UInt<digest::typenum::UInt<digest::typenum::UInt<digest::typenum::UInt<digest::typenum::UInt<digest::typenum::UInt<digest::typenum::UInt<digest::typenum::UTerm, digest::typenum::B1>, digest::typenum::B0>, digest::typenum::B0>, digest::typenum::B0>, digest::typenum::B0>, digest::typenum::B0>, digest::typenum::B0>>" = type { %"digest::generic_array::GenericArrayImplEven<u8, digest::generic_array::GenericArrayImplEven<u8, digest::generic_array::GenericArrayImplEven<u8, digest::generic_array::GenericArrayImplEven<u8, digest::generic_array::GenericArrayImplEven<u8, digest::generic_array::GenericArrayImplEven<u8, digest::generic_array::GenericArrayImplOdd<u8, [u8; 0]>>>>>>>" }
%"digest::generic_array::GenericArrayImplEven<u8, digest::generic_array::GenericArrayImplEven<u8, digest::generic_array::GenericArrayImplEven<u8, digest::generic_array::GenericArrayImplEven<u8, digest::generic_array::GenericArrayImplEven<u8, digest::generic_array::GenericArrayImplEven<u8, digest::generic_array::GenericArrayImplOdd<u8, [u8; 0]>>>>>>>" = type { %"digest::generic_array::GenericArrayImplEven<u8, digest::generic_array::GenericArrayImplEven<u8, digest::generic_array::GenericArrayImplEven<u8, digest::generic_array::GenericArrayImplEven<u8, digest::generic_array::GenericArrayImplEven<u8, digest::generic_array::GenericArrayImplOdd<u8, [u8; 0]>>>>>>", %"digest::generic_array::GenericArrayImplEven<u8, digest::generic_array::GenericArrayImplEven<u8, digest::generic_array::GenericArrayImplEven<u8, digest::generic_array::GenericArrayImplEven<u8, digest::generic_array::GenericArrayImplEven<u8, digest::generic_array::GenericArrayImplOdd<u8, [u8; 0]>>>>>>", %"core::marker::PhantomData<u8>" }
%"digest::generic_array::GenericArrayImplEven<u8, digest::generic_array::GenericArrayImplEven<u8, digest::generic_array::GenericArrayImplEven<u8, digest::generic_array::GenericArrayImplEven<u8, digest::generic_array::GenericArrayImplEven<u8, digest::generic_array::GenericArrayImplOdd<u8, [u8; 0]>>>>>>" = type { %"digest::generic_array::GenericArrayImplEven<u8, digest::generic_array::GenericArrayImplEven<u8, digest::generic_array::GenericArrayImplEven<u8, digest::generic_array::GenericArrayImplEven<u8, digest::generic_array::GenericArrayImplOdd<u8, [u8; 0]>>>>>", %"digest::generic_array::GenericArrayImplEven<u8, digest::generic_array::GenericArrayImplEven<u8, digest::generic_array::GenericArrayImplEven<u8, digest::generic_array::GenericArrayImplEven<u8, digest::generic_array::GenericArrayImplOdd<u8, [u8; 0]>>>>>", %"core::marker::PhantomData<u8>" }
%"digest::generic_array::GenericArrayImplEven<u8, digest::generic_array::GenericArrayImplEven<u8, digest::generic_array::GenericArrayImplEven<u8, digest::generic_array::GenericArrayImplEven<u8, digest::generic_array::GenericArrayImplOdd<u8, [u8; 0]>>>>>" = type { %"digest::generic_array::GenericArrayImplEven<u8, digest::generic_array::GenericArrayImplEven<u8, digest::generic_array::GenericArrayImplEven<u8, digest::generic_array::GenericArrayImplOdd<u8, [u8; 0]>>>>", %"digest::generic_array::GenericArrayImplEven<u8, digest::generic_array::GenericArrayImplEven<u8, digest::generic_array::GenericArrayImplEven<u8, digest::generic_array::GenericArrayImplOdd<u8, [u8; 0]>>>>", %"core::marker::PhantomData<u8>" }
%"digest::generic_array::GenericArrayImplEven<u8, digest::generic_array::GenericArrayImplEven<u8, digest::generic_array::GenericArrayImplEven<u8, digest::generic_array::GenericArrayImplOdd<u8, [u8; 0]>>>>" = type { %"digest::generic_array::GenericArrayImplEven<u8, digest::generic_array::GenericArrayImplEven<u8, digest::generic_array::GenericArrayImplOdd<u8, [u8; 0]>>>", %"digest::generic_array::GenericArrayImplEven<u8, digest::generic_array::GenericArrayImplEven<u8, digest::generic_array::GenericArrayImplOdd<u8, [u8; 0]>>>", %"core::marker::PhantomData<u8>" }
%"digest::generic_array::GenericArrayImplEven<u8, digest::generic_array::GenericArrayImplEven<u8, digest::generic_array::GenericArrayImplOdd<u8, [u8; 0]>>>" = type { %"digest::generic_array::GenericArrayImplEven<u8, digest::generic_array::GenericArrayImplOdd<u8, [u8; 0]>>", %"digest::generic_array::GenericArrayImplEven<u8, digest::generic_array::GenericArrayImplOdd<u8, [u8; 0]>>", %"core::marker::PhantomData<u8>" }
%"digest::generic_array::GenericArrayImplEven<u8, digest::generic_array::GenericArrayImplOdd<u8, [u8; 0]>>" = type { %"digest::generic_array::GenericArrayImplOdd<u8, [u8; 0]>", %"digest::generic_array::GenericArrayImplOdd<u8, [u8; 0]>", %"core::marker::PhantomData<u8>" }
%"digest::generic_array::GenericArrayImplOdd<u8, [u8; 0]>" = type { [0 x i8], [0 x i8], i8 }
%"core::marker::PhantomData<u8>" = type {}
%"digest::generic_array::GenericArray<u8, digest::typenum::UInt<digest::typenum::UInt<digest::typenum::UInt<digest::typenum::UInt<digest::typenum::UInt<digest::typenum::UInt<digest::typenum::UInt<digest::typenum::UInt<digest::typenum::UTerm, digest::typenum::B1>, digest::typenum::B0>, digest::typenum::B0>, digest::typenum::B0>, digest::typenum::B0>, digest::typenum::B0>, digest::typenum::B0>, digest::typenum::B0>>" = type { %"digest::generic_array::GenericArrayImplEven<u8, digest::generic_array::GenericArrayImplEven<u8, digest::generic_array::GenericArrayImplEven<u8, digest::generic_array::GenericArrayImplEven<u8, digest::generic_array::GenericArrayImplEven<u8, digest::generic_array::GenericArrayImplEven<u8, digest::generic_array::GenericArrayImplEven<u8, digest::generic_array::GenericArrayImplOdd<u8, [u8; 0]>>>>>>>>" }
%"digest::generic_array::GenericArrayImplEven<u8, digest::generic_array::GenericArrayImplEven<u8, digest::generic_array::GenericArrayImplEven<u8, digest::generic_array::GenericArrayImplEven<u8, digest::generic_array::GenericArrayImplEven<u8, digest::generic_array::GenericArrayImplEven<u8, digest::generic_array::GenericArrayImplEven<u8, digest::generic_array::GenericArrayImplOdd<u8, [u8; 0]>>>>>>>>" = type { %"digest::generic_array::GenericArrayImplEven<u8, digest::generic_array::GenericArrayImplEven<u8, digest::generic_array::GenericArrayImplEven<u8, digest::generic_array::GenericArrayImplEven<u8, digest::generic_array::GenericArrayImplEven<u8, digest::generic_array::GenericArrayImplEven<u8, digest::generic_array::GenericArrayImplOdd<u8, [u8; 0]>>>>>>>", %"digest::generic_array::GenericArrayImplEven<u8, digest::generic_array::GenericArrayImplEven<u8, digest::generic_array::GenericArrayImplEven<u8, digest::generic_array::GenericArrayImplEven<u8, digest::generic_array::GenericArrayImplEven<u8, digest::generic_array::GenericArrayImplEven<u8, digest::generic_array::GenericArrayImplOdd<u8, [u8; 0]>>>>>>>", %"core::marker::PhantomData<u8>" }
%"core::result::Result<[u8; 4], core::array::TryFromSliceError>::Err" = type { [1 x i8], %"core::array::TryFromSliceError" }
%"core::result::Result<[u8; 4], core::array::TryFromSliceError>::Ok" = type { [1 x i8], [4 x i8] }
%"core::result::Result<[u8; 8], core::array::TryFromSliceError>::Err" = type { [1 x i8], %"core::array::TryFromSliceError" }
%"core::result::Result<[u8; 8], core::array::TryFromSliceError>::Ok" = type { [1 x i8], [8 x i8] }
%"core::option::Option<usize>::Some" = type { [1 x i64], i64 }

@alloc586 = private unnamed_addr constant <{ [8 x i8] }> zeroinitializer, align 8
@alloc689 = private unnamed_addr constant <{ [76 x i8] }> <{ [76 x i8] c"/home/runner/work/bpf-tools/bpf-tools/out/rust/library/core/src/slice/mod.rs" }>, align 1
@alloc690 = private unnamed_addr constant <{ i8*, [16 x i8] }> <{ i8* getelementptr inbounds (<{ [76 x i8] }>, <{ [76 x i8] }>* @alloc689, i32 0, i32 0, i32 0), [16 x i8] c"L\00\00\00\00\00\00\00_\03\00\00\09\00\00\00" }>, align 8
@alloc701 = private unnamed_addr constant <{ [77 x i8] }> <{ [77 x i8] c"/home/runner/work/bpf-tools/bpf-tools/out/rust/library/core/src/slice/iter.rs" }>, align 1
@alloc692 = private unnamed_addr constant <{ i8*, [16 x i8] }> <{ i8* getelementptr inbounds (<{ [77 x i8] }>, <{ [77 x i8] }>* @alloc701, i32 0, i32 0, i32 0), [16 x i8] c"M\00\00\00\00\00\00\00\A8\06\00\00\13\00\00\00" }>, align 8
@str.0 = internal constant [57 x i8] c"attempt to calculate the remainder with a divisor of zero"
@alloc697 = private unnamed_addr constant <{ [43 x i8] }> <{ [43 x i8] c"called `Result::unwrap()` on an `Err` value" }>, align 1
@vtable.1 = private unnamed_addr constant <{ i8*, [16 x i8], i8*, [0 x i8] }> <{ i8* bitcast (void (%"core::array::TryFromSliceError"*)* @"_ZN4core3ptr51drop_in_place$LT$core..array..TryFromSliceError$GT$17he4544d9395bc0fe2E" to i8*), [16 x i8] c"\00\00\00\00\00\00\00\00\01\00\00\00\00\00\00\00", i8* bitcast (i1 (%"core::array::TryFromSliceError"*, %"core::fmt::Formatter"*)* @"_ZN67_$LT$core..array..TryFromSliceError$u20$as$u20$core..fmt..Debug$GT$3fmt17hf76d34ae020e321eE" to i8*), [0 x i8] zeroinitializer }>, align 8, !dbg !0
@vtable.2 = private unnamed_addr constant <{ i8*, [16 x i8], i8*, [0 x i8] }> <{ i8* bitcast (void (i64**)* @"_ZN4core3ptr30drop_in_place$LT$$RF$usize$GT$17h9bc747dfff3eaeadE" to i8*), [16 x i8] c"\08\00\00\00\00\00\00\00\08\00\00\00\00\00\00\00", i8* bitcast (i1 (i64**, %"core::fmt::Formatter"*)* @"_ZN42_$LT$$RF$T$u20$as$u20$core..fmt..Debug$GT$3fmt17h10eda71dbeef772fE" to i8*), [0 x i8] zeroinitializer }>, align 8, !dbg !11
@alloc702 = private unnamed_addr constant <{ i8*, [16 x i8] }> <{ i8* getelementptr inbounds (<{ [77 x i8] }>, <{ [77 x i8] }>* @alloc701, i32 0, i32 0, i32 0), [16 x i8] c"M\00\00\00\00\00\00\00\D1\06\00\00\11\00\00\00" }>, align 8
@str.3 = internal constant [25 x i8] c"attempt to divide by zero"
@alloc719 = private unnamed_addr constant <{ [84 x i8] }> <{ [84 x i8] c"/root/.cargo/registry/src/github.com-1ecc6299db9ec823/sha2-0.10.2/src/sha256/soft.rs" }>, align 1
@alloc704 = private unnamed_addr constant <{ i8*, [16 x i8] }> <{ i8* getelementptr inbounds (<{ [84 x i8] }>, <{ [84 x i8] }>* @alloc719, i32 0, i32 0, i32 0), [16 x i8] c"T\00\00\00\00\00\00\00\07\00\00\00\06\00\00\00" }>, align 8
@str.4 = internal constant [36 x i8] c"attempt to shift right with overflow"
@alloc706 = private unnamed_addr constant <{ i8*, [16 x i8] }> <{ i8* getelementptr inbounds (<{ [84 x i8] }>, <{ [84 x i8] }>* @alloc719, i32 0, i32 0, i32 0), [16 x i8] c"T\00\00\00\00\00\00\00\07\00\00\00\11\00\00\00" }>, align 8
@alloc708 = private unnamed_addr constant <{ i8*, [16 x i8] }> <{ i8* getelementptr inbounds (<{ [84 x i8] }>, <{ [84 x i8] }>* @alloc719, i32 0, i32 0, i32 0), [16 x i8] c"T\00\00\00\00\00\00\00\07\00\00\00\1C\00\00\00" }>, align 8
@alloc710 = private unnamed_addr constant <{ i8*, [16 x i8] }> <{ i8* getelementptr inbounds (<{ [84 x i8] }>, <{ [84 x i8] }>* @alloc719, i32 0, i32 0, i32 0), [16 x i8] c"T\00\00\00\00\00\00\00\07\00\00\00'\00\00\00" }>, align 8
@alloc712 = private unnamed_addr constant <{ i8*, [16 x i8] }> <{ i8* getelementptr inbounds (<{ [84 x i8] }>, <{ [84 x i8] }>* @alloc719, i32 0, i32 0, i32 0), [16 x i8] c"T\00\00\00\00\00\00\00\0C\00\00\00\06\00\00\00" }>, align 8
@str.5 = internal constant [35 x i8] c"attempt to shift left with overflow"
@alloc714 = private unnamed_addr constant <{ i8*, [16 x i8] }> <{ i8* getelementptr inbounds (<{ [84 x i8] }>, <{ [84 x i8] }>* @alloc719, i32 0, i32 0, i32 0), [16 x i8] c"T\00\00\00\00\00\00\00\0C\00\00\00\11\00\00\00" }>, align 8
@alloc716 = private unnamed_addr constant <{ i8*, [16 x i8] }> <{ i8* getelementptr inbounds (<{ [84 x i8] }>, <{ [84 x i8] }>* @alloc719, i32 0, i32 0, i32 0), [16 x i8] c"T\00\00\00\00\00\00\00\0C\00\00\00\1C\00\00\00" }>, align 8
@alloc718 = private unnamed_addr constant <{ i8*, [16 x i8] }> <{ i8* getelementptr inbounds (<{ [84 x i8] }>, <{ [84 x i8] }>* @alloc719, i32 0, i32 0, i32 0), [16 x i8] c"T\00\00\00\00\00\00\00\0C\00\00\00'\00\00\00" }>, align 8
@0 = private unnamed_addr constant <{ [256 x i8] }> <{ [256 x i8] c"\A5\DB\B5\E9\CF\FB\C0\B5\91D7q\98/\8AB\D5^\1C\AB\A4\82?\92\F1\11\F1Y[\C2V9\C3}\0CU\BE\851$\01[\83\12\98\AA\07\D8t\F1\9B\C1\A7\06\DC\9B\FE\B1\DE\80t]\BEr\CC\A1\0C$\C6\9D\C1\0F\86G\BE\EF\C1i\9B\E4\DA\88\F9v\DC\A9\B0\\\AA\84tJo,\E9-\C7\7FY\BF\C8'\03\B0m\C61\A8RQ>\98g))\14Qc\CA\06G\91\A7\D5\F3\0B\E0\C6\13\0D8S\FCm,M8!\1B.\85\0A\B7'\85,r\92.\C9\C2\81\BB\0AjvTs\0Ae\A3Ql\C7p\8BK\C2Kf\1A\A8\A1\E8\BF\A2p\A0j\10\855\0E\F4$\06\99\D6\19\E8\92\D1\B5\BC\B04LwH'\08l7\1E\16\C1\A4\19\F3o.hO\CA\9C[J\AA\D8N\B3\0C\1C9\08\02\C7\8C\14x\C8\84oc\A5x\EE\82\8Ft\F2xq\C6\F7\A3\F9\BE\EBlP\A4\FA\FF\BE\90" }>, align 4
@alloc720 = private unnamed_addr constant <{ i8*, [16 x i8] }> <{ i8* getelementptr inbounds (<{ [84 x i8] }>, <{ [84 x i8] }>* @alloc719, i32 0, i32 0, i32 0), [16 x i8] c"T\00\00\00\00\00\00\00\D5\00\00\006\00\00\00" }>, align 8
@alloc661 = private unnamed_addr constant <{ [640 x i8] }> <{ [640 x i8] c"\CDe\EF#\91D7q\22\AE(\D7\98/\8AB\BC\DB\89\81\A5\DB\B5\E9/;M\EC\CF\FB\C0\B5\19\D0\05\B6\F1\11\F1Y8\B5H\F3[\C2V9\18\81m\DA\D5^\1C\AB\9BO\19\AF\A4\82?\92\BEopE\01[\83\12B\02\03\A3\98\AA\07\D8\E2\B4\FF\D5\C3}\0CU\8C\B2\E4N\BE\851$\B1\96\16;\FE\B1\DE\80o\89{\F2t]\BEr\94&i\CFt\F1\9B\C15\12\C7%\A7\06\DC\9B\E3%O8\86G\BE\EF\D2J\F1\9E\C1i\9B\E4e\9C\ACw\CC\A1\0C$\B5\D5\8C\8B\C6\9D\C1\0F\83\E4\A6n\AA\84tJu\02+Yo,\E9-\B5S\11\83\DA\88\F9v\D4\FBA\BD\DC\A9\B0\\\102\B4-m\C61\A8\AB\DFf\EERQ>\98\E4\0E\EF\BE\C7\7FY\BF?!\FB\98\C8'\03\B0%\A7\0A\93G\91\A7\D5\C2\8F\A8=\F3\0B\E0\C6pn\0E\0Ag))\14o\82\03\E0Qc\CA\06&\C9&\\8!\1B.\FC/\D2F\85\0A\B7'\DF\B3\95\9D\13\0D8S\ED*\C4Z\FCm,M\A8\B2w<\BB\0Ajv\DEc\AF\8BTs\0Ae;5\82\14\85,r\92\E6\AE\EDG.\C9\C2\81\010B\BCKf\1A\A8d\03\F1L\A1\E8\BF\A20\BET\06\A3Ql\C7\91\97\F8\D0p\8BK\C2\10\A9eU$\06\99\D6\18R\EF\D6\19\E8\92\D1\B8\D1\BB2p\A0j\10* qW\855\0E\F4S\ABAQ\08l7\1E\C8\D0\D2\B8\16\C1\A4\19\A8H\9B\E1\B5\BC\B04\99\EB\8E\DFLwH'\CB\8AA\E3J\AA\D8NcZ\C9\C5\B3\0C\1C9\A3\B8\B2\D6\F3o.hs\E3cwO\CA\9C[`/\17Coc\A5x\FC\B2\EF]\EE\82\8Ft\EC9d\1A\08\02\C7\8Cr\AB\F0\A1\14x\C8\84\E9\BD\82\DE\EBlP\A4(\1Ec#\FA\FF\BE\90+Sr\E3\F2xq\C6\15y\C6\B2\F7\A3\F9\BE\07\C2\C0!\C7\B8\86\D1\9Ca&\EA\CE>'\CAx\D1n\EE\7FO}\F5\1E\EB\E0\CD\D6}\DA\EA\A6\98\C8\A2\C5}c\0A\BAo\17r\AAg\F0\06\1BG\1C\135\0Bq\1B\AE\0D\F9\BE\04\98?\11\93$\C7@{\AB\CA2\84}\04#\F5w\DB(L\0D\10\9C\C4g\1DC\BC\BE\C9\15\0A\BE\9E<*~e\FC\9C)\7FY\B6B>\CB\BE\D4\C5L\17XGJ\8C\19Dl\EC\FA\D6:\ABo\CB_" }>, align 8
@alloc721 = private unnamed_addr constant <{ [84 x i8] }> <{ [84 x i8] c"/root/.cargo/registry/src/github.com-1ecc6299db9ec823/sha2-0.10.2/src/sha512/soft.rs" }>, align 1
@alloc722 = private unnamed_addr constant <{ i8*, [16 x i8] }> <{ i8* getelementptr inbounds (<{ [84 x i8] }>, <{ [84 x i8] }>* @alloc721, i32 0, i32 0, i32 0), [16 x i8] c"T\00\00\00\00\00\00\00\D2\00\00\006\00\00\00" }>, align 8

; <core::iter::adapters::zip::Zip<A,B> as core::iter::traits::iterator::Iterator>::next
; Function Attrs: inlinehint nounwind
define void @"_ZN102_$LT$core..iter..adapters..zip..Zip$LT$A$C$B$GT$$u20$as$u20$core..iter..traits..iterator..Iterator$GT$4next17h67dbc31cc41c601aE"(%"core::option::Option<(&mut u64, &[u8])>"* noalias nocapture sret(%"core::option::Option<(&mut u64, &[u8])>") dereferenceable(24) %0, %"core::iter::Zip<core::slice::IterMut<u64>, core::slice::ChunksExact<u8>>"* align 8 dereferenceable(80) %self) unnamed_addr #0 !dbg !50 {
start:
  %self.dbg.spill = alloca %"core::iter::Zip<core::slice::IterMut<u64>, core::slice::ChunksExact<u8>>"*, align 8
  store %"core::iter::Zip<core::slice::IterMut<u64>, core::slice::ChunksExact<u8>>"* %self, %"core::iter::Zip<core::slice::IterMut<u64>, core::slice::ChunksExact<u8>>"** %self.dbg.spill, align 8
  call void @llvm.dbg.declare(metadata %"core::iter::Zip<core::slice::IterMut<u64>, core::slice::ChunksExact<u8>>"** %self.dbg.spill, metadata !122, metadata !DIExpression()), !dbg !123
; call <core::iter::adapters::zip::Zip<A,B> as core::iter::adapters::zip::ZipImpl<A,B>>::next
  call void @"_ZN111_$LT$core..iter..adapters..zip..Zip$LT$A$C$B$GT$$u20$as$u20$core..iter..adapters..zip..ZipImpl$LT$A$C$B$GT$$GT$4next17h9e7b9f60f7775cb5E"(%"core::option::Option<(&mut u64, &[u8])>"* noalias nocapture sret(%"core::option::Option<(&mut u64, &[u8])>") dereferenceable(24) %0, %"core::iter::Zip<core::slice::IterMut<u64>, core::slice::ChunksExact<u8>>"* align 8 dereferenceable(80) %self), !dbg !124
  br label %bb1, !dbg !124

bb1:                                              ; preds = %start
  ret void, !dbg !125
}

; <core::iter::adapters::zip::Zip<A,B> as core::iter::traits::iterator::Iterator>::next
; Function Attrs: inlinehint nounwind
define void @"_ZN102_$LT$core..iter..adapters..zip..Zip$LT$A$C$B$GT$$u20$as$u20$core..iter..traits..iterator..Iterator$GT$4next17had8dd885bf838d28E"(%"core::option::Option<(&mut u32, &[u8])>"* noalias nocapture sret(%"core::option::Option<(&mut u32, &[u8])>") dereferenceable(24) %0, %"core::iter::Zip<core::slice::IterMut<u32>, core::slice::ChunksExact<u8>>"* align 8 dereferenceable(80) %self) unnamed_addr #0 !dbg !126 {
start:
  %self.dbg.spill = alloca %"core::iter::Zip<core::slice::IterMut<u32>, core::slice::ChunksExact<u8>>"*, align 8
  store %"core::iter::Zip<core::slice::IterMut<u32>, core::slice::ChunksExact<u8>>"* %self, %"core::iter::Zip<core::slice::IterMut<u32>, core::slice::ChunksExact<u8>>"** %self.dbg.spill, align 8
  call void @llvm.dbg.declare(metadata %"core::iter::Zip<core::slice::IterMut<u32>, core::slice::ChunksExact<u8>>"** %self.dbg.spill, metadata !173, metadata !DIExpression()), !dbg !174
; call <core::iter::adapters::zip::Zip<A,B> as core::iter::adapters::zip::ZipImpl<A,B>>::next
  call void @"_ZN111_$LT$core..iter..adapters..zip..Zip$LT$A$C$B$GT$$u20$as$u20$core..iter..adapters..zip..ZipImpl$LT$A$C$B$GT$$GT$4next17h8e84210b138180f6E"(%"core::option::Option<(&mut u32, &[u8])>"* noalias nocapture sret(%"core::option::Option<(&mut u32, &[u8])>") dereferenceable(24) %0, %"core::iter::Zip<core::slice::IterMut<u32>, core::slice::ChunksExact<u8>>"* align 8 dereferenceable(80) %self), !dbg !175
  br label %bb1, !dbg !175

bb1:                                              ; preds = %start
  ret void, !dbg !176
}

; <core::ops::range::RangeTo<usize> as core::slice::index::SliceIndex<[T]>>::get_unchecked
; Function Attrs: inlinehint nounwind
define { [0 x i8]*, i64 } @"_ZN108_$LT$core..ops..range..RangeTo$LT$usize$GT$$u20$as$u20$core..slice..index..SliceIndex$LT$$u5b$T$u5d$$GT$$GT$13get_unchecked17h7b3b465604657aa0E"(i64 %self, [0 x i8]* %slice.0, i64 %slice.1) unnamed_addr #0 !dbg !177 {
start:
  %slice.dbg.spill = alloca { [0 x i8]*, i64 }, align 8
  %self.dbg.spill = alloca i64, align 8
  %_3 = alloca { i64, i64 }, align 8
  store i64 %self, i64* %self.dbg.spill, align 8
  call void @llvm.dbg.declare(metadata i64* %self.dbg.spill, metadata !195, metadata !DIExpression()), !dbg !197
  %0 = getelementptr inbounds { [0 x i8]*, i64 }, { [0 x i8]*, i64 }* %slice.dbg.spill, i32 0, i32 0
  store [0 x i8]* %slice.0, [0 x i8]** %0, align 8
  %1 = getelementptr inbounds { [0 x i8]*, i64 }, { [0 x i8]*, i64 }* %slice.dbg.spill, i32 0, i32 1
  store i64 %slice.1, i64* %1, align 8
  call void @llvm.dbg.declare(metadata { [0 x i8]*, i64 }* %slice.dbg.spill, metadata !196, metadata !DIExpression()), !dbg !198
  %2 = bitcast { i64, i64 }* %_3 to i64*, !dbg !199
  store i64 0, i64* %2, align 8, !dbg !199
  %3 = getelementptr inbounds { i64, i64 }, { i64, i64 }* %_3, i32 0, i32 1, !dbg !199
  store i64 %self, i64* %3, align 8, !dbg !199
  %4 = getelementptr inbounds { i64, i64 }, { i64, i64 }* %_3, i32 0, i32 0, !dbg !199
  %5 = load i64, i64* %4, align 8, !dbg !199
  %6 = getelementptr inbounds { i64, i64 }, { i64, i64 }* %_3, i32 0, i32 1, !dbg !199
  %7 = load i64, i64* %6, align 8, !dbg !199
; call <core::ops::range::Range<usize> as core::slice::index::SliceIndex<[T]>>::get_unchecked
  %8 = call { [0 x i8]*, i64 } @"_ZN106_$LT$core..ops..range..Range$LT$usize$GT$$u20$as$u20$core..slice..index..SliceIndex$LT$$u5b$T$u5d$$GT$$GT$13get_unchecked17hc434058d10a96ce1E"(i64 %5, i64 %7, [0 x i8]* %slice.0, i64 %slice.1), !dbg !199
  %9 = extractvalue { [0 x i8]*, i64 } %8, 0, !dbg !199
  %10 = extractvalue { [0 x i8]*, i64 } %8, 1, !dbg !199
  br label %bb1, !dbg !199

bb1:                                              ; preds = %start
  %11 = insertvalue { [0 x i8]*, i64 } undef, [0 x i8]* %9, 0, !dbg !200
  %12 = insertvalue { [0 x i8]*, i64 } %11, i64 %10, 1, !dbg !200
  ret { [0 x i8]*, i64 } %12, !dbg !200
}

; <core::iter::adapters::zip::Zip<A,B> as core::iter::adapters::zip::ZipImpl<A,B>>::new
; Function Attrs: nounwind
define void @"_ZN111_$LT$core..iter..adapters..zip..Zip$LT$A$C$B$GT$$u20$as$u20$core..iter..adapters..zip..ZipImpl$LT$A$C$B$GT$$GT$3new17hc90825b50e23af62E"(%"core::iter::Zip<core::slice::IterMut<u64>, core::slice::ChunksExact<u8>>"* noalias nocapture sret(%"core::iter::Zip<core::slice::IterMut<u64>, core::slice::ChunksExact<u8>>") dereferenceable(80) %0, i64* nonnull %1, i64* %2, %"core::slice::ChunksExact<u8>"* noalias nocapture dereferenceable(40) %b) unnamed_addr #1 !dbg !201 {
start:
  %len.dbg.spill = alloca i64, align 8
  %a_len.dbg.spill = alloca i64, align 8
  %_10 = alloca %"core::slice::ChunksExact<u8>", align 8
  %a = alloca { i64*, i64* }, align 8
  %3 = getelementptr inbounds { i64*, i64* }, { i64*, i64* }* %a, i32 0, i32 0
  store i64* %1, i64** %3, align 8
  %4 = getelementptr inbounds { i64*, i64* }, { i64*, i64* }* %a, i32 0, i32 1
  store i64* %2, i64** %4, align 8
  call void @llvm.dbg.declare(metadata { i64*, i64* }* %a, metadata !206, metadata !DIExpression()), !dbg !212
  call void @llvm.dbg.declare(metadata %"core::slice::ChunksExact<u8>"* %b, metadata !207, metadata !DIExpression()), !dbg !213
; call core::iter::adapters::zip::TrustedRandomAccessNoCoerce::size
  %a_len = call i64 @_ZN4core4iter8adapters3zip27TrustedRandomAccessNoCoerce4size17h0941118be5fb4a1bE({ i64*, i64* }* align 8 dereferenceable(16) %a), !dbg !214
  store i64 %a_len, i64* %a_len.dbg.spill, align 8, !dbg !214
  call void @llvm.dbg.declare(metadata i64* %a_len.dbg.spill, metadata !208, metadata !DIExpression()), !dbg !215
  br label %bb1, !dbg !214

bb1:                                              ; preds = %start
; call core::iter::adapters::zip::TrustedRandomAccessNoCoerce::size
  %_7 = call i64 @_ZN4core4iter8adapters3zip27TrustedRandomAccessNoCoerce4size17hfdc53a140ec1a1c9E(%"core::slice::ChunksExact<u8>"* align 8 dereferenceable(40) %b), !dbg !216
  br label %bb2, !dbg !216

bb2:                                              ; preds = %bb1
; call core::cmp::min
  %len = call i64 @_ZN4core3cmp3min17h7abbe8c7e1d4e6efE(i64 %a_len, i64 %_7), !dbg !217
  store i64 %len, i64* %len.dbg.spill, align 8, !dbg !217
  call void @llvm.dbg.declare(metadata i64* %len.dbg.spill, metadata !210, metadata !DIExpression()), !dbg !218
  br label %bb3, !dbg !217

bb3:                                              ; preds = %bb2
  %5 = getelementptr inbounds { i64*, i64* }, { i64*, i64* }* %a, i32 0, i32 0, !dbg !219
  %_9.0 = load i64*, i64** %5, align 8, !dbg !219, !nonnull !4
  %6 = getelementptr inbounds { i64*, i64* }, { i64*, i64* }* %a, i32 0, i32 1, !dbg !219
  %_9.1 = load i64*, i64** %6, align 8, !dbg !219
  %7 = bitcast %"core::slice::ChunksExact<u8>"* %_10 to i8*, !dbg !220
  %8 = bitcast %"core::slice::ChunksExact<u8>"* %b to i8*, !dbg !220
  call void @llvm.memcpy.p0i8.p0i8.i64(i8* align 8 %7, i8* align 8 %8, i64 40, i1 false), !dbg !220
  %9 = bitcast %"core::iter::Zip<core::slice::IterMut<u64>, core::slice::ChunksExact<u8>>"* %0 to { i64*, i64* }*, !dbg !221
  %10 = getelementptr inbounds { i64*, i64* }, { i64*, i64* }* %9, i32 0, i32 0, !dbg !221
  store i64* %_9.0, i64** %10, align 8, !dbg !221
  %11 = getelementptr inbounds { i64*, i64* }, { i64*, i64* }* %9, i32 0, i32 1, !dbg !221
  store i64* %_9.1, i64** %11, align 8, !dbg !221
  %12 = getelementptr inbounds %"core::iter::Zip<core::slice::IterMut<u64>, core::slice::ChunksExact<u8>>", %"core::iter::Zip<core::slice::IterMut<u64>, core::slice::ChunksExact<u8>>"* %0, i32 0, i32 1, !dbg !221
  %13 = bitcast %"core::slice::ChunksExact<u8>"* %12 to i8*, !dbg !221
  %14 = bitcast %"core::slice::ChunksExact<u8>"* %_10 to i8*, !dbg !221
  call void @llvm.memcpy.p0i8.p0i8.i64(i8* align 8 %13, i8* align 8 %14, i64 40, i1 false), !dbg !221
  %15 = getelementptr inbounds %"core::iter::Zip<core::slice::IterMut<u64>, core::slice::ChunksExact<u8>>", %"core::iter::Zip<core::slice::IterMut<u64>, core::slice::ChunksExact<u8>>"* %0, i32 0, i32 2, !dbg !221
  store i64 0, i64* %15, align 8, !dbg !221
  %16 = getelementptr inbounds %"core::iter::Zip<core::slice::IterMut<u64>, core::slice::ChunksExact<u8>>", %"core::iter::Zip<core::slice::IterMut<u64>, core::slice::ChunksExact<u8>>"* %0, i32 0, i32 3, !dbg !221
  store i64 %len, i64* %16, align 8, !dbg !221
  %17 = getelementptr inbounds %"core::iter::Zip<core::slice::IterMut<u64>, core::slice::ChunksExact<u8>>", %"core::iter::Zip<core::slice::IterMut<u64>, core::slice::ChunksExact<u8>>"* %0, i32 0, i32 4, !dbg !221
  store i64 %a_len, i64* %17, align 8, !dbg !221
  ret void, !dbg !222
}

; <core::iter::adapters::zip::Zip<A,B> as core::iter::adapters::zip::ZipImpl<A,B>>::new
; Function Attrs: nounwind
define void @"_ZN111_$LT$core..iter..adapters..zip..Zip$LT$A$C$B$GT$$u20$as$u20$core..iter..adapters..zip..ZipImpl$LT$A$C$B$GT$$GT$3new17hd55a0eb64db03200E"(%"core::iter::Zip<core::slice::IterMut<u32>, core::slice::ChunksExact<u8>>"* noalias nocapture sret(%"core::iter::Zip<core::slice::IterMut<u32>, core::slice::ChunksExact<u8>>") dereferenceable(80) %0, i32* nonnull %1, i32* %2, %"core::slice::ChunksExact<u8>"* noalias nocapture dereferenceable(40) %b) unnamed_addr #1 !dbg !223 {
start:
  %len.dbg.spill = alloca i64, align 8
  %a_len.dbg.spill = alloca i64, align 8
  %_10 = alloca %"core::slice::ChunksExact<u8>", align 8
  %a = alloca { i32*, i32* }, align 8
  %3 = getelementptr inbounds { i32*, i32* }, { i32*, i32* }* %a, i32 0, i32 0
  store i32* %1, i32** %3, align 8
  %4 = getelementptr inbounds { i32*, i32* }, { i32*, i32* }* %a, i32 0, i32 1
  store i32* %2, i32** %4, align 8
  call void @llvm.dbg.declare(metadata { i32*, i32* }* %a, metadata !227, metadata !DIExpression()), !dbg !233
  call void @llvm.dbg.declare(metadata %"core::slice::ChunksExact<u8>"* %b, metadata !228, metadata !DIExpression()), !dbg !234
; call core::iter::adapters::zip::TrustedRandomAccessNoCoerce::size
  %a_len = call i64 @_ZN4core4iter8adapters3zip27TrustedRandomAccessNoCoerce4size17h2affb0a28ef49542E({ i32*, i32* }* align 8 dereferenceable(16) %a), !dbg !235
  store i64 %a_len, i64* %a_len.dbg.spill, align 8, !dbg !235
  call void @llvm.dbg.declare(metadata i64* %a_len.dbg.spill, metadata !229, metadata !DIExpression()), !dbg !236
  br label %bb1, !dbg !235

bb1:                                              ; preds = %start
; call core::iter::adapters::zip::TrustedRandomAccessNoCoerce::size
  %_7 = call i64 @_ZN4core4iter8adapters3zip27TrustedRandomAccessNoCoerce4size17hfdc53a140ec1a1c9E(%"core::slice::ChunksExact<u8>"* align 8 dereferenceable(40) %b), !dbg !237
  br label %bb2, !dbg !237

bb2:                                              ; preds = %bb1
; call core::cmp::min
  %len = call i64 @_ZN4core3cmp3min17h7abbe8c7e1d4e6efE(i64 %a_len, i64 %_7), !dbg !238
  store i64 %len, i64* %len.dbg.spill, align 8, !dbg !238
  call void @llvm.dbg.declare(metadata i64* %len.dbg.spill, metadata !231, metadata !DIExpression()), !dbg !239
  br label %bb3, !dbg !238

bb3:                                              ; preds = %bb2
  %5 = getelementptr inbounds { i32*, i32* }, { i32*, i32* }* %a, i32 0, i32 0, !dbg !240
  %_9.0 = load i32*, i32** %5, align 8, !dbg !240, !nonnull !4
  %6 = getelementptr inbounds { i32*, i32* }, { i32*, i32* }* %a, i32 0, i32 1, !dbg !240
  %_9.1 = load i32*, i32** %6, align 8, !dbg !240
  %7 = bitcast %"core::slice::ChunksExact<u8>"* %_10 to i8*, !dbg !241
  %8 = bitcast %"core::slice::ChunksExact<u8>"* %b to i8*, !dbg !241
  call void @llvm.memcpy.p0i8.p0i8.i64(i8* align 8 %7, i8* align 8 %8, i64 40, i1 false), !dbg !241
  %9 = bitcast %"core::iter::Zip<core::slice::IterMut<u32>, core::slice::ChunksExact<u8>>"* %0 to { i32*, i32* }*, !dbg !242
  %10 = getelementptr inbounds { i32*, i32* }, { i32*, i32* }* %9, i32 0, i32 0, !dbg !242
  store i32* %_9.0, i32** %10, align 8, !dbg !242
  %11 = getelementptr inbounds { i32*, i32* }, { i32*, i32* }* %9, i32 0, i32 1, !dbg !242
  store i32* %_9.1, i32** %11, align 8, !dbg !242
  %12 = getelementptr inbounds %"core::iter::Zip<core::slice::IterMut<u32>, core::slice::ChunksExact<u8>>", %"core::iter::Zip<core::slice::IterMut<u32>, core::slice::ChunksExact<u8>>"* %0, i32 0, i32 1, !dbg !242
  %13 = bitcast %"core::slice::ChunksExact<u8>"* %12 to i8*, !dbg !242
  %14 = bitcast %"core::slice::ChunksExact<u8>"* %_10 to i8*, !dbg !242
  call void @llvm.memcpy.p0i8.p0i8.i64(i8* align 8 %13, i8* align 8 %14, i64 40, i1 false), !dbg !242
  %15 = getelementptr inbounds %"core::iter::Zip<core::slice::IterMut<u32>, core::slice::ChunksExact<u8>>", %"core::iter::Zip<core::slice::IterMut<u32>, core::slice::ChunksExact<u8>>"* %0, i32 0, i32 2, !dbg !242
  store i64 0, i64* %15, align 8, !dbg !242
  %16 = getelementptr inbounds %"core::iter::Zip<core::slice::IterMut<u32>, core::slice::ChunksExact<u8>>", %"core::iter::Zip<core::slice::IterMut<u32>, core::slice::ChunksExact<u8>>"* %0, i32 0, i32 3, !dbg !242
  store i64 %len, i64* %16, align 8, !dbg !242
  %17 = getelementptr inbounds %"core::iter::Zip<core::slice::IterMut<u32>, core::slice::ChunksExact<u8>>", %"core::iter::Zip<core::slice::IterMut<u32>, core::slice::ChunksExact<u8>>"* %0, i32 0, i32 4, !dbg !242
  store i64 %a_len, i64* %17, align 8, !dbg !242
  ret void, !dbg !243
}

; <core::iter::adapters::zip::Zip<A,B> as core::iter::adapters::zip::ZipImpl<A,B>>::next
; Function Attrs: inlinehint nounwind
define void @"_ZN111_$LT$core..iter..adapters..zip..Zip$LT$A$C$B$GT$$u20$as$u20$core..iter..adapters..zip..ZipImpl$LT$A$C$B$GT$$GT$4next17h8e84210b138180f6E"(%"core::option::Option<(&mut u32, &[u8])>"* noalias nocapture sret(%"core::option::Option<(&mut u32, &[u8])>") dereferenceable(24) %0, %"core::iter::Zip<core::slice::IterMut<u32>, core::slice::ChunksExact<u8>>"* align 8 dereferenceable(80) %self) unnamed_addr #0 !dbg !244 {
start:
  %i.dbg.spill2 = alloca i64, align 8
  %i.dbg.spill = alloca i64, align 8
  %self.dbg.spill = alloca %"core::iter::Zip<core::slice::IterMut<u32>, core::slice::ChunksExact<u8>>"*, align 8
  %_13 = alloca i8, align 1
  %_6 = alloca { i32*, { [0 x i8]*, i64 } }, align 8
  store %"core::iter::Zip<core::slice::IterMut<u32>, core::slice::ChunksExact<u8>>"* %self, %"core::iter::Zip<core::slice::IterMut<u32>, core::slice::ChunksExact<u8>>"** %self.dbg.spill, align 8
  call void @llvm.dbg.declare(metadata %"core::iter::Zip<core::slice::IterMut<u32>, core::slice::ChunksExact<u8>>"** %self.dbg.spill, metadata !246, metadata !DIExpression()), !dbg !251
  %1 = getelementptr inbounds %"core::iter::Zip<core::slice::IterMut<u32>, core::slice::ChunksExact<u8>>", %"core::iter::Zip<core::slice::IterMut<u32>, core::slice::ChunksExact<u8>>"* %self, i32 0, i32 2, !dbg !252
  %_3 = load i64, i64* %1, align 8, !dbg !252
  %2 = getelementptr inbounds %"core::iter::Zip<core::slice::IterMut<u32>, core::slice::ChunksExact<u8>>", %"core::iter::Zip<core::slice::IterMut<u32>, core::slice::ChunksExact<u8>>"* %self, i32 0, i32 3, !dbg !253
  %_4 = load i64, i64* %2, align 8, !dbg !253
  %_2 = icmp ult i64 %_3, %_4, !dbg !252
  br i1 %_2, label %bb1, label %bb4, !dbg !252

bb4:                                              ; preds = %start
  br i1 false, label %bb6, label %bb5, !dbg !254

bb1:                                              ; preds = %start
  %3 = getelementptr inbounds %"core::iter::Zip<core::slice::IterMut<u32>, core::slice::ChunksExact<u8>>", %"core::iter::Zip<core::slice::IterMut<u32>, core::slice::ChunksExact<u8>>"* %self, i32 0, i32 2, !dbg !255
  %i = load i64, i64* %3, align 8, !dbg !255
  store i64 %i, i64* %i.dbg.spill, align 8, !dbg !255
  call void @llvm.dbg.declare(metadata i64* %i.dbg.spill, metadata !247, metadata !DIExpression()), !dbg !256
  %4 = getelementptr inbounds %"core::iter::Zip<core::slice::IterMut<u32>, core::slice::ChunksExact<u8>>", %"core::iter::Zip<core::slice::IterMut<u32>, core::slice::ChunksExact<u8>>"* %self, i32 0, i32 2, !dbg !257
  %5 = getelementptr inbounds %"core::iter::Zip<core::slice::IterMut<u32>, core::slice::ChunksExact<u8>>", %"core::iter::Zip<core::slice::IterMut<u32>, core::slice::ChunksExact<u8>>"* %self, i32 0, i32 2, !dbg !257
  %6 = load i64, i64* %5, align 8, !dbg !257
  %7 = add i64 %6, 1, !dbg !257
  store i64 %7, i64* %4, align 8, !dbg !257
  %_8 = bitcast %"core::iter::Zip<core::slice::IterMut<u32>, core::slice::ChunksExact<u8>>"* %self to { i32*, i32* }*, !dbg !258
; call <core::slice::iter::IterMut<T> as core::iter::traits::iterator::Iterator>::__iterator_get_unchecked
  %_7 = call align 4 dereferenceable(4) i32* @"_ZN94_$LT$core..slice..iter..IterMut$LT$T$GT$$u20$as$u20$core..iter..traits..iterator..Iterator$GT$24__iterator_get_unchecked17h652fb5c8615ec912E"({ i32*, i32* }* align 8 dereferenceable(16) %_8, i64 %i), !dbg !258
  br label %bb2, !dbg !258

bb2:                                              ; preds = %bb1
  %_11 = getelementptr inbounds %"core::iter::Zip<core::slice::IterMut<u32>, core::slice::ChunksExact<u8>>", %"core::iter::Zip<core::slice::IterMut<u32>, core::slice::ChunksExact<u8>>"* %self, i32 0, i32 1, !dbg !259
; call <core::slice::iter::ChunksExact<T> as core::iter::traits::iterator::Iterator>::__iterator_get_unchecked
  %8 = call { [0 x i8]*, i64 } @"_ZN98_$LT$core..slice..iter..ChunksExact$LT$T$GT$$u20$as$u20$core..iter..traits..iterator..Iterator$GT$24__iterator_get_unchecked17hbcc6a714238eadf1E"(%"core::slice::ChunksExact<u8>"* align 8 dereferenceable(40) %_11, i64 %i), !dbg !259
  %_10.0 = extractvalue { [0 x i8]*, i64 } %8, 0, !dbg !259
  %_10.1 = extractvalue { [0 x i8]*, i64 } %8, 1, !dbg !259
  br label %bb3, !dbg !259

bb3:                                              ; preds = %bb2
  %9 = bitcast { i32*, { [0 x i8]*, i64 } }* %_6 to i32**, !dbg !260
  store i32* %_7, i32** %9, align 8, !dbg !260
  %10 = getelementptr inbounds { i32*, { [0 x i8]*, i64 } }, { i32*, { [0 x i8]*, i64 } }* %_6, i32 0, i32 1, !dbg !260
  %11 = getelementptr inbounds { [0 x i8]*, i64 }, { [0 x i8]*, i64 }* %10, i32 0, i32 0, !dbg !260
  store [0 x i8]* %_10.0, [0 x i8]** %11, align 8, !dbg !260
  %12 = getelementptr inbounds { [0 x i8]*, i64 }, { [0 x i8]*, i64 }* %10, i32 0, i32 1, !dbg !260
  store i64 %_10.1, i64* %12, align 8, !dbg !260
  %13 = bitcast %"core::option::Option<(&mut u32, &[u8])>"* %0 to %"core::option::Option<(&mut u32, &[u8])>::Some"*, !dbg !261
  %14 = bitcast %"core::option::Option<(&mut u32, &[u8])>::Some"* %13 to { i32*, { [0 x i8]*, i64 } }*, !dbg !261
  %15 = bitcast { i32*, { [0 x i8]*, i64 } }* %14 to i8*, !dbg !261
  %16 = bitcast { i32*, { [0 x i8]*, i64 } }* %_6 to i8*, !dbg !261
  call void @llvm.memcpy.p0i8.p0i8.i64(i8* align 8 %15, i8* align 8 %16, i64 24, i1 false), !dbg !261
  br label %bb13, !dbg !262

bb13:                                             ; preds = %bb12, %bb3
  ret void, !dbg !263

bb5:                                              ; preds = %bb4
  store i8 0, i8* %_13, align 1, !dbg !254
  br label %bb7, !dbg !254

bb6:                                              ; preds = %bb4
  %17 = getelementptr inbounds %"core::iter::Zip<core::slice::IterMut<u32>, core::slice::ChunksExact<u8>>", %"core::iter::Zip<core::slice::IterMut<u32>, core::slice::ChunksExact<u8>>"* %self, i32 0, i32 2, !dbg !264
  %_15 = load i64, i64* %17, align 8, !dbg !264
  %18 = getelementptr inbounds %"core::iter::Zip<core::slice::IterMut<u32>, core::slice::ChunksExact<u8>>", %"core::iter::Zip<core::slice::IterMut<u32>, core::slice::ChunksExact<u8>>"* %self, i32 0, i32 4, !dbg !265
  %_16 = load i64, i64* %18, align 8, !dbg !265
  %_14 = icmp ult i64 %_15, %_16, !dbg !264
  %19 = zext i1 %_14 to i8, !dbg !254
  store i8 %19, i8* %_13, align 1, !dbg !254
  br label %bb7, !dbg !254

bb7:                                              ; preds = %bb5, %bb6
  %20 = load i8, i8* %_13, align 1, !dbg !254, !range !266
  %21 = trunc i8 %20 to i1, !dbg !254
  br i1 %21, label %bb8, label %bb11, !dbg !254

bb11:                                             ; preds = %bb7
  %22 = bitcast %"core::option::Option<(&mut u32, &[u8])>"* %0 to {}**, !dbg !267
  store {}* null, {}** %22, align 8, !dbg !267
  br label %bb12, !dbg !268

bb8:                                              ; preds = %bb7
  %23 = getelementptr inbounds %"core::iter::Zip<core::slice::IterMut<u32>, core::slice::ChunksExact<u8>>", %"core::iter::Zip<core::slice::IterMut<u32>, core::slice::ChunksExact<u8>>"* %self, i32 0, i32 2, !dbg !269
  %i1 = load i64, i64* %23, align 8, !dbg !269
  store i64 %i1, i64* %i.dbg.spill2, align 8, !dbg !269
  call void @llvm.dbg.declare(metadata i64* %i.dbg.spill2, metadata !249, metadata !DIExpression()), !dbg !270
  %24 = getelementptr inbounds %"core::iter::Zip<core::slice::IterMut<u32>, core::slice::ChunksExact<u8>>", %"core::iter::Zip<core::slice::IterMut<u32>, core::slice::ChunksExact<u8>>"* %self, i32 0, i32 2, !dbg !271
  %25 = getelementptr inbounds %"core::iter::Zip<core::slice::IterMut<u32>, core::slice::ChunksExact<u8>>", %"core::iter::Zip<core::slice::IterMut<u32>, core::slice::ChunksExact<u8>>"* %self, i32 0, i32 2, !dbg !271
  %26 = load i64, i64* %25, align 8, !dbg !271
  %27 = add i64 %26, 1, !dbg !271
  store i64 %27, i64* %24, align 8, !dbg !271
  %28 = getelementptr inbounds %"core::iter::Zip<core::slice::IterMut<u32>, core::slice::ChunksExact<u8>>", %"core::iter::Zip<core::slice::IterMut<u32>, core::slice::ChunksExact<u8>>"* %self, i32 0, i32 3, !dbg !272
  %29 = getelementptr inbounds %"core::iter::Zip<core::slice::IterMut<u32>, core::slice::ChunksExact<u8>>", %"core::iter::Zip<core::slice::IterMut<u32>, core::slice::ChunksExact<u8>>"* %self, i32 0, i32 3, !dbg !272
  %30 = load i64, i64* %29, align 8, !dbg !272
  %31 = add i64 %30, 1, !dbg !272
  store i64 %31, i64* %28, align 8, !dbg !272
  %_19 = bitcast %"core::iter::Zip<core::slice::IterMut<u32>, core::slice::ChunksExact<u8>>"* %self to { i32*, i32* }*, !dbg !273
; call <core::slice::iter::IterMut<T> as core::iter::traits::iterator::Iterator>::__iterator_get_unchecked
  %_18 = call align 4 dereferenceable(4) i32* @"_ZN94_$LT$core..slice..iter..IterMut$LT$T$GT$$u20$as$u20$core..iter..traits..iterator..Iterator$GT$24__iterator_get_unchecked17h652fb5c8615ec912E"({ i32*, i32* }* align 8 dereferenceable(16) %_19, i64 %i1), !dbg !273
  br label %bb9, !dbg !273

bb9:                                              ; preds = %bb8
  br label %bb10, !dbg !274

bb10:                                             ; preds = %bb9
  %32 = bitcast %"core::option::Option<(&mut u32, &[u8])>"* %0 to {}**, !dbg !275
  store {}* null, {}** %32, align 8, !dbg !275
  br label %bb12, !dbg !268

bb12:                                             ; preds = %bb11, %bb10
  br label %bb13, !dbg !262
}

; <core::iter::adapters::zip::Zip<A,B> as core::iter::adapters::zip::ZipImpl<A,B>>::next
; Function Attrs: inlinehint nounwind
define void @"_ZN111_$LT$core..iter..adapters..zip..Zip$LT$A$C$B$GT$$u20$as$u20$core..iter..adapters..zip..ZipImpl$LT$A$C$B$GT$$GT$4next17h9e7b9f60f7775cb5E"(%"core::option::Option<(&mut u64, &[u8])>"* noalias nocapture sret(%"core::option::Option<(&mut u64, &[u8])>") dereferenceable(24) %0, %"core::iter::Zip<core::slice::IterMut<u64>, core::slice::ChunksExact<u8>>"* align 8 dereferenceable(80) %self) unnamed_addr #0 !dbg !276 {
start:
  %i.dbg.spill2 = alloca i64, align 8
  %i.dbg.spill = alloca i64, align 8
  %self.dbg.spill = alloca %"core::iter::Zip<core::slice::IterMut<u64>, core::slice::ChunksExact<u8>>"*, align 8
  %_13 = alloca i8, align 1
  %_6 = alloca { i64*, { [0 x i8]*, i64 } }, align 8
  store %"core::iter::Zip<core::slice::IterMut<u64>, core::slice::ChunksExact<u8>>"* %self, %"core::iter::Zip<core::slice::IterMut<u64>, core::slice::ChunksExact<u8>>"** %self.dbg.spill, align 8
  call void @llvm.dbg.declare(metadata %"core::iter::Zip<core::slice::IterMut<u64>, core::slice::ChunksExact<u8>>"** %self.dbg.spill, metadata !278, metadata !DIExpression()), !dbg !283
  %1 = getelementptr inbounds %"core::iter::Zip<core::slice::IterMut<u64>, core::slice::ChunksExact<u8>>", %"core::iter::Zip<core::slice::IterMut<u64>, core::slice::ChunksExact<u8>>"* %self, i32 0, i32 2, !dbg !284
  %_3 = load i64, i64* %1, align 8, !dbg !284
  %2 = getelementptr inbounds %"core::iter::Zip<core::slice::IterMut<u64>, core::slice::ChunksExact<u8>>", %"core::iter::Zip<core::slice::IterMut<u64>, core::slice::ChunksExact<u8>>"* %self, i32 0, i32 3, !dbg !285
  %_4 = load i64, i64* %2, align 8, !dbg !285
  %_2 = icmp ult i64 %_3, %_4, !dbg !284
  br i1 %_2, label %bb1, label %bb4, !dbg !284

bb4:                                              ; preds = %start
  br i1 false, label %bb6, label %bb5, !dbg !286

bb1:                                              ; preds = %start
  %3 = getelementptr inbounds %"core::iter::Zip<core::slice::IterMut<u64>, core::slice::ChunksExact<u8>>", %"core::iter::Zip<core::slice::IterMut<u64>, core::slice::ChunksExact<u8>>"* %self, i32 0, i32 2, !dbg !287
  %i = load i64, i64* %3, align 8, !dbg !287
  store i64 %i, i64* %i.dbg.spill, align 8, !dbg !287
  call void @llvm.dbg.declare(metadata i64* %i.dbg.spill, metadata !279, metadata !DIExpression()), !dbg !288
  %4 = getelementptr inbounds %"core::iter::Zip<core::slice::IterMut<u64>, core::slice::ChunksExact<u8>>", %"core::iter::Zip<core::slice::IterMut<u64>, core::slice::ChunksExact<u8>>"* %self, i32 0, i32 2, !dbg !289
  %5 = getelementptr inbounds %"core::iter::Zip<core::slice::IterMut<u64>, core::slice::ChunksExact<u8>>", %"core::iter::Zip<core::slice::IterMut<u64>, core::slice::ChunksExact<u8>>"* %self, i32 0, i32 2, !dbg !289
  %6 = load i64, i64* %5, align 8, !dbg !289
  %7 = add i64 %6, 1, !dbg !289
  store i64 %7, i64* %4, align 8, !dbg !289
  %_8 = bitcast %"core::iter::Zip<core::slice::IterMut<u64>, core::slice::ChunksExact<u8>>"* %self to { i64*, i64* }*, !dbg !290
; call <core::slice::iter::IterMut<T> as core::iter::traits::iterator::Iterator>::__iterator_get_unchecked
  %_7 = call align 8 dereferenceable(8) i64* @"_ZN94_$LT$core..slice..iter..IterMut$LT$T$GT$$u20$as$u20$core..iter..traits..iterator..Iterator$GT$24__iterator_get_unchecked17h5e8c1527e7954ce8E"({ i64*, i64* }* align 8 dereferenceable(16) %_8, i64 %i), !dbg !290
  br label %bb2, !dbg !290

bb2:                                              ; preds = %bb1
  %_11 = getelementptr inbounds %"core::iter::Zip<core::slice::IterMut<u64>, core::slice::ChunksExact<u8>>", %"core::iter::Zip<core::slice::IterMut<u64>, core::slice::ChunksExact<u8>>"* %self, i32 0, i32 1, !dbg !291
; call <core::slice::iter::ChunksExact<T> as core::iter::traits::iterator::Iterator>::__iterator_get_unchecked
  %8 = call { [0 x i8]*, i64 } @"_ZN98_$LT$core..slice..iter..ChunksExact$LT$T$GT$$u20$as$u20$core..iter..traits..iterator..Iterator$GT$24__iterator_get_unchecked17hbcc6a714238eadf1E"(%"core::slice::ChunksExact<u8>"* align 8 dereferenceable(40) %_11, i64 %i), !dbg !291
  %_10.0 = extractvalue { [0 x i8]*, i64 } %8, 0, !dbg !291
  %_10.1 = extractvalue { [0 x i8]*, i64 } %8, 1, !dbg !291
  br label %bb3, !dbg !291

bb3:                                              ; preds = %bb2
  %9 = bitcast { i64*, { [0 x i8]*, i64 } }* %_6 to i64**, !dbg !292
  store i64* %_7, i64** %9, align 8, !dbg !292
  %10 = getelementptr inbounds { i64*, { [0 x i8]*, i64 } }, { i64*, { [0 x i8]*, i64 } }* %_6, i32 0, i32 1, !dbg !292
  %11 = getelementptr inbounds { [0 x i8]*, i64 }, { [0 x i8]*, i64 }* %10, i32 0, i32 0, !dbg !292
  store [0 x i8]* %_10.0, [0 x i8]** %11, align 8, !dbg !292
  %12 = getelementptr inbounds { [0 x i8]*, i64 }, { [0 x i8]*, i64 }* %10, i32 0, i32 1, !dbg !292
  store i64 %_10.1, i64* %12, align 8, !dbg !292
  %13 = bitcast %"core::option::Option<(&mut u64, &[u8])>"* %0 to %"core::option::Option<(&mut u64, &[u8])>::Some"*, !dbg !293
  %14 = bitcast %"core::option::Option<(&mut u64, &[u8])>::Some"* %13 to { i64*, { [0 x i8]*, i64 } }*, !dbg !293
  %15 = bitcast { i64*, { [0 x i8]*, i64 } }* %14 to i8*, !dbg !293
  %16 = bitcast { i64*, { [0 x i8]*, i64 } }* %_6 to i8*, !dbg !293
  call void @llvm.memcpy.p0i8.p0i8.i64(i8* align 8 %15, i8* align 8 %16, i64 24, i1 false), !dbg !293
  br label %bb13, !dbg !294

bb13:                                             ; preds = %bb12, %bb3
  ret void, !dbg !295

bb5:                                              ; preds = %bb4
  store i8 0, i8* %_13, align 1, !dbg !286
  br label %bb7, !dbg !286

bb6:                                              ; preds = %bb4
  %17 = getelementptr inbounds %"core::iter::Zip<core::slice::IterMut<u64>, core::slice::ChunksExact<u8>>", %"core::iter::Zip<core::slice::IterMut<u64>, core::slice::ChunksExact<u8>>"* %self, i32 0, i32 2, !dbg !296
  %_15 = load i64, i64* %17, align 8, !dbg !296
  %18 = getelementptr inbounds %"core::iter::Zip<core::slice::IterMut<u64>, core::slice::ChunksExact<u8>>", %"core::iter::Zip<core::slice::IterMut<u64>, core::slice::ChunksExact<u8>>"* %self, i32 0, i32 4, !dbg !297
  %_16 = load i64, i64* %18, align 8, !dbg !297
  %_14 = icmp ult i64 %_15, %_16, !dbg !296
  %19 = zext i1 %_14 to i8, !dbg !286
  store i8 %19, i8* %_13, align 1, !dbg !286
  br label %bb7, !dbg !286

bb7:                                              ; preds = %bb5, %bb6
  %20 = load i8, i8* %_13, align 1, !dbg !286, !range !266
  %21 = trunc i8 %20 to i1, !dbg !286
  br i1 %21, label %bb8, label %bb11, !dbg !286

bb11:                                             ; preds = %bb7
  %22 = bitcast %"core::option::Option<(&mut u64, &[u8])>"* %0 to {}**, !dbg !298
  store {}* null, {}** %22, align 8, !dbg !298
  br label %bb12, !dbg !299

bb8:                                              ; preds = %bb7
  %23 = getelementptr inbounds %"core::iter::Zip<core::slice::IterMut<u64>, core::slice::ChunksExact<u8>>", %"core::iter::Zip<core::slice::IterMut<u64>, core::slice::ChunksExact<u8>>"* %self, i32 0, i32 2, !dbg !300
  %i1 = load i64, i64* %23, align 8, !dbg !300
  store i64 %i1, i64* %i.dbg.spill2, align 8, !dbg !300
  call void @llvm.dbg.declare(metadata i64* %i.dbg.spill2, metadata !281, metadata !DIExpression()), !dbg !301
  %24 = getelementptr inbounds %"core::iter::Zip<core::slice::IterMut<u64>, core::slice::ChunksExact<u8>>", %"core::iter::Zip<core::slice::IterMut<u64>, core::slice::ChunksExact<u8>>"* %self, i32 0, i32 2, !dbg !302
  %25 = getelementptr inbounds %"core::iter::Zip<core::slice::IterMut<u64>, core::slice::ChunksExact<u8>>", %"core::iter::Zip<core::slice::IterMut<u64>, core::slice::ChunksExact<u8>>"* %self, i32 0, i32 2, !dbg !302
  %26 = load i64, i64* %25, align 8, !dbg !302
  %27 = add i64 %26, 1, !dbg !302
  store i64 %27, i64* %24, align 8, !dbg !302
  %28 = getelementptr inbounds %"core::iter::Zip<core::slice::IterMut<u64>, core::slice::ChunksExact<u8>>", %"core::iter::Zip<core::slice::IterMut<u64>, core::slice::ChunksExact<u8>>"* %self, i32 0, i32 3, !dbg !303
  %29 = getelementptr inbounds %"core::iter::Zip<core::slice::IterMut<u64>, core::slice::ChunksExact<u8>>", %"core::iter::Zip<core::slice::IterMut<u64>, core::slice::ChunksExact<u8>>"* %self, i32 0, i32 3, !dbg !303
  %30 = load i64, i64* %29, align 8, !dbg !303
  %31 = add i64 %30, 1, !dbg !303
  store i64 %31, i64* %28, align 8, !dbg !303
  %_19 = bitcast %"core::iter::Zip<core::slice::IterMut<u64>, core::slice::ChunksExact<u8>>"* %self to { i64*, i64* }*, !dbg !304
; call <core::slice::iter::IterMut<T> as core::iter::traits::iterator::Iterator>::__iterator_get_unchecked
  %_18 = call align 8 dereferenceable(8) i64* @"_ZN94_$LT$core..slice..iter..IterMut$LT$T$GT$$u20$as$u20$core..iter..traits..iterator..Iterator$GT$24__iterator_get_unchecked17h5e8c1527e7954ce8E"({ i64*, i64* }* align 8 dereferenceable(16) %_19, i64 %i1), !dbg !304
  br label %bb9, !dbg !304

bb9:                                              ; preds = %bb8
  br label %bb10, !dbg !305

bb10:                                             ; preds = %bb9
  %32 = bitcast %"core::option::Option<(&mut u64, &[u8])>"* %0 to {}**, !dbg !306
  store {}* null, {}** %32, align 8, !dbg !306
  br label %bb12, !dbg !299

bb12:                                             ; preds = %bb11, %bb10
  br label %bb13, !dbg !294
}

; <&T as core::fmt::Debug>::fmt
; Function Attrs: nounwind
define zeroext i1 @"_ZN42_$LT$$RF$T$u20$as$u20$core..fmt..Debug$GT$3fmt17h10eda71dbeef772fE"(i64** align 8 dereferenceable(8) %self, %"core::fmt::Formatter"* align 8 dereferenceable(64) %f) unnamed_addr #1 !dbg !307 {
start:
  %f.dbg.spill = alloca %"core::fmt::Formatter"*, align 8
  %self.dbg.spill = alloca i64**, align 8
  store i64** %self, i64*** %self.dbg.spill, align 8
  call void @llvm.dbg.declare(metadata i64*** %self.dbg.spill, metadata !345, metadata !DIExpression()), !dbg !347
  store %"core::fmt::Formatter"* %f, %"core::fmt::Formatter"** %f.dbg.spill, align 8
  call void @llvm.dbg.declare(metadata %"core::fmt::Formatter"** %f.dbg.spill, metadata !346, metadata !DIExpression()), !dbg !348
  %_4 = load i64*, i64** %self, align 8, !dbg !349, !nonnull !4
; call core::fmt::num::<impl core::fmt::Debug for usize>::fmt
  %0 = call zeroext i1 @"_ZN4core3fmt3num52_$LT$impl$u20$core..fmt..Debug$u20$for$u20$usize$GT$3fmt17h76256c2c8afac377E"(i64* align 8 dereferenceable(8) %_4, %"core::fmt::Formatter"* align 8 dereferenceable(64) %f), !dbg !350
  br label %bb1, !dbg !350

bb1:                                              ; preds = %start
  ret i1 %0, !dbg !351
}

; core::cmp::Ord::min
; Function Attrs: inlinehint nounwind
define i64 @_ZN4core3cmp3Ord3min17hb2ed35d0cccf5eb6E(i64 %self, i64 %other) unnamed_addr #0 !dbg !352 {
start:
  %other.dbg.spill = alloca i64, align 8
  %self.dbg.spill = alloca i64, align 8
  store i64 %self, i64* %self.dbg.spill, align 8
  call void @llvm.dbg.declare(metadata i64* %self.dbg.spill, metadata !358, metadata !DIExpression()), !dbg !362
  store i64 %other, i64* %other.dbg.spill, align 8
  call void @llvm.dbg.declare(metadata i64* %other.dbg.spill, metadata !359, metadata !DIExpression()), !dbg !363
; call core::cmp::min_by
  %0 = call i64 @_ZN4core3cmp6min_by17hb4850650a98657e1E(i64 %self, i64 %other), !dbg !364
  br label %bb1, !dbg !364

bb1:                                              ; preds = %start
  ret i64 %0, !dbg !365
}

; core::cmp::min
; Function Attrs: inlinehint nounwind
define i64 @_ZN4core3cmp3min17h7abbe8c7e1d4e6efE(i64 %v1, i64 %v2) unnamed_addr #0 !dbg !366 {
start:
  %v2.dbg.spill = alloca i64, align 8
  %v1.dbg.spill = alloca i64, align 8
  store i64 %v1, i64* %v1.dbg.spill, align 8
  call void @llvm.dbg.declare(metadata i64* %v1.dbg.spill, metadata !368, metadata !DIExpression()), !dbg !370
  store i64 %v2, i64* %v2.dbg.spill, align 8
  call void @llvm.dbg.declare(metadata i64* %v2.dbg.spill, metadata !369, metadata !DIExpression()), !dbg !371
; call core::cmp::Ord::min
  %0 = call i64 @_ZN4core3cmp3Ord3min17hb2ed35d0cccf5eb6E(i64 %v1, i64 %v2), !dbg !372
  br label %bb1, !dbg !372

bb1:                                              ; preds = %start
  ret i64 %0, !dbg !373
}

; core::cmp::impls::<impl core::cmp::Ord for usize>::cmp
; Function Attrs: inlinehint nounwind
define internal i8 @"_ZN4core3cmp5impls50_$LT$impl$u20$core..cmp..Ord$u20$for$u20$usize$GT$3cmp17h6e1d101413091775E"(i64* align 8 dereferenceable(8) %self, i64* align 8 dereferenceable(8) %other) unnamed_addr #0 !dbg !374 {
start:
  %other.dbg.spill = alloca i64*, align 8
  %self.dbg.spill = alloca i64*, align 8
  %0 = alloca i8, align 1
  store i64* %self, i64** %self.dbg.spill, align 8
  call void @llvm.dbg.declare(metadata i64** %self.dbg.spill, metadata !380, metadata !DIExpression()), !dbg !382
  store i64* %other, i64** %other.dbg.spill, align 8
  call void @llvm.dbg.declare(metadata i64** %other.dbg.spill, metadata !381, metadata !DIExpression()), !dbg !383
  %_4 = load i64, i64* %self, align 8, !dbg !384
  %_5 = load i64, i64* %other, align 8, !dbg !385
  %_3 = icmp ult i64 %_4, %_5, !dbg !384
  br i1 %_3, label %bb1, label %bb2, !dbg !384

bb2:                                              ; preds = %start
  %_7 = load i64, i64* %self, align 8, !dbg !386
  %_8 = load i64, i64* %other, align 8, !dbg !387
  %_6 = icmp eq i64 %_7, %_8, !dbg !386
  br i1 %_6, label %bb3, label %bb4, !dbg !386

bb1:                                              ; preds = %start
  store i8 -1, i8* %0, align 1, !dbg !388
  br label %bb6, !dbg !389

bb6:                                              ; preds = %bb5, %bb1
  %1 = load i8, i8* %0, align 1, !dbg !390, !range !391
  ret i8 %1, !dbg !390

bb4:                                              ; preds = %bb2
  store i8 1, i8* %0, align 1, !dbg !392
  br label %bb5, !dbg !393

bb3:                                              ; preds = %bb2
  store i8 0, i8* %0, align 1, !dbg !394
  br label %bb5, !dbg !393

bb5:                                              ; preds = %bb4, %bb3
  br label %bb6, !dbg !389
}

; core::cmp::min_by
; Function Attrs: inlinehint nounwind
define i64 @_ZN4core3cmp6min_by17hb4850650a98657e1E(i64 %0, i64 %1) unnamed_addr #0 !dbg !395 {
start:
  %compare.dbg.spill = alloca {}, align 1
  %_13 = alloca i8, align 1
  %_12 = alloca i8, align 1
  %_6 = alloca { i64*, i64* }, align 8
  %_4 = alloca i8, align 1
  %2 = alloca i64, align 8
  %v2 = alloca i64, align 8
  %v1 = alloca i64, align 8
  store i64 %0, i64* %v1, align 8
  store i64 %1, i64* %v2, align 8
  call void @llvm.dbg.declare(metadata i64* %v1, metadata !400, metadata !DIExpression()), !dbg !405
  call void @llvm.dbg.declare(metadata i64* %v2, metadata !401, metadata !DIExpression()), !dbg !406
  call void @llvm.dbg.declare(metadata {}* %compare.dbg.spill, metadata !402, metadata !DIExpression()), !dbg !407
  store i8 0, i8* %_13, align 1, !dbg !408
  store i8 0, i8* %_12, align 1, !dbg !408
  store i8 1, i8* %_13, align 1, !dbg !408
  store i8 1, i8* %_12, align 1, !dbg !408
  %3 = bitcast { i64*, i64* }* %_6 to i64**, !dbg !408
  store i64* %v1, i64** %3, align 8, !dbg !408
  %4 = getelementptr inbounds { i64*, i64* }, { i64*, i64* }* %_6, i32 0, i32 1, !dbg !408
  store i64* %v2, i64** %4, align 8, !dbg !408
  %5 = getelementptr inbounds { i64*, i64* }, { i64*, i64* }* %_6, i32 0, i32 0, !dbg !408
  %6 = load i64*, i64** %5, align 8, !dbg !408, !nonnull !4
  %7 = getelementptr inbounds { i64*, i64* }, { i64*, i64* }* %_6, i32 0, i32 1, !dbg !408
  %8 = load i64*, i64** %7, align 8, !dbg !408, !nonnull !4
; call core::ops::function::FnOnce::call_once
  %9 = call i8 @_ZN4core3ops8function6FnOnce9call_once17h1c0c47e831ce30feE(i64* align 8 dereferenceable(8) %6, i64* align 8 dereferenceable(8) %8), !dbg !408, !range !391
  store i8 %9, i8* %_4, align 1, !dbg !408
  br label %bb1, !dbg !408

bb1:                                              ; preds = %start
  %10 = load i8, i8* %_4, align 1, !dbg !408, !range !391
  %_11 = sext i8 %10 to i64, !dbg !408
  switch i64 %_11, label %bb3 [
    i64 -1, label %bb4
    i64 0, label %bb4
    i64 1, label %bb2
  ], !dbg !409

bb3:                                              ; preds = %bb1
  unreachable, !dbg !408

bb4:                                              ; preds = %bb1, %bb1
  store i8 0, i8* %_13, align 1, !dbg !410
  %11 = load i64, i64* %v1, align 8, !dbg !410
  store i64 %11, i64* %2, align 8, !dbg !410
  br label %bb5, !dbg !410

bb2:                                              ; preds = %bb1
  store i8 0, i8* %_12, align 1, !dbg !411
  %12 = load i64, i64* %v2, align 8, !dbg !411
  store i64 %12, i64* %2, align 8, !dbg !411
  br label %bb5, !dbg !411

bb5:                                              ; preds = %bb4, %bb2
  %13 = load i8, i8* %_12, align 1, !dbg !412, !range !266
  %14 = trunc i8 %13 to i1, !dbg !412
  br i1 %14, label %bb8, label %bb6, !dbg !412

bb6:                                              ; preds = %bb8, %bb5
  %15 = load i8, i8* %_13, align 1, !dbg !412, !range !266
  %16 = trunc i8 %15 to i1, !dbg !412
  br i1 %16, label %bb9, label %bb7, !dbg !412

bb8:                                              ; preds = %bb5
  br label %bb6, !dbg !412

bb7:                                              ; preds = %bb9, %bb6
  %17 = load i64, i64* %2, align 8, !dbg !413
  ret i64 %17, !dbg !413

bb9:                                              ; preds = %bb6
  br label %bb7, !dbg !412
}

; core::fmt::num::<impl core::fmt::Debug for usize>::fmt
; Function Attrs: inlinehint nounwind
define internal zeroext i1 @"_ZN4core3fmt3num52_$LT$impl$u20$core..fmt..Debug$u20$for$u20$usize$GT$3fmt17h76256c2c8afac377E"(i64* align 8 dereferenceable(8) %self, %"core::fmt::Formatter"* align 8 dereferenceable(64) %f) unnamed_addr #0 !dbg !414 {
start:
  %f.dbg.spill = alloca %"core::fmt::Formatter"*, align 8
  %self.dbg.spill = alloca i64*, align 8
  %0 = alloca i8, align 1
  store i64* %self, i64** %self.dbg.spill, align 8
  call void @llvm.dbg.declare(metadata i64** %self.dbg.spill, metadata !421, metadata !DIExpression()), !dbg !423
  store %"core::fmt::Formatter"* %f, %"core::fmt::Formatter"** %f.dbg.spill, align 8
  call void @llvm.dbg.declare(metadata %"core::fmt::Formatter"** %f.dbg.spill, metadata !422, metadata !DIExpression()), !dbg !424
; call core::fmt::Formatter::debug_lower_hex
  %_3 = call zeroext i1 @_ZN4core3fmt9Formatter15debug_lower_hex17h636482c5eb85995eE(%"core::fmt::Formatter"* align 8 dereferenceable(64) %f), !dbg !425
  br label %bb1, !dbg !425

bb1:                                              ; preds = %start
  br i1 %_3, label %bb2, label %bb4, !dbg !425

bb4:                                              ; preds = %bb1
; call core::fmt::Formatter::debug_upper_hex
  %_7 = call zeroext i1 @_ZN4core3fmt9Formatter15debug_upper_hex17habda22bb62de5f0bE(%"core::fmt::Formatter"* align 8 dereferenceable(64) %f), !dbg !426
  br label %bb5, !dbg !426

bb2:                                              ; preds = %bb1
; call core::fmt::num::<impl core::fmt::LowerHex for usize>::fmt
  %1 = call zeroext i1 @"_ZN4core3fmt3num55_$LT$impl$u20$core..fmt..LowerHex$u20$for$u20$usize$GT$3fmt17h1a12a50969152654E"(i64* align 8 dereferenceable(8) %self, %"core::fmt::Formatter"* align 8 dereferenceable(64) %f), !dbg !427
  %2 = zext i1 %1 to i8, !dbg !427
  store i8 %2, i8* %0, align 1, !dbg !427
  br label %bb3, !dbg !427

bb3:                                              ; preds = %bb2
  br label %bb11, !dbg !428

bb11:                                             ; preds = %bb10, %bb3
  %3 = load i8, i8* %0, align 1, !dbg !429, !range !266
  %4 = trunc i8 %3 to i1, !dbg !429
  ret i1 %4, !dbg !429

bb5:                                              ; preds = %bb4
  br i1 %_7, label %bb6, label %bb8, !dbg !426

bb8:                                              ; preds = %bb5
; call core::fmt::num::imp::<impl core::fmt::Display for usize>::fmt
  %5 = call zeroext i1 @"_ZN4core3fmt3num3imp54_$LT$impl$u20$core..fmt..Display$u20$for$u20$usize$GT$3fmt17hcb6674a6899bd26aE"(i64* align 8 dereferenceable(8) %self, %"core::fmt::Formatter"* align 8 dereferenceable(64) %f), !dbg !430
  %6 = zext i1 %5 to i8, !dbg !430
  store i8 %6, i8* %0, align 1, !dbg !430
  br label %bb9, !dbg !430

bb6:                                              ; preds = %bb5
; call core::fmt::num::<impl core::fmt::UpperHex for usize>::fmt
  %7 = call zeroext i1 @"_ZN4core3fmt3num55_$LT$impl$u20$core..fmt..UpperHex$u20$for$u20$usize$GT$3fmt17h571918675fe47debE"(i64* align 8 dereferenceable(8) %self, %"core::fmt::Formatter"* align 8 dereferenceable(64) %f), !dbg !431
  %8 = zext i1 %7 to i8, !dbg !431
  store i8 %8, i8* %0, align 1, !dbg !431
  br label %bb7, !dbg !431

bb7:                                              ; preds = %bb6
  br label %bb10, !dbg !432

bb10:                                             ; preds = %bb9, %bb7
  br label %bb11, !dbg !428

bb9:                                              ; preds = %bb8
  br label %bb10, !dbg !432
}

; core::num::<impl u32>::from_be_bytes
; Function Attrs: inlinehint nounwind
define internal i32 @"_ZN4core3num21_$LT$impl$u20$u32$GT$13from_be_bytes17h98490d17ea2407e3E"(i32 %0) unnamed_addr #0 !dbg !433 {
start:
  %1 = alloca i32, align 4
  %self.dbg.spill.i.i = alloca i32, align 4
  %x.dbg.spill.i = alloca i32, align 4
  %_3 = alloca [4 x i8], align 1
  %2 = alloca i32, align 4
  %bytes = alloca [4 x i8], align 1
  store i32 %0, i32* %2, align 4
  %3 = bitcast [4 x i8]* %bytes to i8*
  %4 = bitcast i32* %2 to i8*
  call void @llvm.memcpy.p0i8.p0i8.i64(i8* align 1 %3, i8* align 4 %4, i64 4, i1 false)
  call void @llvm.dbg.declare(metadata [4 x i8]* %bytes, metadata !443, metadata !DIExpression()), !dbg !444
  %5 = bitcast [4 x i8]* %_3 to i8*, !dbg !445
  %6 = bitcast [4 x i8]* %bytes to i8*, !dbg !445
  call void @llvm.memcpy.p0i8.p0i8.i64(i8* align 1 %5, i8* align 1 %6, i64 4, i1 false), !dbg !445
  %7 = bitcast [4 x i8]* %_3 to i32*, !dbg !446
  %8 = load i32, i32* %7, align 1, !dbg !446
; call core::num::<impl u32>::from_ne_bytes
  %_2 = call i32 @"_ZN4core3num21_$LT$impl$u20$u32$GT$13from_ne_bytes17h7d4197c8af415061E"(i32 %8), !dbg !446
  br label %bb1, !dbg !446

bb1:                                              ; preds = %start
  store i32 %_2, i32* %x.dbg.spill.i, align 4
  call void @llvm.dbg.declare(metadata i32* %x.dbg.spill.i, metadata !447, metadata !DIExpression()) #10, !dbg !452
  store i32 %_2, i32* %self.dbg.spill.i.i, align 4
  call void @llvm.dbg.declare(metadata i32* %self.dbg.spill.i.i, metadata !454, metadata !DIExpression()) #10, !dbg !457
  %9 = call i32 @llvm.bswap.i32(i32 %_2) #10, !dbg !459
  store i32 %9, i32* %1, align 4, !dbg !459
  %10 = load i32, i32* %1, align 4, !dbg !459
  br label %bb2, !dbg !460

bb2:                                              ; preds = %bb1
  ret i32 %10, !dbg !461
}

; core::num::<impl u32>::from_ne_bytes
; Function Attrs: inlinehint nounwind
define internal i32 @"_ZN4core3num21_$LT$impl$u20$u32$GT$13from_ne_bytes17h7d4197c8af415061E"(i32 %0) unnamed_addr #0 !dbg !462 {
start:
  %1 = alloca i32, align 4
  %_2 = alloca [4 x i8], align 1
  %2 = alloca i32, align 4
  %bytes = alloca [4 x i8], align 1
  store i32 %0, i32* %2, align 4
  %3 = bitcast [4 x i8]* %bytes to i8*
  %4 = bitcast i32* %2 to i8*
  call void @llvm.memcpy.p0i8.p0i8.i64(i8* align 1 %3, i8* align 4 %4, i64 4, i1 false)
  call void @llvm.dbg.declare(metadata [4 x i8]* %bytes, metadata !464, metadata !DIExpression()), !dbg !465
  %5 = bitcast [4 x i8]* %_2 to i8*, !dbg !466
  %6 = bitcast [4 x i8]* %bytes to i8*, !dbg !466
  call void @llvm.memcpy.p0i8.p0i8.i64(i8* align 1 %5, i8* align 1 %6, i64 4, i1 false), !dbg !466
  %7 = bitcast i32* %1 to [4 x i8]*, !dbg !467
  %8 = bitcast [4 x i8]* %7 to i8*, !dbg !467
  %9 = bitcast [4 x i8]* %_2 to i8*, !dbg !467
  call void @llvm.memcpy.p0i8.p0i8.i64(i8* align 1 %8, i8* align 1 %9, i64 4, i1 false), !dbg !467
  %10 = load i32, i32* %1, align 4, !dbg !467
  br label %bb1, !dbg !467

bb1:                                              ; preds = %start
  ret i32 %10, !dbg !468
}

; core::num::<impl u64>::from_be_bytes
; Function Attrs: inlinehint nounwind
define internal i64 @"_ZN4core3num21_$LT$impl$u20$u64$GT$13from_be_bytes17h9515390abe599f06E"(i64 %0) unnamed_addr #0 !dbg !469 {
start:
  %1 = alloca i64, align 8
  %self.dbg.spill.i.i = alloca i64, align 8
  %x.dbg.spill.i = alloca i64, align 8
  %_3 = alloca [8 x i8], align 1
  %2 = alloca i64, align 8
  %bytes = alloca [8 x i8], align 1
  store i64 %0, i64* %2, align 8
  %3 = bitcast [8 x i8]* %bytes to i8*
  %4 = bitcast i64* %2 to i8*
  call void @llvm.memcpy.p0i8.p0i8.i64(i8* align 1 %3, i8* align 8 %4, i64 8, i1 false)
  call void @llvm.dbg.declare(metadata [8 x i8]* %bytes, metadata !477, metadata !DIExpression()), !dbg !478
  %5 = bitcast [8 x i8]* %_3 to i8*, !dbg !479
  %6 = bitcast [8 x i8]* %bytes to i8*, !dbg !479
  call void @llvm.memcpy.p0i8.p0i8.i64(i8* align 1 %5, i8* align 1 %6, i64 8, i1 false), !dbg !479
  %7 = bitcast [8 x i8]* %_3 to i64*, !dbg !480
  %8 = load i64, i64* %7, align 1, !dbg !480
; call core::num::<impl u64>::from_ne_bytes
  %_2 = call i64 @"_ZN4core3num21_$LT$impl$u20$u64$GT$13from_ne_bytes17h7a20e1885d0d94fdE"(i64 %8), !dbg !480
  br label %bb1, !dbg !480

bb1:                                              ; preds = %start
  store i64 %_2, i64* %x.dbg.spill.i, align 8
  call void @llvm.dbg.declare(metadata i64* %x.dbg.spill.i, metadata !481, metadata !DIExpression()) #10, !dbg !486
  store i64 %_2, i64* %self.dbg.spill.i.i, align 8
  call void @llvm.dbg.declare(metadata i64* %self.dbg.spill.i.i, metadata !488, metadata !DIExpression()) #10, !dbg !491
  %9 = call i64 @llvm.bswap.i64(i64 %_2) #10, !dbg !493
  store i64 %9, i64* %1, align 8, !dbg !493
  %10 = load i64, i64* %1, align 8, !dbg !493
  br label %bb2, !dbg !494

bb2:                                              ; preds = %bb1
  ret i64 %10, !dbg !495
}

; core::num::<impl u64>::from_ne_bytes
; Function Attrs: inlinehint nounwind
define internal i64 @"_ZN4core3num21_$LT$impl$u20$u64$GT$13from_ne_bytes17h7a20e1885d0d94fdE"(i64 %0) unnamed_addr #0 !dbg !496 {
start:
  %1 = alloca i64, align 8
  %_2 = alloca [8 x i8], align 1
  %2 = alloca i64, align 8
  %bytes = alloca [8 x i8], align 1
  store i64 %0, i64* %2, align 8
  %3 = bitcast [8 x i8]* %bytes to i8*
  %4 = bitcast i64* %2 to i8*
  call void @llvm.memcpy.p0i8.p0i8.i64(i8* align 1 %3, i8* align 8 %4, i64 8, i1 false)
  call void @llvm.dbg.declare(metadata [8 x i8]* %bytes, metadata !498, metadata !DIExpression()), !dbg !499
  %5 = bitcast [8 x i8]* %_2 to i8*, !dbg !500
  %6 = bitcast [8 x i8]* %bytes to i8*, !dbg !500
  call void @llvm.memcpy.p0i8.p0i8.i64(i8* align 1 %5, i8* align 1 %6, i64 8, i1 false), !dbg !500
  %7 = bitcast i64* %1 to [8 x i8]*, !dbg !501
  %8 = bitcast [8 x i8]* %7 to i8*, !dbg !501
  %9 = bitcast [8 x i8]* %_2 to i8*, !dbg !501
  call void @llvm.memcpy.p0i8.p0i8.i64(i8* align 1 %8, i8* align 1 %9, i64 8, i1 false), !dbg !501
  %10 = load i64, i64* %1, align 8, !dbg !501
  br label %bb1, !dbg !501

bb1:                                              ; preds = %start
  ret i64 %10, !dbg !502
}

; core::ops::function::FnOnce::call_once
; Function Attrs: inlinehint nounwind
define internal i8 @_ZN4core3ops8function6FnOnce9call_once17h1c0c47e831ce30feE(i64* align 8 dereferenceable(8) %0, i64* align 8 dereferenceable(8) %1) unnamed_addr #0 !dbg !503 {
start:
  %_1.dbg.spill = alloca {}, align 1
  %_2 = alloca { i64*, i64* }, align 8
  %2 = bitcast { i64*, i64* }* %_2 to i64**
  store i64* %0, i64** %2, align 8
  %3 = getelementptr inbounds { i64*, i64* }, { i64*, i64* }* %_2, i32 0, i32 1
  store i64* %1, i64** %3, align 8
  call void @llvm.dbg.declare(metadata {}* %_1.dbg.spill, metadata !510, metadata !DIExpression()), !dbg !519
  call void @llvm.dbg.declare(metadata { i64*, i64* }* %_2, metadata !511, metadata !DIExpression()), !dbg !519
  %4 = bitcast { i64*, i64* }* %_2 to i64**, !dbg !519
  %5 = load i64*, i64** %4, align 8, !dbg !519, !nonnull !4
  %6 = getelementptr inbounds { i64*, i64* }, { i64*, i64* }* %_2, i32 0, i32 1, !dbg !519
  %7 = load i64*, i64** %6, align 8, !dbg !519, !nonnull !4
; call core::cmp::impls::<impl core::cmp::Ord for usize>::cmp
  %8 = call i8 @"_ZN4core3cmp5impls50_$LT$impl$u20$core..cmp..Ord$u20$for$u20$usize$GT$3cmp17h6e1d101413091775E"(i64* align 8 dereferenceable(8) %5, i64* align 8 dereferenceable(8) %7), !dbg !519, !range !391
  br label %bb1, !dbg !519

bb1:                                              ; preds = %start
  ret i8 %8, !dbg !519
}

; core::ptr::slice_from_raw_parts
; Function Attrs: inlinehint nounwind
define { [0 x [128 x i8]]*, i64 } @_ZN4core3ptr20slice_from_raw_parts17h477414a20e6c5c3dE([128 x i8]* %data, i64 %len) unnamed_addr #0 !dbg !520 {
start:
  %len.dbg.spill = alloca i64, align 8
  %data.dbg.spill = alloca [128 x i8]*, align 8
  store [128 x i8]* %data, [128 x i8]** %data.dbg.spill, align 8
  call void @llvm.dbg.declare(metadata [128 x i8]** %data.dbg.spill, metadata !533, metadata !DIExpression()), !dbg !537
  store i64 %len, i64* %len.dbg.spill, align 8
  call void @llvm.dbg.declare(metadata i64* %len.dbg.spill, metadata !534, metadata !DIExpression()), !dbg !538
; call core::ptr::const_ptr::<impl *const T>::cast
  %_3 = call {}* @"_ZN4core3ptr9const_ptr33_$LT$impl$u20$$BP$const$u20$T$GT$4cast17h6a5fe333acf6bf6aE"([128 x i8]* %data), !dbg !539
  br label %bb1, !dbg !539

bb1:                                              ; preds = %start
; call core::ptr::metadata::from_raw_parts
  %0 = call { [0 x [128 x i8]]*, i64 } @_ZN4core3ptr8metadata14from_raw_parts17h572489af06d54dc7E({}* %_3, i64 %len), !dbg !540
  %1 = extractvalue { [0 x [128 x i8]]*, i64 } %0, 0, !dbg !540
  %2 = extractvalue { [0 x [128 x i8]]*, i64 } %0, 1, !dbg !540
  br label %bb2, !dbg !540

bb2:                                              ; preds = %bb1
  %3 = insertvalue { [0 x [128 x i8]]*, i64 } undef, [0 x [128 x i8]]* %1, 0, !dbg !541
  %4 = insertvalue { [0 x [128 x i8]]*, i64 } %3, i64 %2, 1, !dbg !541
  ret { [0 x [128 x i8]]*, i64 } %4, !dbg !541
}

; core::ptr::slice_from_raw_parts
; Function Attrs: inlinehint nounwind
define { [0 x [64 x i8]]*, i64 } @_ZN4core3ptr20slice_from_raw_parts17hd7585d0bcc5a67efE([64 x i8]* %data, i64 %len) unnamed_addr #0 !dbg !542 {
start:
  %len.dbg.spill = alloca i64, align 8
  %data.dbg.spill = alloca [64 x i8]*, align 8
  store [64 x i8]* %data, [64 x i8]** %data.dbg.spill, align 8
  call void @llvm.dbg.declare(metadata [64 x i8]** %data.dbg.spill, metadata !554, metadata !DIExpression()), !dbg !558
  store i64 %len, i64* %len.dbg.spill, align 8
  call void @llvm.dbg.declare(metadata i64* %len.dbg.spill, metadata !555, metadata !DIExpression()), !dbg !559
; call core::ptr::const_ptr::<impl *const T>::cast
  %_3 = call {}* @"_ZN4core3ptr9const_ptr33_$LT$impl$u20$$BP$const$u20$T$GT$4cast17h05aef697401919b6E"([64 x i8]* %data), !dbg !560
  br label %bb1, !dbg !560

bb1:                                              ; preds = %start
; call core::ptr::metadata::from_raw_parts
  %0 = call { [0 x [64 x i8]]*, i64 } @_ZN4core3ptr8metadata14from_raw_parts17hfb8cc317863bca58E({}* %_3, i64 %len), !dbg !561
  %1 = extractvalue { [0 x [64 x i8]]*, i64 } %0, 0, !dbg !561
  %2 = extractvalue { [0 x [64 x i8]]*, i64 } %0, 1, !dbg !561
  br label %bb2, !dbg !561

bb2:                                              ; preds = %bb1
  %3 = insertvalue { [0 x [64 x i8]]*, i64 } undef, [0 x [64 x i8]]* %1, 0, !dbg !562
  %4 = insertvalue { [0 x [64 x i8]]*, i64 } %3, i64 %2, 1, !dbg !562
  ret { [0 x [64 x i8]]*, i64 } %4, !dbg !562
}

; core::ptr::drop_in_place<&usize>
; Function Attrs: inlinehint nounwind
define internal void @"_ZN4core3ptr30drop_in_place$LT$$RF$usize$GT$17h9bc747dfff3eaeadE"(i64** %_1) unnamed_addr #0 !dbg !563 {
start:
  %_1.dbg.spill = alloca i64**, align 8
  store i64** %_1, i64*** %_1.dbg.spill, align 8
  call void @llvm.dbg.declare(metadata i64*** %_1.dbg.spill, metadata !568, metadata !DIExpression()), !dbg !571
  ret void, !dbg !571
}

; core::ptr::drop_in_place<core::array::TryFromSliceError>
; Function Attrs: inlinehint nounwind
define internal void @"_ZN4core3ptr51drop_in_place$LT$core..array..TryFromSliceError$GT$17he4544d9395bc0fe2E"(%"core::array::TryFromSliceError"* %_1) unnamed_addr #0 !dbg !572 {
start:
  %_1.dbg.spill = alloca %"core::array::TryFromSliceError"*, align 8
  store %"core::array::TryFromSliceError"* %_1, %"core::array::TryFromSliceError"** %_1.dbg.spill, align 8
  call void @llvm.dbg.declare(metadata %"core::array::TryFromSliceError"** %_1.dbg.spill, metadata !577, metadata !DIExpression()), !dbg !580
  ret void, !dbg !580
}

; core::ptr::mut_ptr::<impl *mut T>::is_null
; Function Attrs: inlinehint nounwind
define zeroext i1 @"_ZN4core3ptr7mut_ptr31_$LT$impl$u20$$BP$mut$u20$T$GT$7is_null17h176bbb30a2a11341E"(i64* %self) unnamed_addr #0 !dbg !581 {
start:
  %self.dbg.spill = alloca i64*, align 8
  store i64* %self, i64** %self.dbg.spill, align 8
  call void @llvm.dbg.declare(metadata i64** %self.dbg.spill, metadata !589, metadata !DIExpression()), !dbg !590
  %_2 = bitcast i64* %self to i8*, !dbg !591
  br label %bb1, !dbg !592

bb1:                                              ; preds = %start
; call core::ptr::mut_ptr::<impl *mut T>::guaranteed_eq
  %0 = call zeroext i1 @"_ZN4core3ptr7mut_ptr31_$LT$impl$u20$$BP$mut$u20$T$GT$13guaranteed_eq17h76e99f5e5b776b90E"(i8* %_2, i8* null), !dbg !591
  br label %bb2, !dbg !591

bb2:                                              ; preds = %bb1
  ret i1 %0, !dbg !593
}

; core::ptr::mut_ptr::<impl *mut T>::is_null
; Function Attrs: inlinehint nounwind
define zeroext i1 @"_ZN4core3ptr7mut_ptr31_$LT$impl$u20$$BP$mut$u20$T$GT$7is_null17h3ff1692bce0f75d9E"(i32* %self) unnamed_addr #0 !dbg !594 {
start:
  %self.dbg.spill = alloca i32*, align 8
  store i32* %self, i32** %self.dbg.spill, align 8
  call void @llvm.dbg.declare(metadata i32** %self.dbg.spill, metadata !598, metadata !DIExpression()), !dbg !599
  %_2 = bitcast i32* %self to i8*, !dbg !600
  br label %bb1, !dbg !601

bb1:                                              ; preds = %start
; call core::ptr::mut_ptr::<impl *mut T>::guaranteed_eq
  %0 = call zeroext i1 @"_ZN4core3ptr7mut_ptr31_$LT$impl$u20$$BP$mut$u20$T$GT$13guaranteed_eq17h76e99f5e5b776b90E"(i8* %_2, i8* null), !dbg !600
  br label %bb2, !dbg !600

bb2:                                              ; preds = %bb1
  ret i1 %0, !dbg !602
}

; core::ptr::mut_ptr::<impl *mut T>::is_null
; Function Attrs: inlinehint nounwind
define zeroext i1 @"_ZN4core3ptr7mut_ptr31_$LT$impl$u20$$BP$mut$u20$T$GT$7is_null17hb5642e272f65ce67E"([64 x i8]* %self) unnamed_addr #0 !dbg !603 {
start:
  %self.dbg.spill = alloca [64 x i8]*, align 8
  store [64 x i8]* %self, [64 x i8]** %self.dbg.spill, align 8
  call void @llvm.dbg.declare(metadata [64 x i8]** %self.dbg.spill, metadata !608, metadata !DIExpression()), !dbg !609
  %_2 = bitcast [64 x i8]* %self to i8*, !dbg !610
  br label %bb1, !dbg !611

bb1:                                              ; preds = %start
; call core::ptr::mut_ptr::<impl *mut T>::guaranteed_eq
  %0 = call zeroext i1 @"_ZN4core3ptr7mut_ptr31_$LT$impl$u20$$BP$mut$u20$T$GT$13guaranteed_eq17h76e99f5e5b776b90E"(i8* %_2, i8* null), !dbg !610
  br label %bb2, !dbg !610

bb2:                                              ; preds = %bb1
  ret i1 %0, !dbg !612
}

; core::ptr::mut_ptr::<impl *mut T>::is_null
; Function Attrs: inlinehint nounwind
define zeroext i1 @"_ZN4core3ptr7mut_ptr31_$LT$impl$u20$$BP$mut$u20$T$GT$7is_null17he030bb0b8658b36cE"([128 x i8]* %self) unnamed_addr #0 !dbg !613 {
start:
  %self.dbg.spill = alloca [128 x i8]*, align 8
  store [128 x i8]* %self, [128 x i8]** %self.dbg.spill, align 8
  call void @llvm.dbg.declare(metadata [128 x i8]** %self.dbg.spill, metadata !618, metadata !DIExpression()), !dbg !619
  %_2 = bitcast [128 x i8]* %self to i8*, !dbg !620
  br label %bb1, !dbg !621

bb1:                                              ; preds = %start
; call core::ptr::mut_ptr::<impl *mut T>::guaranteed_eq
  %0 = call zeroext i1 @"_ZN4core3ptr7mut_ptr31_$LT$impl$u20$$BP$mut$u20$T$GT$13guaranteed_eq17h76e99f5e5b776b90E"(i8* %_2, i8* null), !dbg !620
  br label %bb2, !dbg !620

bb2:                                              ; preds = %bb1
  ret i1 %0, !dbg !622
}

; core::ptr::metadata::from_raw_parts
; Function Attrs: inlinehint nounwind
define { [0 x [128 x i8]]*, i64 } @_ZN4core3ptr8metadata14from_raw_parts17h572489af06d54dc7E({}* %data_address, i64 %metadata) unnamed_addr #0 !dbg !623 {
start:
  %metadata.dbg.spill = alloca i64, align 8
  %data_address.dbg.spill = alloca {}*, align 8
  %_4 = alloca { i8*, i64 }, align 8
  %_3 = alloca %"core::ptr::metadata::PtrRepr<[[u8; 128]]>", align 8
  store {}* %data_address, {}** %data_address.dbg.spill, align 8
  call void @llvm.dbg.declare(metadata {}** %data_address.dbg.spill, metadata !630, metadata !DIExpression()), !dbg !637
  store i64 %metadata, i64* %metadata.dbg.spill, align 8
  call void @llvm.dbg.declare(metadata i64* %metadata.dbg.spill, metadata !631, metadata !DIExpression()), !dbg !638
  %0 = bitcast { i8*, i64 }* %_4 to {}**, !dbg !639
  store {}* %data_address, {}** %0, align 8, !dbg !639
  %1 = getelementptr inbounds { i8*, i64 }, { i8*, i64 }* %_4, i32 0, i32 1, !dbg !639
  store i64 %metadata, i64* %1, align 8, !dbg !639
  %2 = bitcast %"core::ptr::metadata::PtrRepr<[[u8; 128]]>"* %_3 to { i8*, i64 }*, !dbg !640
  %3 = getelementptr inbounds { i8*, i64 }, { i8*, i64 }* %_4, i32 0, i32 0, !dbg !640
  %4 = load i8*, i8** %3, align 8, !dbg !640
  %5 = getelementptr inbounds { i8*, i64 }, { i8*, i64 }* %_4, i32 0, i32 1, !dbg !640
  %6 = load i64, i64* %5, align 8, !dbg !640
  %7 = getelementptr inbounds { i8*, i64 }, { i8*, i64 }* %2, i32 0, i32 0, !dbg !640
  store i8* %4, i8** %7, align 8, !dbg !640
  %8 = getelementptr inbounds { i8*, i64 }, { i8*, i64 }* %2, i32 0, i32 1, !dbg !640
  store i64 %6, i64* %8, align 8, !dbg !640
  %9 = bitcast %"core::ptr::metadata::PtrRepr<[[u8; 128]]>"* %_3 to { [0 x [128 x i8]]*, i64 }*, !dbg !640
  %10 = getelementptr inbounds { [0 x [128 x i8]]*, i64 }, { [0 x [128 x i8]]*, i64 }* %9, i32 0, i32 0, !dbg !640
  %11 = load [0 x [128 x i8]]*, [0 x [128 x i8]]** %10, align 8, !dbg !640
  %12 = getelementptr inbounds { [0 x [128 x i8]]*, i64 }, { [0 x [128 x i8]]*, i64 }* %9, i32 0, i32 1, !dbg !640
  %13 = load i64, i64* %12, align 8, !dbg !640
  %14 = insertvalue { [0 x [128 x i8]]*, i64 } undef, [0 x [128 x i8]]* %11, 0, !dbg !641
  %15 = insertvalue { [0 x [128 x i8]]*, i64 } %14, i64 %13, 1, !dbg !641
  ret { [0 x [128 x i8]]*, i64 } %15, !dbg !641
}

; core::ptr::metadata::from_raw_parts
; Function Attrs: inlinehint nounwind
define { [0 x [64 x i8]]*, i64 } @_ZN4core3ptr8metadata14from_raw_parts17hfb8cc317863bca58E({}* %data_address, i64 %metadata) unnamed_addr #0 !dbg !642 {
start:
  %metadata.dbg.spill = alloca i64, align 8
  %data_address.dbg.spill = alloca {}*, align 8
  %_4 = alloca { i8*, i64 }, align 8
  %_3 = alloca %"core::ptr::metadata::PtrRepr<[[u8; 64]]>", align 8
  store {}* %data_address, {}** %data_address.dbg.spill, align 8
  call void @llvm.dbg.declare(metadata {}** %data_address.dbg.spill, metadata !646, metadata !DIExpression()), !dbg !651
  store i64 %metadata, i64* %metadata.dbg.spill, align 8
  call void @llvm.dbg.declare(metadata i64* %metadata.dbg.spill, metadata !647, metadata !DIExpression()), !dbg !652
  %0 = bitcast { i8*, i64 }* %_4 to {}**, !dbg !653
  store {}* %data_address, {}** %0, align 8, !dbg !653
  %1 = getelementptr inbounds { i8*, i64 }, { i8*, i64 }* %_4, i32 0, i32 1, !dbg !653
  store i64 %metadata, i64* %1, align 8, !dbg !653
  %2 = bitcast %"core::ptr::metadata::PtrRepr<[[u8; 64]]>"* %_3 to { i8*, i64 }*, !dbg !654
  %3 = getelementptr inbounds { i8*, i64 }, { i8*, i64 }* %_4, i32 0, i32 0, !dbg !654
  %4 = load i8*, i8** %3, align 8, !dbg !654
  %5 = getelementptr inbounds { i8*, i64 }, { i8*, i64 }* %_4, i32 0, i32 1, !dbg !654
  %6 = load i64, i64* %5, align 8, !dbg !654
  %7 = getelementptr inbounds { i8*, i64 }, { i8*, i64 }* %2, i32 0, i32 0, !dbg !654
  store i8* %4, i8** %7, align 8, !dbg !654
  %8 = getelementptr inbounds { i8*, i64 }, { i8*, i64 }* %2, i32 0, i32 1, !dbg !654
  store i64 %6, i64* %8, align 8, !dbg !654
  %9 = bitcast %"core::ptr::metadata::PtrRepr<[[u8; 64]]>"* %_3 to { [0 x [64 x i8]]*, i64 }*, !dbg !654
  %10 = getelementptr inbounds { [0 x [64 x i8]]*, i64 }, { [0 x [64 x i8]]*, i64 }* %9, i32 0, i32 0, !dbg !654
  %11 = load [0 x [64 x i8]]*, [0 x [64 x i8]]** %10, align 8, !dbg !654
  %12 = getelementptr inbounds { [0 x [64 x i8]]*, i64 }, { [0 x [64 x i8]]*, i64 }* %9, i32 0, i32 1, !dbg !654
  %13 = load i64, i64* %12, align 8, !dbg !654
  %14 = insertvalue { [0 x [64 x i8]]*, i64 } undef, [0 x [64 x i8]]* %11, 0, !dbg !655
  %15 = insertvalue { [0 x [64 x i8]]*, i64 } %14, i64 %13, 1, !dbg !655
  ret { [0 x [64 x i8]]*, i64 } %15, !dbg !655
}

; core::ptr::non_null::NonNull<T>::new_unchecked
; Function Attrs: inlinehint nounwind
define nonnull i8* @"_ZN4core3ptr8non_null16NonNull$LT$T$GT$13new_unchecked17h534ecdb4b66e2b94E"([64 x i8]* %ptr) unnamed_addr #0 !dbg !656 {
start:
  %ptr.dbg.spill = alloca [64 x i8]*, align 8
  %0 = alloca i8*, align 8
  store [64 x i8]* %ptr, [64 x i8]** %ptr.dbg.spill, align 8
  call void @llvm.dbg.declare(metadata [64 x i8]** %ptr.dbg.spill, metadata !664, metadata !DIExpression()), !dbg !665
  %1 = bitcast i8** %0 to [64 x i8]**, !dbg !666
  store [64 x i8]* %ptr, [64 x i8]** %1, align 8, !dbg !666
  %2 = load i8*, i8** %0, align 8, !dbg !667, !nonnull !4
  ret i8* %2, !dbg !667
}

; core::ptr::non_null::NonNull<T>::new_unchecked
; Function Attrs: inlinehint nounwind
define nonnull i32* @"_ZN4core3ptr8non_null16NonNull$LT$T$GT$13new_unchecked17ha6535fe6aa425e90E"(i32* %ptr) unnamed_addr #0 !dbg !668 {
start:
  %ptr.dbg.spill = alloca i32*, align 8
  %0 = alloca i32*, align 8
  store i32* %ptr, i32** %ptr.dbg.spill, align 8
  call void @llvm.dbg.declare(metadata i32** %ptr.dbg.spill, metadata !672, metadata !DIExpression()), !dbg !673
  store i32* %ptr, i32** %0, align 8, !dbg !674
  %1 = load i32*, i32** %0, align 8, !dbg !675, !nonnull !4
  ret i32* %1, !dbg !675
}

; core::ptr::non_null::NonNull<T>::new_unchecked
; Function Attrs: inlinehint nounwind
define nonnull i8* @"_ZN4core3ptr8non_null16NonNull$LT$T$GT$13new_unchecked17hc858cda088052a62E"([128 x i8]* %ptr) unnamed_addr #0 !dbg !676 {
start:
  %ptr.dbg.spill = alloca [128 x i8]*, align 8
  %0 = alloca i8*, align 8
  store [128 x i8]* %ptr, [128 x i8]** %ptr.dbg.spill, align 8
  call void @llvm.dbg.declare(metadata [128 x i8]** %ptr.dbg.spill, metadata !683, metadata !DIExpression()), !dbg !684
  %1 = bitcast i8** %0 to [128 x i8]**, !dbg !685
  store [128 x i8]* %ptr, [128 x i8]** %1, align 8, !dbg !685
  %2 = load i8*, i8** %0, align 8, !dbg !686, !nonnull !4
  ret i8* %2, !dbg !686
}

; core::ptr::non_null::NonNull<T>::new_unchecked
; Function Attrs: inlinehint nounwind
define nonnull i64* @"_ZN4core3ptr8non_null16NonNull$LT$T$GT$13new_unchecked17hef2be1c69ac5455bE"(i64* %ptr) unnamed_addr #0 !dbg !687 {
start:
  %ptr.dbg.spill = alloca i64*, align 8
  %0 = alloca i64*, align 8
  store i64* %ptr, i64** %ptr.dbg.spill, align 8
  call void @llvm.dbg.declare(metadata i64** %ptr.dbg.spill, metadata !691, metadata !DIExpression()), !dbg !692
  store i64* %ptr, i64** %0, align 8, !dbg !693
  %1 = load i64*, i64** %0, align 8, !dbg !694, !nonnull !4
  ret i64* %1, !dbg !694
}

; core::ptr::non_null::NonNull<T>::as_ptr
; Function Attrs: inlinehint nounwind
define i32* @"_ZN4core3ptr8non_null16NonNull$LT$T$GT$6as_ptr17h397d707b1022eb6eE"(i32* nonnull %self) unnamed_addr #0 !dbg !695 {
start:
  %self.dbg.spill = alloca i32*, align 8
  store i32* %self, i32** %self.dbg.spill, align 8
  call void @llvm.dbg.declare(metadata i32** %self.dbg.spill, metadata !699, metadata !DIExpression()), !dbg !700
  ret i32* %self, !dbg !701
}

; core::ptr::non_null::NonNull<T>::as_ptr
; Function Attrs: inlinehint nounwind
define [64 x i8]* @"_ZN4core3ptr8non_null16NonNull$LT$T$GT$6as_ptr17h6047d37486932839E"(i8* nonnull %self) unnamed_addr #0 !dbg !702 {
start:
  %self.dbg.spill = alloca i8*, align 8
  store i8* %self, i8** %self.dbg.spill, align 8
  call void @llvm.dbg.declare(metadata i8** %self.dbg.spill, metadata !706, metadata !DIExpression()), !dbg !707
  %_2 = bitcast i8* %self to [64 x i8]*, !dbg !708
  ret [64 x i8]* %_2, !dbg !709
}

; core::ptr::non_null::NonNull<T>::as_ptr
; Function Attrs: inlinehint nounwind
define i64* @"_ZN4core3ptr8non_null16NonNull$LT$T$GT$6as_ptr17h60c5a30943565cf9E"(i64* nonnull %self) unnamed_addr #0 !dbg !710 {
start:
  %self.dbg.spill = alloca i64*, align 8
  store i64* %self, i64** %self.dbg.spill, align 8
  call void @llvm.dbg.declare(metadata i64** %self.dbg.spill, metadata !714, metadata !DIExpression()), !dbg !715
  ret i64* %self, !dbg !716
}

; core::ptr::non_null::NonNull<T>::as_ptr
; Function Attrs: inlinehint nounwind
define [128 x i8]* @"_ZN4core3ptr8non_null16NonNull$LT$T$GT$6as_ptr17h9b2ad35c1f145ad0E"(i8* nonnull %self) unnamed_addr #0 !dbg !717 {
start:
  %self.dbg.spill = alloca i8*, align 8
  store i8* %self, i8** %self.dbg.spill, align 8
  call void @llvm.dbg.declare(metadata i8** %self.dbg.spill, metadata !721, metadata !DIExpression()), !dbg !722
  %_2 = bitcast i8* %self to [128 x i8]*, !dbg !723
  ret [128 x i8]* %_2, !dbg !724
}

; core::ptr::const_ptr::<impl *const T>::cast
; Function Attrs: inlinehint nounwind
define {}* @"_ZN4core3ptr9const_ptr33_$LT$impl$u20$$BP$const$u20$T$GT$4cast17h05aef697401919b6E"([64 x i8]* %self) unnamed_addr #0 !dbg !725 {
start:
  %self.dbg.spill = alloca [64 x i8]*, align 8
  store [64 x i8]* %self, [64 x i8]** %self.dbg.spill, align 8
  call void @llvm.dbg.declare(metadata [64 x i8]** %self.dbg.spill, metadata !732, metadata !DIExpression()), !dbg !735
  %0 = bitcast [64 x i8]* %self to {}*, !dbg !736
  ret {}* %0, !dbg !737
}

; core::ptr::const_ptr::<impl *const T>::cast
; Function Attrs: inlinehint nounwind
define {}* @"_ZN4core3ptr9const_ptr33_$LT$impl$u20$$BP$const$u20$T$GT$4cast17h6a5fe333acf6bf6aE"([128 x i8]* %self) unnamed_addr #0 !dbg !738 {
start:
  %self.dbg.spill = alloca [128 x i8]*, align 8
  store [128 x i8]* %self, [128 x i8]** %self.dbg.spill, align 8
  call void @llvm.dbg.declare(metadata [128 x i8]** %self.dbg.spill, metadata !742, metadata !DIExpression()), !dbg !744
  %0 = bitcast [128 x i8]* %self to {}*, !dbg !745
  ret {}* %0, !dbg !746
}

; core::ptr::const_ptr::<impl *const T>::is_null
; Function Attrs: inlinehint nounwind
define zeroext i1 @"_ZN4core3ptr9const_ptr33_$LT$impl$u20$$BP$const$u20$T$GT$7is_null17h1f1aa348791df014E"([64 x i8]* %self) unnamed_addr #0 !dbg !747 {
start:
  %self.dbg.spill = alloca [64 x i8]*, align 8
  store [64 x i8]* %self, [64 x i8]** %self.dbg.spill, align 8
  call void @llvm.dbg.declare(metadata [64 x i8]** %self.dbg.spill, metadata !751, metadata !DIExpression()), !dbg !752
  %_2 = bitcast [64 x i8]* %self to i8*, !dbg !753
  br label %bb1, !dbg !754

bb1:                                              ; preds = %start
; call core::ptr::const_ptr::<impl *const T>::guaranteed_eq
  %0 = call zeroext i1 @"_ZN4core3ptr9const_ptr33_$LT$impl$u20$$BP$const$u20$T$GT$13guaranteed_eq17hf5f5d857cadb4a2cE"(i8* %_2, i8* null), !dbg !753
  br label %bb2, !dbg !753

bb2:                                              ; preds = %bb1
  ret i1 %0, !dbg !755
}

; core::ptr::const_ptr::<impl *const T>::is_null
; Function Attrs: inlinehint nounwind
define zeroext i1 @"_ZN4core3ptr9const_ptr33_$LT$impl$u20$$BP$const$u20$T$GT$7is_null17h2c070e7d49af0f0bE"([128 x i8]* %self) unnamed_addr #0 !dbg !756 {
start:
  %self.dbg.spill = alloca [128 x i8]*, align 8
  store [128 x i8]* %self, [128 x i8]** %self.dbg.spill, align 8
  call void @llvm.dbg.declare(metadata [128 x i8]** %self.dbg.spill, metadata !760, metadata !DIExpression()), !dbg !761
  %_2 = bitcast [128 x i8]* %self to i8*, !dbg !762
  br label %bb1, !dbg !763

bb1:                                              ; preds = %start
; call core::ptr::const_ptr::<impl *const T>::guaranteed_eq
  %0 = call zeroext i1 @"_ZN4core3ptr9const_ptr33_$LT$impl$u20$$BP$const$u20$T$GT$13guaranteed_eq17hf5f5d857cadb4a2cE"(i8* %_2, i8* null), !dbg !762
  br label %bb2, !dbg !762

bb2:                                              ; preds = %bb1
  ret i1 %0, !dbg !764
}

; core::iter::traits::iterator::Iterator::zip
; Function Attrs: inlinehint nounwind
define void @_ZN4core4iter6traits8iterator8Iterator3zip17hb75671071391efc4E(%"core::iter::Zip<core::slice::IterMut<u64>, core::slice::ChunksExact<u8>>"* noalias nocapture sret(%"core::iter::Zip<core::slice::IterMut<u64>, core::slice::ChunksExact<u8>>") dereferenceable(80) %0, i64* nonnull %self.0, i64* %self.1, %"core::slice::ChunksExact<u8>"* noalias nocapture dereferenceable(40) %other) unnamed_addr #0 !dbg !765 {
start:
  %self.dbg.spill = alloca { i64*, i64* }, align 8
  %_5 = alloca %"core::slice::ChunksExact<u8>", align 8
  %_4 = alloca %"core::slice::ChunksExact<u8>", align 8
  %1 = getelementptr inbounds { i64*, i64* }, { i64*, i64* }* %self.dbg.spill, i32 0, i32 0
  store i64* %self.0, i64** %1, align 8
  %2 = getelementptr inbounds { i64*, i64* }, { i64*, i64* }* %self.dbg.spill, i32 0, i32 1
  store i64* %self.1, i64** %2, align 8
  call void @llvm.dbg.declare(metadata { i64*, i64* }* %self.dbg.spill, metadata !771, metadata !DIExpression()), !dbg !776
  call void @llvm.dbg.declare(metadata %"core::slice::ChunksExact<u8>"* %other, metadata !772, metadata !DIExpression()), !dbg !777
  %3 = bitcast %"core::slice::ChunksExact<u8>"* %_5 to i8*, !dbg !778
  %4 = bitcast %"core::slice::ChunksExact<u8>"* %other to i8*, !dbg !778
  call void @llvm.memcpy.p0i8.p0i8.i64(i8* align 8 %3, i8* align 8 %4, i64 40, i1 false), !dbg !778
; call <I as core::iter::traits::collect::IntoIterator>::into_iter
  call void @"_ZN63_$LT$I$u20$as$u20$core..iter..traits..collect..IntoIterator$GT$9into_iter17h501af3fb8a66fd39E"(%"core::slice::ChunksExact<u8>"* noalias nocapture sret(%"core::slice::ChunksExact<u8>") dereferenceable(40) %_4, %"core::slice::ChunksExact<u8>"* noalias nocapture dereferenceable(40) %_5), !dbg !778
  br label %bb1, !dbg !778

bb1:                                              ; preds = %start
; call core::iter::adapters::zip::Zip<A,B>::new
  call void @"_ZN4core4iter8adapters3zip16Zip$LT$A$C$B$GT$3new17he197d3b4ebd6071fE"(%"core::iter::Zip<core::slice::IterMut<u64>, core::slice::ChunksExact<u8>>"* noalias nocapture sret(%"core::iter::Zip<core::slice::IterMut<u64>, core::slice::ChunksExact<u8>>") dereferenceable(80) %0, i64* nonnull %self.0, i64* %self.1, %"core::slice::ChunksExact<u8>"* noalias nocapture dereferenceable(40) %_4), !dbg !779
  br label %bb2, !dbg !779

bb2:                                              ; preds = %bb1
  ret void, !dbg !780
}

; core::iter::traits::iterator::Iterator::zip
; Function Attrs: inlinehint nounwind
define void @_ZN4core4iter6traits8iterator8Iterator3zip17hd7a9951b73bf8d99E(%"core::iter::Zip<core::slice::IterMut<u32>, core::slice::ChunksExact<u8>>"* noalias nocapture sret(%"core::iter::Zip<core::slice::IterMut<u32>, core::slice::ChunksExact<u8>>") dereferenceable(80) %0, i32* nonnull %self.0, i32* %self.1, %"core::slice::ChunksExact<u8>"* noalias nocapture dereferenceable(40) %other) unnamed_addr #0 !dbg !781 {
start:
  %self.dbg.spill = alloca { i32*, i32* }, align 8
  %_5 = alloca %"core::slice::ChunksExact<u8>", align 8
  %_4 = alloca %"core::slice::ChunksExact<u8>", align 8
  %1 = getelementptr inbounds { i32*, i32* }, { i32*, i32* }* %self.dbg.spill, i32 0, i32 0
  store i32* %self.0, i32** %1, align 8
  %2 = getelementptr inbounds { i32*, i32* }, { i32*, i32* }* %self.dbg.spill, i32 0, i32 1
  store i32* %self.1, i32** %2, align 8
  call void @llvm.dbg.declare(metadata { i32*, i32* }* %self.dbg.spill, metadata !783, metadata !DIExpression()), !dbg !787
  call void @llvm.dbg.declare(metadata %"core::slice::ChunksExact<u8>"* %other, metadata !784, metadata !DIExpression()), !dbg !788
  %3 = bitcast %"core::slice::ChunksExact<u8>"* %_5 to i8*, !dbg !789
  %4 = bitcast %"core::slice::ChunksExact<u8>"* %other to i8*, !dbg !789
  call void @llvm.memcpy.p0i8.p0i8.i64(i8* align 8 %3, i8* align 8 %4, i64 40, i1 false), !dbg !789
; call <I as core::iter::traits::collect::IntoIterator>::into_iter
  call void @"_ZN63_$LT$I$u20$as$u20$core..iter..traits..collect..IntoIterator$GT$9into_iter17h501af3fb8a66fd39E"(%"core::slice::ChunksExact<u8>"* noalias nocapture sret(%"core::slice::ChunksExact<u8>") dereferenceable(40) %_4, %"core::slice::ChunksExact<u8>"* noalias nocapture dereferenceable(40) %_5), !dbg !789
  br label %bb1, !dbg !789

bb1:                                              ; preds = %start
; call core::iter::adapters::zip::Zip<A,B>::new
  call void @"_ZN4core4iter8adapters3zip16Zip$LT$A$C$B$GT$3new17hcf192a3887d1a6afE"(%"core::iter::Zip<core::slice::IterMut<u32>, core::slice::ChunksExact<u8>>"* noalias nocapture sret(%"core::iter::Zip<core::slice::IterMut<u32>, core::slice::ChunksExact<u8>>") dereferenceable(80) %0, i32* nonnull %self.0, i32* %self.1, %"core::slice::ChunksExact<u8>"* noalias nocapture dereferenceable(40) %_4), !dbg !790
  br label %bb2, !dbg !790

bb2:                                              ; preds = %bb1
  ret void, !dbg !791
}

; core::iter::adapters::zip::Zip<A,B>::new
; Function Attrs: nounwind
define void @"_ZN4core4iter8adapters3zip16Zip$LT$A$C$B$GT$3new17hcf192a3887d1a6afE"(%"core::iter::Zip<core::slice::IterMut<u32>, core::slice::ChunksExact<u8>>"* noalias nocapture sret(%"core::iter::Zip<core::slice::IterMut<u32>, core::slice::ChunksExact<u8>>") dereferenceable(80) %0, i32* nonnull %a.0, i32* %a.1, %"core::slice::ChunksExact<u8>"* noalias nocapture dereferenceable(40) %b) unnamed_addr #1 !dbg !792 {
start:
  %a.dbg.spill = alloca { i32*, i32* }, align 8
  %_4 = alloca %"core::slice::ChunksExact<u8>", align 8
  %1 = getelementptr inbounds { i32*, i32* }, { i32*, i32* }* %a.dbg.spill, i32 0, i32 0
  store i32* %a.0, i32** %1, align 8
  %2 = getelementptr inbounds { i32*, i32* }, { i32*, i32* }* %a.dbg.spill, i32 0, i32 1
  store i32* %a.1, i32** %2, align 8
  call void @llvm.dbg.declare(metadata { i32*, i32* }* %a.dbg.spill, metadata !794, metadata !DIExpression()), !dbg !796
  call void @llvm.dbg.declare(metadata %"core::slice::ChunksExact<u8>"* %b, metadata !795, metadata !DIExpression()), !dbg !797
  %3 = bitcast %"core::slice::ChunksExact<u8>"* %_4 to i8*, !dbg !798
  %4 = bitcast %"core::slice::ChunksExact<u8>"* %b to i8*, !dbg !798
  call void @llvm.memcpy.p0i8.p0i8.i64(i8* align 8 %3, i8* align 8 %4, i64 40, i1 false), !dbg !798
; call <core::iter::adapters::zip::Zip<A,B> as core::iter::adapters::zip::ZipImpl<A,B>>::new
  call void @"_ZN111_$LT$core..iter..adapters..zip..Zip$LT$A$C$B$GT$$u20$as$u20$core..iter..adapters..zip..ZipImpl$LT$A$C$B$GT$$GT$3new17hd55a0eb64db03200E"(%"core::iter::Zip<core::slice::IterMut<u32>, core::slice::ChunksExact<u8>>"* noalias nocapture sret(%"core::iter::Zip<core::slice::IterMut<u32>, core::slice::ChunksExact<u8>>") dereferenceable(80) %0, i32* nonnull %a.0, i32* %a.1, %"core::slice::ChunksExact<u8>"* noalias nocapture dereferenceable(40) %_4), !dbg !799
  br label %bb1, !dbg !799

bb1:                                              ; preds = %start
  ret void, !dbg !800
}

; core::iter::adapters::zip::Zip<A,B>::new
; Function Attrs: nounwind
define void @"_ZN4core4iter8adapters3zip16Zip$LT$A$C$B$GT$3new17he197d3b4ebd6071fE"(%"core::iter::Zip<core::slice::IterMut<u64>, core::slice::ChunksExact<u8>>"* noalias nocapture sret(%"core::iter::Zip<core::slice::IterMut<u64>, core::slice::ChunksExact<u8>>") dereferenceable(80) %0, i64* nonnull %a.0, i64* %a.1, %"core::slice::ChunksExact<u8>"* noalias nocapture dereferenceable(40) %b) unnamed_addr #1 !dbg !801 {
start:
  %a.dbg.spill = alloca { i64*, i64* }, align 8
  %_4 = alloca %"core::slice::ChunksExact<u8>", align 8
  %1 = getelementptr inbounds { i64*, i64* }, { i64*, i64* }* %a.dbg.spill, i32 0, i32 0
  store i64* %a.0, i64** %1, align 8
  %2 = getelementptr inbounds { i64*, i64* }, { i64*, i64* }* %a.dbg.spill, i32 0, i32 1
  store i64* %a.1, i64** %2, align 8
  call void @llvm.dbg.declare(metadata { i64*, i64* }* %a.dbg.spill, metadata !803, metadata !DIExpression()), !dbg !805
  call void @llvm.dbg.declare(metadata %"core::slice::ChunksExact<u8>"* %b, metadata !804, metadata !DIExpression()), !dbg !806
  %3 = bitcast %"core::slice::ChunksExact<u8>"* %_4 to i8*, !dbg !807
  %4 = bitcast %"core::slice::ChunksExact<u8>"* %b to i8*, !dbg !807
  call void @llvm.memcpy.p0i8.p0i8.i64(i8* align 8 %3, i8* align 8 %4, i64 40, i1 false), !dbg !807
; call <core::iter::adapters::zip::Zip<A,B> as core::iter::adapters::zip::ZipImpl<A,B>>::new
  call void @"_ZN111_$LT$core..iter..adapters..zip..Zip$LT$A$C$B$GT$$u20$as$u20$core..iter..adapters..zip..ZipImpl$LT$A$C$B$GT$$GT$3new17hc90825b50e23af62E"(%"core::iter::Zip<core::slice::IterMut<u64>, core::slice::ChunksExact<u8>>"* noalias nocapture sret(%"core::iter::Zip<core::slice::IterMut<u64>, core::slice::ChunksExact<u8>>") dereferenceable(80) %0, i64* nonnull %a.0, i64* %a.1, %"core::slice::ChunksExact<u8>"* noalias nocapture dereferenceable(40) %_4), !dbg !808
  br label %bb1, !dbg !808

bb1:                                              ; preds = %start
  ret void, !dbg !809
}

; core::iter::adapters::zip::TrustedRandomAccessNoCoerce::size
; Function Attrs: nounwind
define i64 @_ZN4core4iter8adapters3zip27TrustedRandomAccessNoCoerce4size17h0941118be5fb4a1bE({ i64*, i64* }* align 8 dereferenceable(16) %self) unnamed_addr #1 !dbg !810 {
start:
  %self.dbg.spill = alloca { i64*, i64* }*, align 8
  %_2 = alloca { i64, { i64, i64 } }, align 8
  store { i64*, i64* }* %self, { i64*, i64* }** %self.dbg.spill, align 8
  call void @llvm.dbg.declare(metadata { i64*, i64* }** %self.dbg.spill, metadata !816, metadata !DIExpression()), !dbg !818
; call <core::slice::iter::IterMut<T> as core::iter::traits::iterator::Iterator>::size_hint
  call void @"_ZN94_$LT$core..slice..iter..IterMut$LT$T$GT$$u20$as$u20$core..iter..traits..iterator..Iterator$GT$9size_hint17h21234902ae3f1c0dE"({ i64, { i64, i64 } }* noalias nocapture sret({ i64, { i64, i64 } }) dereferenceable(24) %_2, { i64*, i64* }* align 8 dereferenceable(16) %self), !dbg !819
  br label %bb1, !dbg !819

bb1:                                              ; preds = %start
  %0 = bitcast { i64, { i64, i64 } }* %_2 to i64*, !dbg !819
  %1 = load i64, i64* %0, align 8, !dbg !819
  ret i64 %1, !dbg !820
}

; core::iter::adapters::zip::TrustedRandomAccessNoCoerce::size
; Function Attrs: nounwind
define i64 @_ZN4core4iter8adapters3zip27TrustedRandomAccessNoCoerce4size17h2affb0a28ef49542E({ i32*, i32* }* align 8 dereferenceable(16) %self) unnamed_addr #1 !dbg !821 {
start:
  %self.dbg.spill = alloca { i32*, i32* }*, align 8
  %_2 = alloca { i64, { i64, i64 } }, align 8
  store { i32*, i32* }* %self, { i32*, i32* }** %self.dbg.spill, align 8
  call void @llvm.dbg.declare(metadata { i32*, i32* }** %self.dbg.spill, metadata !826, metadata !DIExpression()), !dbg !828
; call <core::slice::iter::IterMut<T> as core::iter::traits::iterator::Iterator>::size_hint
  call void @"_ZN94_$LT$core..slice..iter..IterMut$LT$T$GT$$u20$as$u20$core..iter..traits..iterator..Iterator$GT$9size_hint17h002af797dd30d961E"({ i64, { i64, i64 } }* noalias nocapture sret({ i64, { i64, i64 } }) dereferenceable(24) %_2, { i32*, i32* }* align 8 dereferenceable(16) %self), !dbg !829
  br label %bb1, !dbg !829

bb1:                                              ; preds = %start
  %0 = bitcast { i64, { i64, i64 } }* %_2 to i64*, !dbg !829
  %1 = load i64, i64* %0, align 8, !dbg !829
  ret i64 %1, !dbg !830
}

; core::iter::adapters::zip::TrustedRandomAccessNoCoerce::size
; Function Attrs: nounwind
define i64 @_ZN4core4iter8adapters3zip27TrustedRandomAccessNoCoerce4size17hfdc53a140ec1a1c9E(%"core::slice::ChunksExact<u8>"* align 8 dereferenceable(40) %self) unnamed_addr #1 !dbg !831 {
start:
  %self.dbg.spill = alloca %"core::slice::ChunksExact<u8>"*, align 8
  %_2 = alloca { i64, { i64, i64 } }, align 8
  store %"core::slice::ChunksExact<u8>"* %self, %"core::slice::ChunksExact<u8>"** %self.dbg.spill, align 8
  call void @llvm.dbg.declare(metadata %"core::slice::ChunksExact<u8>"** %self.dbg.spill, metadata !836, metadata !DIExpression()), !dbg !839
; call <core::slice::iter::ChunksExact<T> as core::iter::traits::iterator::Iterator>::size_hint
  call void @"_ZN98_$LT$core..slice..iter..ChunksExact$LT$T$GT$$u20$as$u20$core..iter..traits..iterator..Iterator$GT$9size_hint17h7530e59b9649c048E"({ i64, { i64, i64 } }* noalias nocapture sret({ i64, { i64, i64 } }) dereferenceable(24) %_2, %"core::slice::ChunksExact<u8>"* align 8 dereferenceable(40) %self), !dbg !840
  br label %bb1, !dbg !840

bb1:                                              ; preds = %start
  %0 = bitcast { i64, { i64, i64 } }* %_2 to i64*, !dbg !840
  %1 = load i64, i64* %0, align 8, !dbg !840
  ret i64 %1, !dbg !841
}

; core::array::<impl core::convert::TryFrom<&[T]> for &[T; N]>::try_from
; Function Attrs: nounwind
define align 1 dereferenceable_or_null(8) i8* @"_ZN4core5array102_$LT$impl$u20$core..convert..TryFrom$LT$$RF$$u5b$T$u5d$$GT$$u20$for$u20$$RF$$u5b$T$u3b$$u20$N$u5d$$GT$8try_from17h44b383156a3af45bE"([0 x i8]* nonnull align 1 %slice.0, i64 %slice.1) unnamed_addr #1 !dbg !842 {
start:
  %ptr.dbg.spill = alloca [8 x i8]*, align 8
  %slice.dbg.spill = alloca { [0 x i8]*, i64 }, align 8
  %0 = alloca i8*, align 8
  %1 = getelementptr inbounds { [0 x i8]*, i64 }, { [0 x i8]*, i64 }* %slice.dbg.spill, i32 0, i32 0
  store [0 x i8]* %slice.0, [0 x i8]** %1, align 8
  %2 = getelementptr inbounds { [0 x i8]*, i64 }, { [0 x i8]*, i64 }* %slice.dbg.spill, i32 0, i32 1
  store i64 %slice.1, i64* %2, align 8
  call void @llvm.dbg.declare(metadata { [0 x i8]*, i64 }* %slice.dbg.spill, metadata !865, metadata !DIExpression()), !dbg !869
  %_2 = icmp eq i64 %slice.1, 8, !dbg !870
  br i1 %_2, label %bb1, label %bb3, !dbg !870

bb3:                                              ; preds = %start
  %3 = bitcast i8** %0 to {}**, !dbg !871
  store {}* null, {}** %3, align 8, !dbg !871
  br label %bb4, !dbg !872

bb1:                                              ; preds = %start
; call core::slice::<impl [T]>::as_ptr
  %_6 = call i8* @"_ZN4core5slice29_$LT$impl$u20$$u5b$T$u5d$$GT$6as_ptr17h4fbbe680d101d17bE"([0 x i8]* nonnull align 1 %slice.0, i64 %slice.1), !dbg !873
  br label %bb2, !dbg !873

bb2:                                              ; preds = %bb1
  %ptr = bitcast i8* %_6 to [8 x i8]*, !dbg !873
  store [8 x i8]* %ptr, [8 x i8]** %ptr.dbg.spill, align 8, !dbg !873
  call void @llvm.dbg.declare(metadata [8 x i8]** %ptr.dbg.spill, metadata !866, metadata !DIExpression()), !dbg !874
  %4 = bitcast i8** %0 to [8 x i8]**, !dbg !875
  store [8 x i8]* %ptr, [8 x i8]** %4, align 8, !dbg !875
  br label %bb4, !dbg !872

bb4:                                              ; preds = %bb3, %bb2
  %5 = load i8*, i8** %0, align 8, !dbg !876
  ret i8* %5, !dbg !876
}

; core::array::<impl core::convert::TryFrom<&[T]> for &[T; N]>::try_from
; Function Attrs: nounwind
define align 1 dereferenceable_or_null(4) i8* @"_ZN4core5array102_$LT$impl$u20$core..convert..TryFrom$LT$$RF$$u5b$T$u5d$$GT$$u20$for$u20$$RF$$u5b$T$u3b$$u20$N$u5d$$GT$8try_from17h4c9a9d24f1b28430E"([0 x i8]* nonnull align 1 %slice.0, i64 %slice.1) unnamed_addr #1 !dbg !877 {
start:
  %ptr.dbg.spill = alloca [4 x i8]*, align 8
  %slice.dbg.spill = alloca { [0 x i8]*, i64 }, align 8
  %0 = alloca i8*, align 8
  %1 = getelementptr inbounds { [0 x i8]*, i64 }, { [0 x i8]*, i64 }* %slice.dbg.spill, i32 0, i32 0
  store [0 x i8]* %slice.0, [0 x i8]** %1, align 8
  %2 = getelementptr inbounds { [0 x i8]*, i64 }, { [0 x i8]*, i64 }* %slice.dbg.spill, i32 0, i32 1
  store i64 %slice.1, i64* %2, align 8
  call void @llvm.dbg.declare(metadata { [0 x i8]*, i64 }* %slice.dbg.spill, metadata !896, metadata !DIExpression()), !dbg !900
  %_2 = icmp eq i64 %slice.1, 4, !dbg !901
  br i1 %_2, label %bb1, label %bb3, !dbg !901

bb3:                                              ; preds = %start
  %3 = bitcast i8** %0 to {}**, !dbg !902
  store {}* null, {}** %3, align 8, !dbg !902
  br label %bb4, !dbg !903

bb1:                                              ; preds = %start
; call core::slice::<impl [T]>::as_ptr
  %_6 = call i8* @"_ZN4core5slice29_$LT$impl$u20$$u5b$T$u5d$$GT$6as_ptr17h4fbbe680d101d17bE"([0 x i8]* nonnull align 1 %slice.0, i64 %slice.1), !dbg !904
  br label %bb2, !dbg !904

bb2:                                              ; preds = %bb1
  %ptr = bitcast i8* %_6 to [4 x i8]*, !dbg !904
  store [4 x i8]* %ptr, [4 x i8]** %ptr.dbg.spill, align 8, !dbg !904
  call void @llvm.dbg.declare(metadata [4 x i8]** %ptr.dbg.spill, metadata !897, metadata !DIExpression()), !dbg !905
  %4 = bitcast i8** %0 to [4 x i8]**, !dbg !906
  store [4 x i8]* %ptr, [4 x i8]** %4, align 8, !dbg !906
  br label %bb4, !dbg !903

bb4:                                              ; preds = %bb3, %bb2
  %5 = load i8*, i8** %0, align 8, !dbg !907
  ret i8* %5, !dbg !907
}

; core::array::<impl core::convert::TryFrom<&[T]> for [T; N]>::try_from
; Function Attrs: nounwind
define i72 @"_ZN4core5array98_$LT$impl$u20$core..convert..TryFrom$LT$$RF$$u5b$T$u5d$$GT$$u20$for$u20$$u5b$T$u3b$$u20$N$u5d$$GT$8try_from17h10c733d36b86f483E"([0 x i8]* nonnull align 1 %slice.0, i64 %slice.1) unnamed_addr #1 !dbg !908 {
start:
  %0 = alloca i72, align 8
  %slice.dbg.spill = alloca { [0 x i8]*, i64 }, align 8
  %1 = alloca %"core::result::Result<[u8; 8], core::array::TryFromSliceError>", align 1
  %2 = getelementptr inbounds { [0 x i8]*, i64 }, { [0 x i8]*, i64 }* %slice.dbg.spill, i32 0, i32 0
  store [0 x i8]* %slice.0, [0 x i8]** %2, align 8
  %3 = getelementptr inbounds { [0 x i8]*, i64 }, { [0 x i8]*, i64 }* %slice.dbg.spill, i32 0, i32 1
  store i64 %slice.1, i64* %3, align 8
  call void @llvm.dbg.declare(metadata { [0 x i8]*, i64 }* %slice.dbg.spill, metadata !928, metadata !DIExpression()), !dbg !929
; call core::array::<impl core::convert::TryFrom<&[T]> for &[T; N]>::try_from
  %_2 = call align 1 dereferenceable_or_null(8) i8* @"_ZN4core5array102_$LT$impl$u20$core..convert..TryFrom$LT$$RF$$u5b$T$u5d$$GT$$u20$for$u20$$RF$$u5b$T$u3b$$u20$N$u5d$$GT$8try_from17h44b383156a3af45bE"([0 x i8]* nonnull align 1 %slice.0, i64 %slice.1), !dbg !930
  br label %bb1, !dbg !930

bb1:                                              ; preds = %start
; call core::result::Result<T,E>::map
  %4 = call i72 @"_ZN4core6result19Result$LT$T$C$E$GT$3map17hf3ecbf176e482801E"(i8* align 1 dereferenceable_or_null(8) %_2), !dbg !930
  store i72 %4, i72* %0, align 8, !dbg !930
  %5 = bitcast %"core::result::Result<[u8; 8], core::array::TryFromSliceError>"* %1 to i8*, !dbg !930
  %6 = bitcast i72* %0 to i8*, !dbg !930
  call void @llvm.memcpy.p0i8.p0i8.i64(i8* align 1 %5, i8* align 8 %6, i64 9, i1 false), !dbg !930
  br label %bb2, !dbg !930

bb2:                                              ; preds = %bb1
  %7 = bitcast %"core::result::Result<[u8; 8], core::array::TryFromSliceError>"* %1 to i72*, !dbg !931
  %8 = load i72, i72* %7, align 1, !dbg !931
  ret i72 %8, !dbg !931
}

; core::array::<impl core::convert::TryFrom<&[T]> for [T; N]>::try_from
; Function Attrs: nounwind
define i40 @"_ZN4core5array98_$LT$impl$u20$core..convert..TryFrom$LT$$RF$$u5b$T$u5d$$GT$$u20$for$u20$$u5b$T$u3b$$u20$N$u5d$$GT$8try_from17hb92925616fe135bcE"([0 x i8]* nonnull align 1 %slice.0, i64 %slice.1) unnamed_addr #1 !dbg !932 {
start:
  %0 = alloca i40, align 8
  %slice.dbg.spill = alloca { [0 x i8]*, i64 }, align 8
  %1 = alloca %"core::result::Result<[u8; 4], core::array::TryFromSliceError>", align 1
  %2 = getelementptr inbounds { [0 x i8]*, i64 }, { [0 x i8]*, i64 }* %slice.dbg.spill, i32 0, i32 0
  store [0 x i8]* %slice.0, [0 x i8]** %2, align 8
  %3 = getelementptr inbounds { [0 x i8]*, i64 }, { [0 x i8]*, i64 }* %slice.dbg.spill, i32 0, i32 1
  store i64 %slice.1, i64* %3, align 8
  call void @llvm.dbg.declare(metadata { [0 x i8]*, i64 }* %slice.dbg.spill, metadata !950, metadata !DIExpression()), !dbg !951
; call core::array::<impl core::convert::TryFrom<&[T]> for &[T; N]>::try_from
  %_2 = call align 1 dereferenceable_or_null(4) i8* @"_ZN4core5array102_$LT$impl$u20$core..convert..TryFrom$LT$$RF$$u5b$T$u5d$$GT$$u20$for$u20$$RF$$u5b$T$u3b$$u20$N$u5d$$GT$8try_from17h4c9a9d24f1b28430E"([0 x i8]* nonnull align 1 %slice.0, i64 %slice.1), !dbg !952
  br label %bb1, !dbg !952

bb1:                                              ; preds = %start
; call core::result::Result<T,E>::map
  %4 = call i40 @"_ZN4core6result19Result$LT$T$C$E$GT$3map17he19e3e199cf0b622E"(i8* align 1 dereferenceable_or_null(4) %_2), !dbg !952
  store i40 %4, i40* %0, align 8, !dbg !952
  %5 = bitcast %"core::result::Result<[u8; 4], core::array::TryFromSliceError>"* %1 to i8*, !dbg !952
  %6 = bitcast i40* %0 to i8*, !dbg !952
  call void @llvm.memcpy.p0i8.p0i8.i64(i8* align 1 %5, i8* align 8 %6, i64 5, i1 false), !dbg !952
  br label %bb2, !dbg !952

bb2:                                              ; preds = %bb1
  %7 = bitcast %"core::result::Result<[u8; 4], core::array::TryFromSliceError>"* %1 to i40*, !dbg !953
  %8 = load i40, i40* %7, align 1, !dbg !953
  ret i40 %8, !dbg !953
}

; core::array::<impl core::convert::TryFrom<&[T]> for [T; N]>::try_from::{{closure}}
; Function Attrs: inlinehint nounwind
define i32 @"_ZN4core5array98_$LT$impl$u20$core..convert..TryFrom$LT$$RF$$u5b$T$u5d$$GT$$u20$for$u20$$u5b$T$u3b$$u20$N$u5d$$GT$8try_from28_$u7b$$u7b$closure$u7d$$u7d$17h9dc6b375f36d10a4E"([4 x i8]* align 1 dereferenceable(4) %r) unnamed_addr #0 !dbg !954 {
start:
  %r.dbg.spill = alloca [4 x i8]*, align 8
  %_1.dbg.spill = alloca %"[closure@core::array::<impl core::convert::TryFrom<&[u8]> for [u8; 4]>::try_from::{closure#0}]", align 1
  %0 = alloca [4 x i8], align 1
  call void @llvm.dbg.declare(metadata %"[closure@core::array::<impl core::convert::TryFrom<&[u8]> for [u8; 4]>::try_from::{closure#0}]"* %_1.dbg.spill, metadata !961, metadata !DIExpression()), !dbg !962
  store [4 x i8]* %r, [4 x i8]** %r.dbg.spill, align 8
  call void @llvm.dbg.declare(metadata [4 x i8]** %r.dbg.spill, metadata !960, metadata !DIExpression()), !dbg !963
  %1 = bitcast [4 x i8]* %0 to i8*, !dbg !964
  %2 = bitcast [4 x i8]* %r to i8*, !dbg !964
  call void @llvm.memcpy.p0i8.p0i8.i64(i8* align 1 %1, i8* align 1 %2, i64 4, i1 false), !dbg !964
  %3 = bitcast [4 x i8]* %0 to i32*, !dbg !965
  %4 = load i32, i32* %3, align 1, !dbg !965
  ret i32 %4, !dbg !965
}

; core::array::<impl core::convert::TryFrom<&[T]> for [T; N]>::try_from::{{closure}}
; Function Attrs: inlinehint nounwind
define i64 @"_ZN4core5array98_$LT$impl$u20$core..convert..TryFrom$LT$$RF$$u5b$T$u5d$$GT$$u20$for$u20$$u5b$T$u3b$$u20$N$u5d$$GT$8try_from28_$u7b$$u7b$closure$u7d$$u7d$17h9f1f2033889bc8dfE"([8 x i8]* align 1 dereferenceable(8) %r) unnamed_addr #0 !dbg !966 {
start:
  %r.dbg.spill = alloca [8 x i8]*, align 8
  %_1.dbg.spill = alloca %"[closure@core::array::<impl core::convert::TryFrom<&[u8]> for [u8; 8]>::try_from::{closure#0}]", align 1
  %0 = alloca [8 x i8], align 1
  call void @llvm.dbg.declare(metadata %"[closure@core::array::<impl core::convert::TryFrom<&[u8]> for [u8; 8]>::try_from::{closure#0}]"* %_1.dbg.spill, metadata !972, metadata !DIExpression()), !dbg !973
  store [8 x i8]* %r, [8 x i8]** %r.dbg.spill, align 8
  call void @llvm.dbg.declare(metadata [8 x i8]** %r.dbg.spill, metadata !971, metadata !DIExpression()), !dbg !974
  %1 = bitcast [8 x i8]* %0 to i8*, !dbg !975
  %2 = bitcast [8 x i8]* %r to i8*, !dbg !975
  call void @llvm.memcpy.p0i8.p0i8.i64(i8* align 1 %1, i8* align 1 %2, i64 8, i1 false), !dbg !975
  %3 = bitcast [8 x i8]* %0 to i64*, !dbg !976
  %4 = load i64, i64* %3, align 1, !dbg !976
  ret i64 %4, !dbg !976
}

; core::slice::<impl [T]>::as_mut_ptr
; Function Attrs: inlinehint nounwind
define i64* @"_ZN4core5slice29_$LT$impl$u20$$u5b$T$u5d$$GT$10as_mut_ptr17h35b6aed2f583f0e9E"([0 x i64]* nonnull align 8 %self.0, i64 %self.1) unnamed_addr #0 !dbg !977 {
start:
  %self.dbg.spill = alloca { [0 x i64]*, i64 }, align 8
  %0 = getelementptr inbounds { [0 x i64]*, i64 }, { [0 x i64]*, i64 }* %self.dbg.spill, i32 0, i32 0
  store [0 x i64]* %self.0, [0 x i64]** %0, align 8
  %1 = getelementptr inbounds { [0 x i64]*, i64 }, { [0 x i64]*, i64 }* %self.dbg.spill, i32 0, i32 1
  store i64 %self.1, i64* %1, align 8
  call void @llvm.dbg.declare(metadata { [0 x i64]*, i64 }* %self.dbg.spill, metadata !987, metadata !DIExpression()), !dbg !988
  %2 = bitcast [0 x i64]* %self.0 to i64*, !dbg !989
  ret i64* %2, !dbg !990
}

; core::slice::<impl [T]>::as_mut_ptr
; Function Attrs: inlinehint nounwind
define i32* @"_ZN4core5slice29_$LT$impl$u20$$u5b$T$u5d$$GT$10as_mut_ptr17hcf1bdd081f08a4eeE"([0 x i32]* nonnull align 4 %self.0, i64 %self.1) unnamed_addr #0 !dbg !991 {
start:
  %self.dbg.spill = alloca { [0 x i32]*, i64 }, align 8
  %0 = getelementptr inbounds { [0 x i32]*, i64 }, { [0 x i32]*, i64 }* %self.dbg.spill, i32 0, i32 0
  store [0 x i32]* %self.0, [0 x i32]** %0, align 8
  %1 = getelementptr inbounds { [0 x i32]*, i64 }, { [0 x i32]*, i64 }* %self.dbg.spill, i32 0, i32 1
  store i64 %self.1, i64* %1, align 8
  call void @llvm.dbg.declare(metadata { [0 x i32]*, i64 }* %self.dbg.spill, metadata !999, metadata !DIExpression()), !dbg !1000
  %2 = bitcast [0 x i32]* %self.0 to i32*, !dbg !1001
  ret i32* %2, !dbg !1002
}

; core::slice::<impl [T]>::chunks_exact
; Function Attrs: inlinehint nounwind
define void @"_ZN4core5slice29_$LT$impl$u20$$u5b$T$u5d$$GT$12chunks_exact17h4117040745c316caE"(%"core::slice::ChunksExact<u8>"* noalias nocapture sret(%"core::slice::ChunksExact<u8>") dereferenceable(40) %0, [0 x i8]* nonnull align 1 %self.0, i64 %self.1, i64 %1) unnamed_addr #0 !dbg !1003 {
start:
  %right_val.dbg.spill = alloca i64*, align 8
  %left_val.dbg.spill = alloca i64*, align 8
  %self.dbg.spill = alloca { [0 x i8]*, i64 }, align 8
  %_17 = alloca %"core::option::Option<core::fmt::Arguments>", align 8
  %kind = alloca i8, align 1
  %_3 = alloca { i64*, i64* }, align 8
  %chunk_size = alloca i64, align 8
  store i64 %1, i64* %chunk_size, align 8
  %2 = getelementptr inbounds { [0 x i8]*, i64 }, { [0 x i8]*, i64 }* %self.dbg.spill, i32 0, i32 0
  store [0 x i8]* %self.0, [0 x i8]** %2, align 8
  %3 = getelementptr inbounds { [0 x i8]*, i64 }, { [0 x i8]*, i64 }* %self.dbg.spill, i32 0, i32 1
  store i64 %self.1, i64* %3, align 8
  call void @llvm.dbg.declare(metadata { [0 x i8]*, i64 }* %self.dbg.spill, metadata !1007, metadata !DIExpression()), !dbg !1017
  call void @llvm.dbg.declare(metadata i64* %chunk_size, metadata !1008, metadata !DIExpression()), !dbg !1018
  call void @llvm.dbg.declare(metadata i8* %kind, metadata !1014, metadata !DIExpression()), !dbg !1019
  %4 = bitcast { i64*, i64* }* %_3 to i64**, !dbg !1020
  store i64* %chunk_size, i64** %4, align 8, !dbg !1020
  %5 = getelementptr inbounds { i64*, i64* }, { i64*, i64* }* %_3, i32 0, i32 1, !dbg !1020
  store i64* bitcast (<{ [8 x i8] }>* @alloc586 to i64*), i64** %5, align 8, !dbg !1020
  %6 = bitcast { i64*, i64* }* %_3 to i64**, !dbg !1020
  %left_val = load i64*, i64** %6, align 8, !dbg !1020, !nonnull !4
  store i64* %left_val, i64** %left_val.dbg.spill, align 8, !dbg !1020
  call void @llvm.dbg.declare(metadata i64** %left_val.dbg.spill, metadata !1009, metadata !DIExpression()), !dbg !1021
  %7 = getelementptr inbounds { i64*, i64* }, { i64*, i64* }* %_3, i32 0, i32 1, !dbg !1020
  %right_val = load i64*, i64** %7, align 8, !dbg !1020, !nonnull !4
  store i64* %right_val, i64** %right_val.dbg.spill, align 8, !dbg !1020
  call void @llvm.dbg.declare(metadata i64** %right_val.dbg.spill, metadata !1013, metadata !DIExpression()), !dbg !1021
  %_9 = load i64, i64* %left_val, align 8, !dbg !1021
  %_10 = load i64, i64* %right_val, align 8, !dbg !1021
  %_8 = icmp eq i64 %_9, %_10, !dbg !1021
  br i1 %_8, label %bb1, label %bb2, !dbg !1021

bb2:                                              ; preds = %start
  %_19 = load i64, i64* %chunk_size, align 8, !dbg !1022
; call core::slice::iter::ChunksExact<T>::new
  call void @"_ZN4core5slice4iter20ChunksExact$LT$T$GT$3new17h8edd9f38cc05981fE"(%"core::slice::ChunksExact<u8>"* noalias nocapture sret(%"core::slice::ChunksExact<u8>") dereferenceable(40) %0, [0 x i8]* nonnull align 1 %self.0, i64 %self.1, i64 %_19), !dbg !1023
  br label %bb3, !dbg !1023

bb1:                                              ; preds = %start
  store i8 1, i8* %kind, align 1, !dbg !1021
  %8 = bitcast %"core::option::Option<core::fmt::Arguments>"* %_17 to {}**, !dbg !1019
  store {}* null, {}** %8, align 8, !dbg !1019
; call core::panicking::assert_failed
  call void @_ZN4core9panicking13assert_failed17h681b845251a6b9e9E(i8 1, i64* align 8 dereferenceable(8) %left_val, i64* align 8 dereferenceable(8) %right_val, %"core::option::Option<core::fmt::Arguments>"* noalias nocapture dereferenceable(48) %_17, %"core::panic::Location"* align 8 dereferenceable(24) bitcast (<{ i8*, [16 x i8] }>* @alloc690 to %"core::panic::Location"*)), !dbg !1019
  unreachable, !dbg !1019

bb3:                                              ; preds = %bb2
  ret void, !dbg !1024
}

; core::slice::<impl [T]>::get_unchecked
; Function Attrs: inlinehint nounwind
define { [0 x i8]*, i64 } @"_ZN4core5slice29_$LT$impl$u20$$u5b$T$u5d$$GT$13get_unchecked17h2e8cd7d2349f7695E"([0 x i8]* nonnull align 1 %self.0, i64 %self.1, i64 %index) unnamed_addr #0 !dbg !1025 {
start:
  %index.dbg.spill = alloca i64, align 8
  %self.dbg.spill = alloca { [0 x i8]*, i64 }, align 8
  %0 = getelementptr inbounds { [0 x i8]*, i64 }, { [0 x i8]*, i64 }* %self.dbg.spill, i32 0, i32 0
  store [0 x i8]* %self.0, [0 x i8]** %0, align 8
  %1 = getelementptr inbounds { [0 x i8]*, i64 }, { [0 x i8]*, i64 }* %self.dbg.spill, i32 0, i32 1
  store i64 %self.1, i64* %1, align 8
  call void @llvm.dbg.declare(metadata { [0 x i8]*, i64 }* %self.dbg.spill, metadata !1029, metadata !DIExpression()), !dbg !1033
  store i64 %index, i64* %index.dbg.spill, align 8
  call void @llvm.dbg.declare(metadata i64* %index.dbg.spill, metadata !1030, metadata !DIExpression()), !dbg !1034
; call <core::ops::range::RangeTo<usize> as core::slice::index::SliceIndex<[T]>>::get_unchecked
  %2 = call { [0 x i8]*, i64 } @"_ZN108_$LT$core..ops..range..RangeTo$LT$usize$GT$$u20$as$u20$core..slice..index..SliceIndex$LT$$u5b$T$u5d$$GT$$GT$13get_unchecked17h7b3b465604657aa0E"(i64 %index, [0 x i8]* %self.0, i64 %self.1), !dbg !1035
  %_3.0 = extractvalue { [0 x i8]*, i64 } %2, 0, !dbg !1035
  %_3.1 = extractvalue { [0 x i8]*, i64 } %2, 1, !dbg !1035
  br label %bb1, !dbg !1035

bb1:                                              ; preds = %start
  %3 = insertvalue { [0 x i8]*, i64 } undef, [0 x i8]* %_3.0, 0, !dbg !1036
  %4 = insertvalue { [0 x i8]*, i64 } %3, i64 %_3.1, 1, !dbg !1036
  ret { [0 x i8]*, i64 } %4, !dbg !1036
}

; core::slice::<impl [T]>::get_unchecked
; Function Attrs: inlinehint nounwind
define { [0 x i8]*, i64 } @"_ZN4core5slice29_$LT$impl$u20$$u5b$T$u5d$$GT$13get_unchecked17h46e46594568480caE"([0 x i8]* nonnull align 1 %self.0, i64 %self.1, i64 %index) unnamed_addr #0 !dbg !1037 {
start:
  %index.dbg.spill = alloca i64, align 8
  %self.dbg.spill = alloca { [0 x i8]*, i64 }, align 8
  %0 = getelementptr inbounds { [0 x i8]*, i64 }, { [0 x i8]*, i64 }* %self.dbg.spill, i32 0, i32 0
  store [0 x i8]* %self.0, [0 x i8]** %0, align 8
  %1 = getelementptr inbounds { [0 x i8]*, i64 }, { [0 x i8]*, i64 }* %self.dbg.spill, i32 0, i32 1
  store i64 %self.1, i64* %1, align 8
  call void @llvm.dbg.declare(metadata { [0 x i8]*, i64 }* %self.dbg.spill, metadata !1044, metadata !DIExpression()), !dbg !1048
  store i64 %index, i64* %index.dbg.spill, align 8
  call void @llvm.dbg.declare(metadata i64* %index.dbg.spill, metadata !1045, metadata !DIExpression()), !dbg !1049
; call <core::ops::range::RangeFrom<usize> as core::slice::index::SliceIndex<[T]>>::get_unchecked
  %2 = call { [0 x i8]*, i64 } @"_ZN110_$LT$core..ops..range..RangeFrom$LT$usize$GT$$u20$as$u20$core..slice..index..SliceIndex$LT$$u5b$T$u5d$$GT$$GT$13get_unchecked17hbdffb73bcfe2f811E"(i64 %index, [0 x i8]* %self.0, i64 %self.1), !dbg !1050
  %_3.0 = extractvalue { [0 x i8]*, i64 } %2, 0, !dbg !1050
  %_3.1 = extractvalue { [0 x i8]*, i64 } %2, 1, !dbg !1050
  br label %bb1, !dbg !1050

bb1:                                              ; preds = %start
  %3 = insertvalue { [0 x i8]*, i64 } undef, [0 x i8]* %_3.0, 0, !dbg !1051
  %4 = insertvalue { [0 x i8]*, i64 } %3, i64 %_3.1, 1, !dbg !1051
  ret { [0 x i8]*, i64 } %4, !dbg !1051
}

; core::slice::<impl [T]>::split_at_unchecked
; Function Attrs: inlinehint nounwind
define void @"_ZN4core5slice29_$LT$impl$u20$$u5b$T$u5d$$GT$18split_at_unchecked17h477953791869703aE"({ { [0 x i8]*, i64 }, { [0 x i8]*, i64 } }* noalias nocapture sret({ { [0 x i8]*, i64 }, { [0 x i8]*, i64 } }) dereferenceable(32) %0, [0 x i8]* nonnull align 1 %self.0, i64 %self.1, i64 %mid) unnamed_addr #0 !dbg !1052 {
start:
  %mid.dbg.spill = alloca i64, align 8
  %self.dbg.spill = alloca { [0 x i8]*, i64 }, align 8
  %_11 = alloca i64, align 8
  %_6 = alloca i64, align 8
  %1 = getelementptr inbounds { [0 x i8]*, i64 }, { [0 x i8]*, i64 }* %self.dbg.spill, i32 0, i32 0
  store [0 x i8]* %self.0, [0 x i8]** %1, align 8
  %2 = getelementptr inbounds { [0 x i8]*, i64 }, { [0 x i8]*, i64 }* %self.dbg.spill, i32 0, i32 1
  store i64 %self.1, i64* %2, align 8
  call void @llvm.dbg.declare(metadata { [0 x i8]*, i64 }* %self.dbg.spill, metadata !1060, metadata !DIExpression()), !dbg !1062
  store i64 %mid, i64* %mid.dbg.spill, align 8
  call void @llvm.dbg.declare(metadata i64* %mid.dbg.spill, metadata !1061, metadata !DIExpression()), !dbg !1063
  store i64 %mid, i64* %_6, align 8, !dbg !1064
  %3 = load i64, i64* %_6, align 8, !dbg !1065
; call core::slice::<impl [T]>::get_unchecked
  %4 = call { [0 x i8]*, i64 } @"_ZN4core5slice29_$LT$impl$u20$$u5b$T$u5d$$GT$13get_unchecked17h2e8cd7d2349f7695E"([0 x i8]* nonnull align 1 %self.0, i64 %self.1, i64 %3), !dbg !1065
  %_4.0 = extractvalue { [0 x i8]*, i64 } %4, 0, !dbg !1065
  %_4.1 = extractvalue { [0 x i8]*, i64 } %4, 1, !dbg !1065
  br label %bb1, !dbg !1065

bb1:                                              ; preds = %start
  store i64 %mid, i64* %_11, align 8, !dbg !1066
  %5 = load i64, i64* %_11, align 8, !dbg !1067
; call core::slice::<impl [T]>::get_unchecked
  %6 = call { [0 x i8]*, i64 } @"_ZN4core5slice29_$LT$impl$u20$$u5b$T$u5d$$GT$13get_unchecked17h46e46594568480caE"([0 x i8]* nonnull align 1 %self.0, i64 %self.1, i64 %5), !dbg !1067
  %_9.0 = extractvalue { [0 x i8]*, i64 } %6, 0, !dbg !1067
  %_9.1 = extractvalue { [0 x i8]*, i64 } %6, 1, !dbg !1067
  br label %bb2, !dbg !1067

bb2:                                              ; preds = %bb1
  %7 = bitcast { { [0 x i8]*, i64 }, { [0 x i8]*, i64 } }* %0 to { [0 x i8]*, i64 }*, !dbg !1068
  %8 = getelementptr inbounds { [0 x i8]*, i64 }, { [0 x i8]*, i64 }* %7, i32 0, i32 0, !dbg !1068
  store [0 x i8]* %_4.0, [0 x i8]** %8, align 8, !dbg !1068
  %9 = getelementptr inbounds { [0 x i8]*, i64 }, { [0 x i8]*, i64 }* %7, i32 0, i32 1, !dbg !1068
  store i64 %_4.1, i64* %9, align 8, !dbg !1068
  %10 = getelementptr inbounds { { [0 x i8]*, i64 }, { [0 x i8]*, i64 } }, { { [0 x i8]*, i64 }, { [0 x i8]*, i64 } }* %0, i32 0, i32 1, !dbg !1068
  %11 = getelementptr inbounds { [0 x i8]*, i64 }, { [0 x i8]*, i64 }* %10, i32 0, i32 0, !dbg !1068
  store [0 x i8]* %_9.0, [0 x i8]** %11, align 8, !dbg !1068
  %12 = getelementptr inbounds { [0 x i8]*, i64 }, { [0 x i8]*, i64 }* %10, i32 0, i32 1, !dbg !1068
  store i64 %_9.1, i64* %12, align 8, !dbg !1068
  ret void, !dbg !1069
}

; core::slice::<impl [T]>::iter
; Function Attrs: inlinehint nounwind
define { i8*, i8* } @"_ZN4core5slice29_$LT$impl$u20$$u5b$T$u5d$$GT$4iter17h9836512060fbedafE"([0 x [128 x i8]]* nonnull align 1 %self.0, i64 %self.1) unnamed_addr #0 !dbg !1070 {
start:
  %self.dbg.spill = alloca { [0 x [128 x i8]]*, i64 }, align 8
  %0 = getelementptr inbounds { [0 x [128 x i8]]*, i64 }, { [0 x [128 x i8]]*, i64 }* %self.dbg.spill, i32 0, i32 0
  store [0 x [128 x i8]]* %self.0, [0 x [128 x i8]]** %0, align 8
  %1 = getelementptr inbounds { [0 x [128 x i8]]*, i64 }, { [0 x [128 x i8]]*, i64 }* %self.dbg.spill, i32 0, i32 1
  store i64 %self.1, i64* %1, align 8
  call void @llvm.dbg.declare(metadata { [0 x [128 x i8]]*, i64 }* %self.dbg.spill, metadata !1087, metadata !DIExpression()), !dbg !1088
; call core::slice::iter::Iter<T>::new
  %2 = call { i8*, i8* } @"_ZN4core5slice4iter13Iter$LT$T$GT$3new17h551c41d08172907aE"([0 x [128 x i8]]* nonnull align 1 %self.0, i64 %self.1), !dbg !1089
  %3 = extractvalue { i8*, i8* } %2, 0, !dbg !1089
  %4 = extractvalue { i8*, i8* } %2, 1, !dbg !1089
  br label %bb1, !dbg !1089

bb1:                                              ; preds = %start
  %5 = insertvalue { i8*, i8* } undef, i8* %3, 0, !dbg !1090
  %6 = insertvalue { i8*, i8* } %5, i8* %4, 1, !dbg !1090
  ret { i8*, i8* } %6, !dbg !1090
}

; core::slice::<impl [T]>::iter
; Function Attrs: inlinehint nounwind
define { i8*, i8* } @"_ZN4core5slice29_$LT$impl$u20$$u5b$T$u5d$$GT$4iter17hfddf7b170084bc13E"([0 x [64 x i8]]* nonnull align 1 %self.0, i64 %self.1) unnamed_addr #0 !dbg !1091 {
start:
  %self.dbg.spill = alloca { [0 x [64 x i8]]*, i64 }, align 8
  %0 = getelementptr inbounds { [0 x [64 x i8]]*, i64 }, { [0 x [64 x i8]]*, i64 }* %self.dbg.spill, i32 0, i32 0
  store [0 x [64 x i8]]* %self.0, [0 x [64 x i8]]** %0, align 8
  %1 = getelementptr inbounds { [0 x [64 x i8]]*, i64 }, { [0 x [64 x i8]]*, i64 }* %self.dbg.spill, i32 0, i32 1
  store i64 %self.1, i64* %1, align 8
  call void @llvm.dbg.declare(metadata { [0 x [64 x i8]]*, i64 }* %self.dbg.spill, metadata !1108, metadata !DIExpression()), !dbg !1109
; call core::slice::iter::Iter<T>::new
  %2 = call { i8*, i8* } @"_ZN4core5slice4iter13Iter$LT$T$GT$3new17hc6bc46234e8ce168E"([0 x [64 x i8]]* nonnull align 1 %self.0, i64 %self.1), !dbg !1110
  %3 = extractvalue { i8*, i8* } %2, 0, !dbg !1110
  %4 = extractvalue { i8*, i8* } %2, 1, !dbg !1110
  br label %bb1, !dbg !1110

bb1:                                              ; preds = %start
  %5 = insertvalue { i8*, i8* } undef, i8* %3, 0, !dbg !1111
  %6 = insertvalue { i8*, i8* } %5, i8* %4, 1, !dbg !1111
  ret { i8*, i8* } %6, !dbg !1111
}

; core::slice::<impl [T]>::as_ptr
; Function Attrs: inlinehint nounwind
define %"digest::generic_array::GenericArray<u8, digest::typenum::UInt<digest::typenum::UInt<digest::typenum::UInt<digest::typenum::UInt<digest::typenum::UInt<digest::typenum::UInt<digest::typenum::UInt<digest::typenum::UTerm, digest::typenum::B1>, digest::typenum::B0>, digest::typenum::B0>, digest::typenum::B0>, digest::typenum::B0>, digest::typenum::B0>, digest::typenum::B0>>"* @"_ZN4core5slice29_$LT$impl$u20$$u5b$T$u5d$$GT$6as_ptr17h0fa854dc80af967bE"([0 x %"digest::generic_array::GenericArray<u8, digest::typenum::UInt<digest::typenum::UInt<digest::typenum::UInt<digest::typenum::UInt<digest::typenum::UInt<digest::typenum::UInt<digest::typenum::UInt<digest::typenum::UTerm, digest::typenum::B1>, digest::typenum::B0>, digest::typenum::B0>, digest::typenum::B0>, digest::typenum::B0>, digest::typenum::B0>, digest::typenum::B0>>"]* nonnull align 1 %self.0, i64 %self.1) unnamed_addr #0 !dbg !1112 {
start:
  %self.dbg.spill = alloca { [0 x %"digest::generic_array::GenericArray<u8, digest::typenum::UInt<digest::typenum::UInt<digest::typenum::UInt<digest::typenum::UInt<digest::typenum::UInt<digest::typenum::UInt<digest::typenum::UInt<digest::typenum::UTerm, digest::typenum::B1>, digest::typenum::B0>, digest::typenum::B0>, digest::typenum::B0>, digest::typenum::B0>, digest::typenum::B0>, digest::typenum::B0>>"]*, i64 }, align 8
  %0 = getelementptr inbounds { [0 x %"digest::generic_array::GenericArray<u8, digest::typenum::UInt<digest::typenum::UInt<digest::typenum::UInt<digest::typenum::UInt<digest::typenum::UInt<digest::typenum::UInt<digest::typenum::UInt<digest::typenum::UTerm, digest::typenum::B1>, digest::typenum::B0>, digest::typenum::B0>, digest::typenum::B0>, digest::typenum::B0>, digest::typenum::B0>, digest::typenum::B0>>"]*, i64 }, { [0 x %"digest::generic_array::GenericArray<u8, digest::typenum::UInt<digest::typenum::UInt<digest::typenum::UInt<digest::typenum::UInt<digest::typenum::UInt<digest::typenum::UInt<digest::typenum::UInt<digest::typenum::UTerm, digest::typenum::B1>, digest::typenum::B0>, digest::typenum::B0>, digest::typenum::B0>, digest::typenum::B0>, digest::typenum::B0>, digest::typenum::B0>>"]*, i64 }* %self.dbg.spill, i32 0, i32 0
  store [0 x %"digest::generic_array::GenericArray<u8, digest::typenum::UInt<digest::typenum::UInt<digest::typenum::UInt<digest::typenum::UInt<digest::typenum::UInt<digest::typenum::UInt<digest::typenum::UInt<digest::typenum::UTerm, digest::typenum::B1>, digest::typenum::B0>, digest::typenum::B0>, digest::typenum::B0>, digest::typenum::B0>, digest::typenum::B0>, digest::typenum::B0>>"]* %self.0, [0 x %"digest::generic_array::GenericArray<u8, digest::typenum::UInt<digest::typenum::UInt<digest::typenum::UInt<digest::typenum::UInt<digest::typenum::UInt<digest::typenum::UInt<digest::typenum::UInt<digest::typenum::UTerm, digest::typenum::B1>, digest::typenum::B0>, digest::typenum::B0>, digest::typenum::B0>, digest::typenum::B0>, digest::typenum::B0>, digest::typenum::B0>>"]** %0, align 8
  %1 = getelementptr inbounds { [0 x %"digest::generic_array::GenericArray<u8, digest::typenum::UInt<digest::typenum::UInt<digest::typenum::UInt<digest::typenum::UInt<digest::typenum::UInt<digest::typenum::UInt<digest::typenum::UInt<digest::typenum::UTerm, digest::typenum::B1>, digest::typenum::B0>, digest::typenum::B0>, digest::typenum::B0>, digest::typenum::B0>, digest::typenum::B0>, digest::typenum::B0>>"]*, i64 }, { [0 x %"digest::generic_array::GenericArray<u8, digest::typenum::UInt<digest::typenum::UInt<digest::typenum::UInt<digest::typenum::UInt<digest::typenum::UInt<digest::typenum::UInt<digest::typenum::UInt<digest::typenum::UTerm, digest::typenum::B1>, digest::typenum::B0>, digest::typenum::B0>, digest::typenum::B0>, digest::typenum::B0>, digest::typenum::B0>, digest::typenum::B0>>"]*, i64 }* %self.dbg.spill, i32 0, i32 1
  store i64 %self.1, i64* %1, align 8
  call void @llvm.dbg.declare(metadata { [0 x %"digest::generic_array::GenericArray<u8, digest::typenum::UInt<digest::typenum::UInt<digest::typenum::UInt<digest::typenum::UInt<digest::typenum::UInt<digest::typenum::UInt<digest::typenum::UInt<digest::typenum::UTerm, digest::typenum::B1>, digest::typenum::B0>, digest::typenum::B0>, digest::typenum::B0>, digest::typenum::B0>, digest::typenum::B0>, digest::typenum::B0>>"]*, i64 }* %self.dbg.spill, metadata !1230, metadata !DIExpression()), !dbg !1233
  %2 = bitcast [0 x %"digest::generic_array::GenericArray<u8, digest::typenum::UInt<digest::typenum::UInt<digest::typenum::UInt<digest::typenum::UInt<digest::typenum::UInt<digest::typenum::UInt<digest::typenum::UInt<digest::typenum::UTerm, digest::typenum::B1>, digest::typenum::B0>, digest::typenum::B0>, digest::typenum::B0>, digest::typenum::B0>, digest::typenum::B0>, digest::typenum::B0>>"]* %self.0 to %"digest::generic_array::GenericArray<u8, digest::typenum::UInt<digest::typenum::UInt<digest::typenum::UInt<digest::typenum::UInt<digest::typenum::UInt<digest::typenum::UInt<digest::typenum::UInt<digest::typenum::UTerm, digest::typenum::B1>, digest::typenum::B0>, digest::typenum::B0>, digest::typenum::B0>, digest::typenum::B0>, digest::typenum::B0>, digest::typenum::B0>>"*, !dbg !1234
  ret %"digest::generic_array::GenericArray<u8, digest::typenum::UInt<digest::typenum::UInt<digest::typenum::UInt<digest::typenum::UInt<digest::typenum::UInt<digest::typenum::UInt<digest::typenum::UInt<digest::typenum::UTerm, digest::typenum::B1>, digest::typenum::B0>, digest::typenum::B0>, digest::typenum::B0>, digest::typenum::B0>, digest::typenum::B0>, digest::typenum::B0>>"* %2, !dbg !1235
}

; core::slice::<impl [T]>::as_ptr
; Function Attrs: inlinehint nounwind
define [64 x i8]* @"_ZN4core5slice29_$LT$impl$u20$$u5b$T$u5d$$GT$6as_ptr17h1a7eaa8b4b0aab48E"([0 x [64 x i8]]* nonnull align 1 %self.0, i64 %self.1) unnamed_addr #0 !dbg !1236 {
start:
  %self.dbg.spill = alloca { [0 x [64 x i8]]*, i64 }, align 8
  %0 = getelementptr inbounds { [0 x [64 x i8]]*, i64 }, { [0 x [64 x i8]]*, i64 }* %self.dbg.spill, i32 0, i32 0
  store [0 x [64 x i8]]* %self.0, [0 x [64 x i8]]** %0, align 8
  %1 = getelementptr inbounds { [0 x [64 x i8]]*, i64 }, { [0 x [64 x i8]]*, i64 }* %self.dbg.spill, i32 0, i32 1
  store i64 %self.1, i64* %1, align 8
  call void @llvm.dbg.declare(metadata { [0 x [64 x i8]]*, i64 }* %self.dbg.spill, metadata !1240, metadata !DIExpression()), !dbg !1241
  %2 = bitcast [0 x [64 x i8]]* %self.0 to [64 x i8]*, !dbg !1242
  ret [64 x i8]* %2, !dbg !1243
}

; core::slice::<impl [T]>::as_ptr
; Function Attrs: inlinehint nounwind
define [128 x i8]* @"_ZN4core5slice29_$LT$impl$u20$$u5b$T$u5d$$GT$6as_ptr17haecf73470f9b3f8eE"([0 x [128 x i8]]* nonnull align 1 %self.0, i64 %self.1) unnamed_addr #0 !dbg !1244 {
start:
  %self.dbg.spill = alloca { [0 x [128 x i8]]*, i64 }, align 8
  %0 = getelementptr inbounds { [0 x [128 x i8]]*, i64 }, { [0 x [128 x i8]]*, i64 }* %self.dbg.spill, i32 0, i32 0
  store [0 x [128 x i8]]* %self.0, [0 x [128 x i8]]** %0, align 8
  %1 = getelementptr inbounds { [0 x [128 x i8]]*, i64 }, { [0 x [128 x i8]]*, i64 }* %self.dbg.spill, i32 0, i32 1
  store i64 %self.1, i64* %1, align 8
  call void @llvm.dbg.declare(metadata { [0 x [128 x i8]]*, i64 }* %self.dbg.spill, metadata !1248, metadata !DIExpression()), !dbg !1249
  %2 = bitcast [0 x [128 x i8]]* %self.0 to [128 x i8]*, !dbg !1250
  ret [128 x i8]* %2, !dbg !1251
}

; core::slice::<impl [T]>::as_ptr
; Function Attrs: inlinehint nounwind
define %"digest::generic_array::GenericArray<u8, digest::typenum::UInt<digest::typenum::UInt<digest::typenum::UInt<digest::typenum::UInt<digest::typenum::UInt<digest::typenum::UInt<digest::typenum::UInt<digest::typenum::UInt<digest::typenum::UTerm, digest::typenum::B1>, digest::typenum::B0>, digest::typenum::B0>, digest::typenum::B0>, digest::typenum::B0>, digest::typenum::B0>, digest::typenum::B0>, digest::typenum::B0>>"* @"_ZN4core5slice29_$LT$impl$u20$$u5b$T$u5d$$GT$6as_ptr17hf54917818b21d4b0E"([0 x %"digest::generic_array::GenericArray<u8, digest::typenum::UInt<digest::typenum::UInt<digest::typenum::UInt<digest::typenum::UInt<digest::typenum::UInt<digest::typenum::UInt<digest::typenum::UInt<digest::typenum::UInt<digest::typenum::UTerm, digest::typenum::B1>, digest::typenum::B0>, digest::typenum::B0>, digest::typenum::B0>, digest::typenum::B0>, digest::typenum::B0>, digest::typenum::B0>, digest::typenum::B0>>"]* nonnull align 1 %self.0, i64 %self.1) unnamed_addr #0 !dbg !1252 {
start:
  %self.dbg.spill = alloca { [0 x %"digest::generic_array::GenericArray<u8, digest::typenum::UInt<digest::typenum::UInt<digest::typenum::UInt<digest::typenum::UInt<digest::typenum::UInt<digest::typenum::UInt<digest::typenum::UInt<digest::typenum::UInt<digest::typenum::UTerm, digest::typenum::B1>, digest::typenum::B0>, digest::typenum::B0>, digest::typenum::B0>, digest::typenum::B0>, digest::typenum::B0>, digest::typenum::B0>, digest::typenum::B0>>"]*, i64 }, align 8
  %0 = getelementptr inbounds { [0 x %"digest::generic_array::GenericArray<u8, digest::typenum::UInt<digest::typenum::UInt<digest::typenum::UInt<digest::typenum::UInt<digest::typenum::UInt<digest::typenum::UInt<digest::typenum::UInt<digest::typenum::UInt<digest::typenum::UTerm, digest::typenum::B1>, digest::typenum::B0>, digest::typenum::B0>, digest::typenum::B0>, digest::typenum::B0>, digest::typenum::B0>, digest::typenum::B0>, digest::typenum::B0>>"]*, i64 }, { [0 x %"digest::generic_array::GenericArray<u8, digest::typenum::UInt<digest::typenum::UInt<digest::typenum::UInt<digest::typenum::UInt<digest::typenum::UInt<digest::typenum::UInt<digest::typenum::UInt<digest::typenum::UInt<digest::typenum::UTerm, digest::typenum::B1>, digest::typenum::B0>, digest::typenum::B0>, digest::typenum::B0>, digest::typenum::B0>, digest::typenum::B0>, digest::typenum::B0>, digest::typenum::B0>>"]*, i64 }* %self.dbg.spill, i32 0, i32 0
  store [0 x %"digest::generic_array::GenericArray<u8, digest::typenum::UInt<digest::typenum::UInt<digest::typenum::UInt<digest::typenum::UInt<digest::typenum::UInt<digest::typenum::UInt<digest::typenum::UInt<digest::typenum::UInt<digest::typenum::UTerm, digest::typenum::B1>, digest::typenum::B0>, digest::typenum::B0>, digest::typenum::B0>, digest::typenum::B0>, digest::typenum::B0>, digest::typenum::B0>, digest::typenum::B0>>"]* %self.0, [0 x %"digest::generic_array::GenericArray<u8, digest::typenum::UInt<digest::typenum::UInt<digest::typenum::UInt<digest::typenum::UInt<digest::typenum::UInt<digest::typenum::UInt<digest::typenum::UInt<digest::typenum::UInt<digest::typenum::UTerm, digest::typenum::B1>, digest::typenum::B0>, digest::typenum::B0>, digest::typenum::B0>, digest::typenum::B0>, digest::typenum::B0>, digest::typenum::B0>, digest::typenum::B0>>"]** %0, align 8
  %1 = getelementptr inbounds { [0 x %"digest::generic_array::GenericArray<u8, digest::typenum::UInt<digest::typenum::UInt<digest::typenum::UInt<digest::typenum::UInt<digest::typenum::UInt<digest::typenum::UInt<digest::typenum::UInt<digest::typenum::UInt<digest::typenum::UTerm, digest::typenum::B1>, digest::typenum::B0>, digest::typenum::B0>, digest::typenum::B0>, digest::typenum::B0>, digest::typenum::B0>, digest::typenum::B0>, digest::typenum::B0>>"]*, i64 }, { [0 x %"digest::generic_array::GenericArray<u8, digest::typenum::UInt<digest::typenum::UInt<digest::typenum::UInt<digest::typenum::UInt<digest::typenum::UInt<digest::typenum::UInt<digest::typenum::UInt<digest::typenum::UInt<digest::typenum::UTerm, digest::typenum::B1>, digest::typenum::B0>, digest::typenum::B0>, digest::typenum::B0>, digest::typenum::B0>, digest::typenum::B0>, digest::typenum::B0>, digest::typenum::B0>>"]*, i64 }* %self.dbg.spill, i32 0, i32 1
  store i64 %self.1, i64* %1, align 8
  call void @llvm.dbg.declare(metadata { [0 x %"digest::generic_array::GenericArray<u8, digest::typenum::UInt<digest::typenum::UInt<digest::typenum::UInt<digest::typenum::UInt<digest::typenum::UInt<digest::typenum::UInt<digest::typenum::UInt<digest::typenum::UInt<digest::typenum::UTerm, digest::typenum::B1>, digest::typenum::B0>, digest::typenum::B0>, digest::typenum::B0>, digest::typenum::B0>, digest::typenum::B0>, digest::typenum::B0>, digest::typenum::B0>>"]*, i64 }* %self.dbg.spill, metadata !1278, metadata !DIExpression()), !dbg !1281
  %2 = bitcast [0 x %"digest::generic_array::GenericArray<u8, digest::typenum::UInt<digest::typenum::UInt<digest::typenum::UInt<digest::typenum::UInt<digest::typenum::UInt<digest::typenum::UInt<digest::typenum::UInt<digest::typenum::UInt<digest::typenum::UTerm, digest::typenum::B1>, digest::typenum::B0>, digest::typenum::B0>, digest::typenum::B0>, digest::typenum::B0>, digest::typenum::B0>, digest::typenum::B0>, digest::typenum::B0>>"]* %self.0 to %"digest::generic_array::GenericArray<u8, digest::typenum::UInt<digest::typenum::UInt<digest::typenum::UInt<digest::typenum::UInt<digest::typenum::UInt<digest::typenum::UInt<digest::typenum::UInt<digest::typenum::UInt<digest::typenum::UTerm, digest::typenum::B1>, digest::typenum::B0>, digest::typenum::B0>, digest::typenum::B0>, digest::typenum::B0>, digest::typenum::B0>, digest::typenum::B0>, digest::typenum::B0>>"*, !dbg !1282
  ret %"digest::generic_array::GenericArray<u8, digest::typenum::UInt<digest::typenum::UInt<digest::typenum::UInt<digest::typenum::UInt<digest::typenum::UInt<digest::typenum::UInt<digest::typenum::UInt<digest::typenum::UInt<digest::typenum::UTerm, digest::typenum::B1>, digest::typenum::B0>, digest::typenum::B0>, digest::typenum::B0>, digest::typenum::B0>, digest::typenum::B0>, digest::typenum::B0>, digest::typenum::B0>>"* %2, !dbg !1283
}

; core::slice::<impl [T]>::iter_mut
; Function Attrs: inlinehint nounwind
define { i32*, i32* } @"_ZN4core5slice29_$LT$impl$u20$$u5b$T$u5d$$GT$8iter_mut17h46da4c6a21c116c9E"([0 x i32]* nonnull align 4 %self.0, i64 %self.1) unnamed_addr #0 !dbg !1284 {
start:
  %self.dbg.spill = alloca { [0 x i32]*, i64 }, align 8
  %0 = getelementptr inbounds { [0 x i32]*, i64 }, { [0 x i32]*, i64 }* %self.dbg.spill, i32 0, i32 0
  store [0 x i32]* %self.0, [0 x i32]** %0, align 8
  %1 = getelementptr inbounds { [0 x i32]*, i64 }, { [0 x i32]*, i64 }* %self.dbg.spill, i32 0, i32 1
  store i64 %self.1, i64* %1, align 8
  call void @llvm.dbg.declare(metadata { [0 x i32]*, i64 }* %self.dbg.spill, metadata !1288, metadata !DIExpression()), !dbg !1289
; call core::slice::iter::IterMut<T>::new
  %2 = call { i32*, i32* } @"_ZN4core5slice4iter16IterMut$LT$T$GT$3new17h8f21d4c7466f420fE"([0 x i32]* nonnull align 4 %self.0, i64 %self.1), !dbg !1290
  %3 = extractvalue { i32*, i32* } %2, 0, !dbg !1290
  %4 = extractvalue { i32*, i32* } %2, 1, !dbg !1290
  br label %bb1, !dbg !1290

bb1:                                              ; preds = %start
  %5 = insertvalue { i32*, i32* } undef, i32* %3, 0, !dbg !1291
  %6 = insertvalue { i32*, i32* } %5, i32* %4, 1, !dbg !1291
  ret { i32*, i32* } %6, !dbg !1291
}

; core::slice::<impl [T]>::iter_mut
; Function Attrs: inlinehint nounwind
define { i64*, i64* } @"_ZN4core5slice29_$LT$impl$u20$$u5b$T$u5d$$GT$8iter_mut17hec1531155abf9cb6E"([0 x i64]* nonnull align 8 %self.0, i64 %self.1) unnamed_addr #0 !dbg !1292 {
start:
  %self.dbg.spill = alloca { [0 x i64]*, i64 }, align 8
  %0 = getelementptr inbounds { [0 x i64]*, i64 }, { [0 x i64]*, i64 }* %self.dbg.spill, i32 0, i32 0
  store [0 x i64]* %self.0, [0 x i64]** %0, align 8
  %1 = getelementptr inbounds { [0 x i64]*, i64 }, { [0 x i64]*, i64 }* %self.dbg.spill, i32 0, i32 1
  store i64 %self.1, i64* %1, align 8
  call void @llvm.dbg.declare(metadata { [0 x i64]*, i64 }* %self.dbg.spill, metadata !1296, metadata !DIExpression()), !dbg !1297
; call core::slice::iter::IterMut<T>::new
  %2 = call { i64*, i64* } @"_ZN4core5slice4iter16IterMut$LT$T$GT$3new17h42ef8655fcab42ebE"([0 x i64]* nonnull align 8 %self.0, i64 %self.1), !dbg !1298
  %3 = extractvalue { i64*, i64* } %2, 0, !dbg !1298
  %4 = extractvalue { i64*, i64* } %2, 1, !dbg !1298
  br label %bb1, !dbg !1298

bb1:                                              ; preds = %start
  %5 = insertvalue { i64*, i64* } undef, i64* %3, 0, !dbg !1299
  %6 = insertvalue { i64*, i64* } %5, i64* %4, 1, !dbg !1299
  ret { i64*, i64* } %6, !dbg !1299
}

; core::slice::raw::from_raw_parts
; Function Attrs: inlinehint nounwind
define { [0 x [128 x i8]]*, i64 } @_ZN4core5slice3raw14from_raw_parts17h8f0b392d07ef02c9E([128 x i8]* %data, i64 %len) unnamed_addr #0 !dbg !1300 {
start:
  %len.dbg.spill = alloca i64, align 8
  %data.dbg.spill = alloca [128 x i8]*, align 8
  store [128 x i8]* %data, [128 x i8]** %data.dbg.spill, align 8
  call void @llvm.dbg.declare(metadata [128 x i8]** %data.dbg.spill, metadata !1306, metadata !DIExpression()), !dbg !1308
  store i64 %len, i64* %len.dbg.spill, align 8
  call void @llvm.dbg.declare(metadata i64* %len.dbg.spill, metadata !1307, metadata !DIExpression()), !dbg !1309
; call core::ptr::slice_from_raw_parts
  %0 = call { [0 x [128 x i8]]*, i64 } @_ZN4core3ptr20slice_from_raw_parts17h477414a20e6c5c3dE([128 x i8]* %data, i64 %len), !dbg !1310
  %_3.0 = extractvalue { [0 x [128 x i8]]*, i64 } %0, 0, !dbg !1310
  %_3.1 = extractvalue { [0 x [128 x i8]]*, i64 } %0, 1, !dbg !1310
  br label %bb1, !dbg !1310

bb1:                                              ; preds = %start
  %1 = insertvalue { [0 x [128 x i8]]*, i64 } undef, [0 x [128 x i8]]* %_3.0, 0, !dbg !1311
  %2 = insertvalue { [0 x [128 x i8]]*, i64 } %1, i64 %_3.1, 1, !dbg !1311
  ret { [0 x [128 x i8]]*, i64 } %2, !dbg !1311
}

; core::slice::raw::from_raw_parts
; Function Attrs: inlinehint nounwind
define { [0 x [64 x i8]]*, i64 } @_ZN4core5slice3raw14from_raw_parts17hdafe7d959f666e18E([64 x i8]* %data, i64 %len) unnamed_addr #0 !dbg !1312 {
start:
  %len.dbg.spill = alloca i64, align 8
  %data.dbg.spill = alloca [64 x i8]*, align 8
  store [64 x i8]* %data, [64 x i8]** %data.dbg.spill, align 8
  call void @llvm.dbg.declare(metadata [64 x i8]** %data.dbg.spill, metadata !1316, metadata !DIExpression()), !dbg !1318
  store i64 %len, i64* %len.dbg.spill, align 8
  call void @llvm.dbg.declare(metadata i64* %len.dbg.spill, metadata !1317, metadata !DIExpression()), !dbg !1319
; call core::ptr::slice_from_raw_parts
  %0 = call { [0 x [64 x i8]]*, i64 } @_ZN4core3ptr20slice_from_raw_parts17hd7585d0bcc5a67efE([64 x i8]* %data, i64 %len), !dbg !1320
  %_3.0 = extractvalue { [0 x [64 x i8]]*, i64 } %0, 0, !dbg !1320
  %_3.1 = extractvalue { [0 x [64 x i8]]*, i64 } %0, 1, !dbg !1320
  br label %bb1, !dbg !1320

bb1:                                              ; preds = %start
  %1 = insertvalue { [0 x [64 x i8]]*, i64 } undef, [0 x [64 x i8]]* %_3.0, 0, !dbg !1321
  %2 = insertvalue { [0 x [64 x i8]]*, i64 } %1, i64 %_3.1, 1, !dbg !1321
  ret { [0 x [64 x i8]]*, i64 } %2, !dbg !1321
}

; core::slice::iter::Iter<T>::new
; Function Attrs: inlinehint nounwind
define { i8*, i8* } @"_ZN4core5slice4iter13Iter$LT$T$GT$3new17h551c41d08172907aE"([0 x [128 x i8]]* nonnull align 1 %slice.0, i64 %slice.1) unnamed_addr #0 !dbg !1322 {
start:
  %0 = alloca [128 x i8]*, align 8
  %count.dbg.spill.i.i1 = alloca i64, align 8
  %self.dbg.spill.i.i2 = alloca [128 x i8]*, align 8
  %count.dbg.spill.i3 = alloca i64, align 8
  %self.dbg.spill.i4 = alloca [128 x i8]*, align 8
  %1 = alloca i8*, align 8
  %count.dbg.spill.i.i = alloca i64, align 8
  %self.dbg.spill.i.i = alloca i8*, align 8
  %count.dbg.spill.i = alloca i64, align 8
  %self.dbg.spill.i = alloca i8*, align 8
  %ptr.dbg.spill = alloca [128 x i8]*, align 8
  %slice.dbg.spill = alloca { [0 x [128 x i8]]*, i64 }, align 8
  %end = alloca [128 x i8]*, align 8
  %2 = alloca { i8*, i8* }, align 8
  %3 = getelementptr inbounds { [0 x [128 x i8]]*, i64 }, { [0 x [128 x i8]]*, i64 }* %slice.dbg.spill, i32 0, i32 0
  store [0 x [128 x i8]]* %slice.0, [0 x [128 x i8]]** %3, align 8
  %4 = getelementptr inbounds { [0 x [128 x i8]]*, i64 }, { [0 x [128 x i8]]*, i64 }* %slice.dbg.spill, i32 0, i32 1
  store i64 %slice.1, i64* %4, align 8
  call void @llvm.dbg.declare(metadata { [0 x [128 x i8]]*, i64 }* %slice.dbg.spill, metadata !1325, metadata !DIExpression()), !dbg !1330
  call void @llvm.dbg.declare(metadata [128 x i8]** %end, metadata !1328, metadata !DIExpression()), !dbg !1331
; call core::slice::<impl [T]>::as_ptr
  %ptr = call [128 x i8]* @"_ZN4core5slice29_$LT$impl$u20$$u5b$T$u5d$$GT$6as_ptr17haecf73470f9b3f8eE"([0 x [128 x i8]]* nonnull align 1 %slice.0, i64 %slice.1), !dbg !1332
  store [128 x i8]* %ptr, [128 x i8]** %ptr.dbg.spill, align 8, !dbg !1332
  call void @llvm.dbg.declare(metadata [128 x i8]** %ptr.dbg.spill, metadata !1326, metadata !DIExpression()), !dbg !1333
  br label %bb1, !dbg !1332

bb1:                                              ; preds = %start
; call core::ptr::const_ptr::<impl *const T>::is_null
  %_6 = call zeroext i1 @"_ZN4core3ptr9const_ptr33_$LT$impl$u20$$BP$const$u20$T$GT$7is_null17h2c070e7d49af0f0bE"([128 x i8]* %ptr), !dbg !1334
  br label %bb2, !dbg !1334

bb2:                                              ; preds = %bb1
  %_5 = xor i1 %_6, true, !dbg !1335
  call void @llvm.assume(i1 %_5), !dbg !1336
  br label %bb3, !dbg !1336

bb3:                                              ; preds = %bb2
  br label %bb4, !dbg !1337

bb4:                                              ; preds = %bb3
  %5 = icmp eq i64 128, 0, !dbg !1337
  br i1 %5, label %bb5, label %bb7, !dbg !1337

bb5:                                              ; preds = %bb4
  %_11 = bitcast [128 x i8]* %ptr to i8*, !dbg !1338
  store i8* %_11, i8** %self.dbg.spill.i, align 8
  call void @llvm.dbg.declare(metadata i8** %self.dbg.spill.i, metadata !1339, metadata !DIExpression()), !dbg !1345
  store i64 %slice.1, i64* %count.dbg.spill.i, align 8
  call void @llvm.dbg.declare(metadata i64* %count.dbg.spill.i, metadata !1344, metadata !DIExpression()), !dbg !1347
  store i8* %_11, i8** %self.dbg.spill.i.i, align 8
  call void @llvm.dbg.declare(metadata i8** %self.dbg.spill.i.i, metadata !1348, metadata !DIExpression()), !dbg !1355
  store i64 %slice.1, i64* %count.dbg.spill.i.i, align 8
  call void @llvm.dbg.declare(metadata i64* %count.dbg.spill.i.i, metadata !1354, metadata !DIExpression()), !dbg !1357
  %6 = getelementptr i8, i8* %_11, i64 %slice.1, !dbg !1358
  store i8* %6, i8** %1, align 8, !dbg !1358
  %7 = load i8*, i8** %1, align 8, !dbg !1358
  br label %bb6, !dbg !1338

bb7:                                              ; preds = %bb4
  store [128 x i8]* %ptr, [128 x i8]** %self.dbg.spill.i4, align 8
  call void @llvm.dbg.declare(metadata [128 x i8]** %self.dbg.spill.i4, metadata !1359, metadata !DIExpression()), !dbg !1365
  store i64 %slice.1, i64* %count.dbg.spill.i3, align 8
  call void @llvm.dbg.declare(metadata i64* %count.dbg.spill.i3, metadata !1364, metadata !DIExpression()), !dbg !1367
  store [128 x i8]* %ptr, [128 x i8]** %self.dbg.spill.i.i2, align 8
  call void @llvm.dbg.declare(metadata [128 x i8]** %self.dbg.spill.i.i2, metadata !1368, metadata !DIExpression()), !dbg !1374
  store i64 %slice.1, i64* %count.dbg.spill.i.i1, align 8
  call void @llvm.dbg.declare(metadata i64* %count.dbg.spill.i.i1, metadata !1373, metadata !DIExpression()), !dbg !1376
  %8 = getelementptr inbounds [128 x i8], [128 x i8]* %ptr, i64 %slice.1, !dbg !1377
  store [128 x i8]* %8, [128 x i8]** %0, align 8, !dbg !1377
  %9 = load [128 x i8]*, [128 x i8]** %0, align 8, !dbg !1377
  store [128 x i8]* %9, [128 x i8]** %end, align 8, !dbg !1378
  br label %bb8, !dbg !1378

bb8:                                              ; preds = %bb7
  br label %bb9, !dbg !1379

bb9:                                              ; preds = %bb6, %bb8
; call core::ptr::non_null::NonNull<T>::new_unchecked
  %_18 = call nonnull i8* @"_ZN4core3ptr8non_null16NonNull$LT$T$GT$13new_unchecked17hc858cda088052a62E"([128 x i8]* %ptr), !dbg !1380
  br label %bb10, !dbg !1380

bb6:                                              ; preds = %bb5
  %10 = bitcast i8* %7 to [128 x i8]*, !dbg !1338
  store [128 x i8]* %10, [128 x i8]** %end, align 8, !dbg !1338
  br label %bb9, !dbg !1379

bb10:                                             ; preds = %bb9
  %_21 = load [128 x i8]*, [128 x i8]** %end, align 8, !dbg !1381
  %11 = bitcast { i8*, i8* }* %2 to i8**, !dbg !1382
  store i8* %_18, i8** %11, align 8, !dbg !1382
  %12 = getelementptr inbounds { i8*, i8* }, { i8*, i8* }* %2, i32 0, i32 1, !dbg !1382
  %13 = bitcast i8** %12 to [128 x i8]**, !dbg !1382
  store [128 x i8]* %_21, [128 x i8]** %13, align 8, !dbg !1382
  %14 = getelementptr inbounds { i8*, i8* }, { i8*, i8* }* %2, i32 0, i32 0, !dbg !1383
  %15 = load i8*, i8** %14, align 8, !dbg !1383, !nonnull !4
  %16 = getelementptr inbounds { i8*, i8* }, { i8*, i8* }* %2, i32 0, i32 1, !dbg !1383
  %17 = load i8*, i8** %16, align 8, !dbg !1383
  %18 = insertvalue { i8*, i8* } undef, i8* %15, 0, !dbg !1383
  %19 = insertvalue { i8*, i8* } %18, i8* %17, 1, !dbg !1383
  ret { i8*, i8* } %19, !dbg !1383
}

; core::slice::iter::Iter<T>::new
; Function Attrs: inlinehint nounwind
define { i8*, i8* } @"_ZN4core5slice4iter13Iter$LT$T$GT$3new17hc6bc46234e8ce168E"([0 x [64 x i8]]* nonnull align 1 %slice.0, i64 %slice.1) unnamed_addr #0 !dbg !1384 {
start:
  %0 = alloca [64 x i8]*, align 8
  %count.dbg.spill.i.i1 = alloca i64, align 8
  %self.dbg.spill.i.i2 = alloca [64 x i8]*, align 8
  %count.dbg.spill.i3 = alloca i64, align 8
  %self.dbg.spill.i4 = alloca [64 x i8]*, align 8
  %1 = alloca i8*, align 8
  %count.dbg.spill.i.i = alloca i64, align 8
  %self.dbg.spill.i.i = alloca i8*, align 8
  %count.dbg.spill.i = alloca i64, align 8
  %self.dbg.spill.i = alloca i8*, align 8
  %ptr.dbg.spill = alloca [64 x i8]*, align 8
  %slice.dbg.spill = alloca { [0 x [64 x i8]]*, i64 }, align 8
  %end = alloca [64 x i8]*, align 8
  %2 = alloca { i8*, i8* }, align 8
  %3 = getelementptr inbounds { [0 x [64 x i8]]*, i64 }, { [0 x [64 x i8]]*, i64 }* %slice.dbg.spill, i32 0, i32 0
  store [0 x [64 x i8]]* %slice.0, [0 x [64 x i8]]** %3, align 8
  %4 = getelementptr inbounds { [0 x [64 x i8]]*, i64 }, { [0 x [64 x i8]]*, i64 }* %slice.dbg.spill, i32 0, i32 1
  store i64 %slice.1, i64* %4, align 8
  call void @llvm.dbg.declare(metadata { [0 x [64 x i8]]*, i64 }* %slice.dbg.spill, metadata !1386, metadata !DIExpression()), !dbg !1391
  call void @llvm.dbg.declare(metadata [64 x i8]** %end, metadata !1389, metadata !DIExpression()), !dbg !1392
; call core::slice::<impl [T]>::as_ptr
  %ptr = call [64 x i8]* @"_ZN4core5slice29_$LT$impl$u20$$u5b$T$u5d$$GT$6as_ptr17h1a7eaa8b4b0aab48E"([0 x [64 x i8]]* nonnull align 1 %slice.0, i64 %slice.1), !dbg !1393
  store [64 x i8]* %ptr, [64 x i8]** %ptr.dbg.spill, align 8, !dbg !1393
  call void @llvm.dbg.declare(metadata [64 x i8]** %ptr.dbg.spill, metadata !1387, metadata !DIExpression()), !dbg !1394
  br label %bb1, !dbg !1393

bb1:                                              ; preds = %start
; call core::ptr::const_ptr::<impl *const T>::is_null
  %_6 = call zeroext i1 @"_ZN4core3ptr9const_ptr33_$LT$impl$u20$$BP$const$u20$T$GT$7is_null17h1f1aa348791df014E"([64 x i8]* %ptr), !dbg !1395
  br label %bb2, !dbg !1395

bb2:                                              ; preds = %bb1
  %_5 = xor i1 %_6, true, !dbg !1396
  call void @llvm.assume(i1 %_5), !dbg !1397
  br label %bb3, !dbg !1397

bb3:                                              ; preds = %bb2
  br label %bb4, !dbg !1398

bb4:                                              ; preds = %bb3
  %5 = icmp eq i64 64, 0, !dbg !1398
  br i1 %5, label %bb5, label %bb7, !dbg !1398

bb5:                                              ; preds = %bb4
  %_11 = bitcast [64 x i8]* %ptr to i8*, !dbg !1399
  store i8* %_11, i8** %self.dbg.spill.i, align 8
  call void @llvm.dbg.declare(metadata i8** %self.dbg.spill.i, metadata !1339, metadata !DIExpression()), !dbg !1400
  store i64 %slice.1, i64* %count.dbg.spill.i, align 8
  call void @llvm.dbg.declare(metadata i64* %count.dbg.spill.i, metadata !1344, metadata !DIExpression()), !dbg !1402
  store i8* %_11, i8** %self.dbg.spill.i.i, align 8
  call void @llvm.dbg.declare(metadata i8** %self.dbg.spill.i.i, metadata !1348, metadata !DIExpression()), !dbg !1403
  store i64 %slice.1, i64* %count.dbg.spill.i.i, align 8
  call void @llvm.dbg.declare(metadata i64* %count.dbg.spill.i.i, metadata !1354, metadata !DIExpression()), !dbg !1405
  %6 = getelementptr i8, i8* %_11, i64 %slice.1, !dbg !1406
  store i8* %6, i8** %1, align 8, !dbg !1406
  %7 = load i8*, i8** %1, align 8, !dbg !1406
  br label %bb6, !dbg !1399

bb7:                                              ; preds = %bb4
  store [64 x i8]* %ptr, [64 x i8]** %self.dbg.spill.i4, align 8
  call void @llvm.dbg.declare(metadata [64 x i8]** %self.dbg.spill.i4, metadata !1407, metadata !DIExpression()), !dbg !1413
  store i64 %slice.1, i64* %count.dbg.spill.i3, align 8
  call void @llvm.dbg.declare(metadata i64* %count.dbg.spill.i3, metadata !1412, metadata !DIExpression()), !dbg !1415
  store [64 x i8]* %ptr, [64 x i8]** %self.dbg.spill.i.i2, align 8
  call void @llvm.dbg.declare(metadata [64 x i8]** %self.dbg.spill.i.i2, metadata !1416, metadata !DIExpression()), !dbg !1422
  store i64 %slice.1, i64* %count.dbg.spill.i.i1, align 8
  call void @llvm.dbg.declare(metadata i64* %count.dbg.spill.i.i1, metadata !1421, metadata !DIExpression()), !dbg !1424
  %8 = getelementptr inbounds [64 x i8], [64 x i8]* %ptr, i64 %slice.1, !dbg !1425
  store [64 x i8]* %8, [64 x i8]** %0, align 8, !dbg !1425
  %9 = load [64 x i8]*, [64 x i8]** %0, align 8, !dbg !1425
  store [64 x i8]* %9, [64 x i8]** %end, align 8, !dbg !1426
  br label %bb8, !dbg !1426

bb8:                                              ; preds = %bb7
  br label %bb9, !dbg !1427

bb9:                                              ; preds = %bb6, %bb8
; call core::ptr::non_null::NonNull<T>::new_unchecked
  %_18 = call nonnull i8* @"_ZN4core3ptr8non_null16NonNull$LT$T$GT$13new_unchecked17h534ecdb4b66e2b94E"([64 x i8]* %ptr), !dbg !1428
  br label %bb10, !dbg !1428

bb6:                                              ; preds = %bb5
  %10 = bitcast i8* %7 to [64 x i8]*, !dbg !1399
  store [64 x i8]* %10, [64 x i8]** %end, align 8, !dbg !1399
  br label %bb9, !dbg !1427

bb10:                                             ; preds = %bb9
  %_21 = load [64 x i8]*, [64 x i8]** %end, align 8, !dbg !1429
  %11 = bitcast { i8*, i8* }* %2 to i8**, !dbg !1430
  store i8* %_18, i8** %11, align 8, !dbg !1430
  %12 = getelementptr inbounds { i8*, i8* }, { i8*, i8* }* %2, i32 0, i32 1, !dbg !1430
  %13 = bitcast i8** %12 to [64 x i8]**, !dbg !1430
  store [64 x i8]* %_21, [64 x i8]** %13, align 8, !dbg !1430
  %14 = getelementptr inbounds { i8*, i8* }, { i8*, i8* }* %2, i32 0, i32 0, !dbg !1431
  %15 = load i8*, i8** %14, align 8, !dbg !1431, !nonnull !4
  %16 = getelementptr inbounds { i8*, i8* }, { i8*, i8* }* %2, i32 0, i32 1, !dbg !1431
  %17 = load i8*, i8** %16, align 8, !dbg !1431
  %18 = insertvalue { i8*, i8* } undef, i8* %15, 0, !dbg !1431
  %19 = insertvalue { i8*, i8* } %18, i8* %17, 1, !dbg !1431
  ret { i8*, i8* } %19, !dbg !1431
}

; core::slice::iter::IterMut<T>::new
; Function Attrs: inlinehint nounwind
define { i64*, i64* } @"_ZN4core5slice4iter16IterMut$LT$T$GT$3new17h42ef8655fcab42ebE"([0 x i64]* nonnull align 8 %slice.0, i64 %slice.1) unnamed_addr #0 !dbg !1432 {
start:
  %0 = alloca i64*, align 8
  %count.dbg.spill.i.i1 = alloca i64, align 8
  %self.dbg.spill.i.i2 = alloca i64*, align 8
  %count.dbg.spill.i3 = alloca i64, align 8
  %self.dbg.spill.i4 = alloca i64*, align 8
  %1 = alloca i8*, align 8
  %count.dbg.spill.i.i = alloca i64, align 8
  %self.dbg.spill.i.i = alloca i8*, align 8
  %count.dbg.spill.i = alloca i64, align 8
  %self.dbg.spill.i = alloca i8*, align 8
  %ptr.dbg.spill = alloca i64*, align 8
  %slice.dbg.spill = alloca { [0 x i64]*, i64 }, align 8
  %end = alloca i64*, align 8
  %2 = alloca { i64*, i64* }, align 8
  %3 = getelementptr inbounds { [0 x i64]*, i64 }, { [0 x i64]*, i64 }* %slice.dbg.spill, i32 0, i32 0
  store [0 x i64]* %slice.0, [0 x i64]** %3, align 8
  %4 = getelementptr inbounds { [0 x i64]*, i64 }, { [0 x i64]*, i64 }* %slice.dbg.spill, i32 0, i32 1
  store i64 %slice.1, i64* %4, align 8
  call void @llvm.dbg.declare(metadata { [0 x i64]*, i64 }* %slice.dbg.spill, metadata !1434, metadata !DIExpression()), !dbg !1439
  call void @llvm.dbg.declare(metadata i64** %end, metadata !1437, metadata !DIExpression()), !dbg !1440
; call core::slice::<impl [T]>::as_mut_ptr
  %ptr = call i64* @"_ZN4core5slice29_$LT$impl$u20$$u5b$T$u5d$$GT$10as_mut_ptr17h35b6aed2f583f0e9E"([0 x i64]* nonnull align 8 %slice.0, i64 %slice.1), !dbg !1441
  store i64* %ptr, i64** %ptr.dbg.spill, align 8, !dbg !1441
  call void @llvm.dbg.declare(metadata i64** %ptr.dbg.spill, metadata !1435, metadata !DIExpression()), !dbg !1442
  br label %bb1, !dbg !1441

bb1:                                              ; preds = %start
; call core::ptr::mut_ptr::<impl *mut T>::is_null
  %_6 = call zeroext i1 @"_ZN4core3ptr7mut_ptr31_$LT$impl$u20$$BP$mut$u20$T$GT$7is_null17h176bbb30a2a11341E"(i64* %ptr), !dbg !1443
  br label %bb2, !dbg !1443

bb2:                                              ; preds = %bb1
  %_5 = xor i1 %_6, true, !dbg !1444
  call void @llvm.assume(i1 %_5), !dbg !1445
  br label %bb3, !dbg !1445

bb3:                                              ; preds = %bb2
  br label %bb4, !dbg !1446

bb4:                                              ; preds = %bb3
  %5 = icmp eq i64 8, 0, !dbg !1446
  br i1 %5, label %bb5, label %bb7, !dbg !1446

bb5:                                              ; preds = %bb4
  %_11 = bitcast i64* %ptr to i8*, !dbg !1447
  store i8* %_11, i8** %self.dbg.spill.i, align 8
  call void @llvm.dbg.declare(metadata i8** %self.dbg.spill.i, metadata !1448, metadata !DIExpression()), !dbg !1454
  store i64 %slice.1, i64* %count.dbg.spill.i, align 8
  call void @llvm.dbg.declare(metadata i64* %count.dbg.spill.i, metadata !1453, metadata !DIExpression()), !dbg !1456
  store i8* %_11, i8** %self.dbg.spill.i.i, align 8
  call void @llvm.dbg.declare(metadata i8** %self.dbg.spill.i.i, metadata !1457, metadata !DIExpression()), !dbg !1463
  store i64 %slice.1, i64* %count.dbg.spill.i.i, align 8
  call void @llvm.dbg.declare(metadata i64* %count.dbg.spill.i.i, metadata !1462, metadata !DIExpression()), !dbg !1465
  %6 = getelementptr i8, i8* %_11, i64 %slice.1, !dbg !1466
  store i8* %6, i8** %1, align 8, !dbg !1466
  %_3.i.i = load i8*, i8** %1, align 8, !dbg !1466
  br label %bb6, !dbg !1447

bb7:                                              ; preds = %bb4
  store i64* %ptr, i64** %self.dbg.spill.i4, align 8
  call void @llvm.dbg.declare(metadata i64** %self.dbg.spill.i4, metadata !1467, metadata !DIExpression()), !dbg !1473
  store i64 %slice.1, i64* %count.dbg.spill.i3, align 8
  call void @llvm.dbg.declare(metadata i64* %count.dbg.spill.i3, metadata !1472, metadata !DIExpression()), !dbg !1475
  store i64* %ptr, i64** %self.dbg.spill.i.i2, align 8
  call void @llvm.dbg.declare(metadata i64** %self.dbg.spill.i.i2, metadata !1476, metadata !DIExpression()), !dbg !1482
  store i64 %slice.1, i64* %count.dbg.spill.i.i1, align 8
  call void @llvm.dbg.declare(metadata i64* %count.dbg.spill.i.i1, metadata !1481, metadata !DIExpression()), !dbg !1484
  %7 = getelementptr inbounds i64, i64* %ptr, i64 %slice.1, !dbg !1485
  store i64* %7, i64** %0, align 8, !dbg !1485
  %_3.i.i5 = load i64*, i64** %0, align 8, !dbg !1485
  store i64* %_3.i.i5, i64** %end, align 8, !dbg !1486
  br label %bb8, !dbg !1486

bb8:                                              ; preds = %bb7
  br label %bb9, !dbg !1487

bb9:                                              ; preds = %bb6, %bb8
; call core::ptr::non_null::NonNull<T>::new_unchecked
  %_18 = call nonnull i64* @"_ZN4core3ptr8non_null16NonNull$LT$T$GT$13new_unchecked17hef2be1c69ac5455bE"(i64* %ptr), !dbg !1488
  br label %bb10, !dbg !1488

bb6:                                              ; preds = %bb5
  %8 = bitcast i8* %_3.i.i to i64*, !dbg !1447
  store i64* %8, i64** %end, align 8, !dbg !1447
  br label %bb9, !dbg !1487

bb10:                                             ; preds = %bb9
  %_20 = load i64*, i64** %end, align 8, !dbg !1489
  %9 = bitcast { i64*, i64* }* %2 to i64**, !dbg !1490
  store i64* %_18, i64** %9, align 8, !dbg !1490
  %10 = getelementptr inbounds { i64*, i64* }, { i64*, i64* }* %2, i32 0, i32 1, !dbg !1490
  store i64* %_20, i64** %10, align 8, !dbg !1490
  %11 = getelementptr inbounds { i64*, i64* }, { i64*, i64* }* %2, i32 0, i32 0, !dbg !1491
  %12 = load i64*, i64** %11, align 8, !dbg !1491, !nonnull !4
  %13 = getelementptr inbounds { i64*, i64* }, { i64*, i64* }* %2, i32 0, i32 1, !dbg !1491
  %14 = load i64*, i64** %13, align 8, !dbg !1491
  %15 = insertvalue { i64*, i64* } undef, i64* %12, 0, !dbg !1491
  %16 = insertvalue { i64*, i64* } %15, i64* %14, 1, !dbg !1491
  ret { i64*, i64* } %16, !dbg !1491
}

; core::slice::iter::IterMut<T>::new
; Function Attrs: inlinehint nounwind
define { i32*, i32* } @"_ZN4core5slice4iter16IterMut$LT$T$GT$3new17h8f21d4c7466f420fE"([0 x i32]* nonnull align 4 %slice.0, i64 %slice.1) unnamed_addr #0 !dbg !1492 {
start:
  %0 = alloca i32*, align 8
  %count.dbg.spill.i.i1 = alloca i64, align 8
  %self.dbg.spill.i.i2 = alloca i32*, align 8
  %count.dbg.spill.i3 = alloca i64, align 8
  %self.dbg.spill.i4 = alloca i32*, align 8
  %1 = alloca i8*, align 8
  %count.dbg.spill.i.i = alloca i64, align 8
  %self.dbg.spill.i.i = alloca i8*, align 8
  %count.dbg.spill.i = alloca i64, align 8
  %self.dbg.spill.i = alloca i8*, align 8
  %ptr.dbg.spill = alloca i32*, align 8
  %slice.dbg.spill = alloca { [0 x i32]*, i64 }, align 8
  %end = alloca i32*, align 8
  %2 = alloca { i32*, i32* }, align 8
  %3 = getelementptr inbounds { [0 x i32]*, i64 }, { [0 x i32]*, i64 }* %slice.dbg.spill, i32 0, i32 0
  store [0 x i32]* %slice.0, [0 x i32]** %3, align 8
  %4 = getelementptr inbounds { [0 x i32]*, i64 }, { [0 x i32]*, i64 }* %slice.dbg.spill, i32 0, i32 1
  store i64 %slice.1, i64* %4, align 8
  call void @llvm.dbg.declare(metadata { [0 x i32]*, i64 }* %slice.dbg.spill, metadata !1494, metadata !DIExpression()), !dbg !1499
  call void @llvm.dbg.declare(metadata i32** %end, metadata !1497, metadata !DIExpression()), !dbg !1500
; call core::slice::<impl [T]>::as_mut_ptr
  %ptr = call i32* @"_ZN4core5slice29_$LT$impl$u20$$u5b$T$u5d$$GT$10as_mut_ptr17hcf1bdd081f08a4eeE"([0 x i32]* nonnull align 4 %slice.0, i64 %slice.1), !dbg !1501
  store i32* %ptr, i32** %ptr.dbg.spill, align 8, !dbg !1501
  call void @llvm.dbg.declare(metadata i32** %ptr.dbg.spill, metadata !1495, metadata !DIExpression()), !dbg !1502
  br label %bb1, !dbg !1501

bb1:                                              ; preds = %start
; call core::ptr::mut_ptr::<impl *mut T>::is_null
  %_6 = call zeroext i1 @"_ZN4core3ptr7mut_ptr31_$LT$impl$u20$$BP$mut$u20$T$GT$7is_null17h3ff1692bce0f75d9E"(i32* %ptr), !dbg !1503
  br label %bb2, !dbg !1503

bb2:                                              ; preds = %bb1
  %_5 = xor i1 %_6, true, !dbg !1504
  call void @llvm.assume(i1 %_5), !dbg !1505
  br label %bb3, !dbg !1505

bb3:                                              ; preds = %bb2
  br label %bb4, !dbg !1506

bb4:                                              ; preds = %bb3
  %5 = icmp eq i64 4, 0, !dbg !1506
  br i1 %5, label %bb5, label %bb7, !dbg !1506

bb5:                                              ; preds = %bb4
  %_11 = bitcast i32* %ptr to i8*, !dbg !1507
  store i8* %_11, i8** %self.dbg.spill.i, align 8
  call void @llvm.dbg.declare(metadata i8** %self.dbg.spill.i, metadata !1448, metadata !DIExpression()), !dbg !1508
  store i64 %slice.1, i64* %count.dbg.spill.i, align 8
  call void @llvm.dbg.declare(metadata i64* %count.dbg.spill.i, metadata !1453, metadata !DIExpression()), !dbg !1510
  store i8* %_11, i8** %self.dbg.spill.i.i, align 8
  call void @llvm.dbg.declare(metadata i8** %self.dbg.spill.i.i, metadata !1457, metadata !DIExpression()), !dbg !1511
  store i64 %slice.1, i64* %count.dbg.spill.i.i, align 8
  call void @llvm.dbg.declare(metadata i64* %count.dbg.spill.i.i, metadata !1462, metadata !DIExpression()), !dbg !1513
  %6 = getelementptr i8, i8* %_11, i64 %slice.1, !dbg !1514
  store i8* %6, i8** %1, align 8, !dbg !1514
  %_3.i.i = load i8*, i8** %1, align 8, !dbg !1514
  br label %bb6, !dbg !1507

bb7:                                              ; preds = %bb4
  store i32* %ptr, i32** %self.dbg.spill.i4, align 8
  call void @llvm.dbg.declare(metadata i32** %self.dbg.spill.i4, metadata !1515, metadata !DIExpression()), !dbg !1521
  store i64 %slice.1, i64* %count.dbg.spill.i3, align 8
  call void @llvm.dbg.declare(metadata i64* %count.dbg.spill.i3, metadata !1520, metadata !DIExpression()), !dbg !1523
  store i32* %ptr, i32** %self.dbg.spill.i.i2, align 8
  call void @llvm.dbg.declare(metadata i32** %self.dbg.spill.i.i2, metadata !1524, metadata !DIExpression()), !dbg !1530
  store i64 %slice.1, i64* %count.dbg.spill.i.i1, align 8
  call void @llvm.dbg.declare(metadata i64* %count.dbg.spill.i.i1, metadata !1529, metadata !DIExpression()), !dbg !1532
  %7 = getelementptr inbounds i32, i32* %ptr, i64 %slice.1, !dbg !1533
  store i32* %7, i32** %0, align 8, !dbg !1533
  %_3.i.i5 = load i32*, i32** %0, align 8, !dbg !1533
  store i32* %_3.i.i5, i32** %end, align 8, !dbg !1534
  br label %bb8, !dbg !1534

bb8:                                              ; preds = %bb7
  br label %bb9, !dbg !1535

bb9:                                              ; preds = %bb6, %bb8
; call core::ptr::non_null::NonNull<T>::new_unchecked
  %_18 = call nonnull i32* @"_ZN4core3ptr8non_null16NonNull$LT$T$GT$13new_unchecked17ha6535fe6aa425e90E"(i32* %ptr), !dbg !1536
  br label %bb10, !dbg !1536

bb6:                                              ; preds = %bb5
  %8 = bitcast i8* %_3.i.i to i32*, !dbg !1507
  store i32* %8, i32** %end, align 8, !dbg !1507
  br label %bb9, !dbg !1535

bb10:                                             ; preds = %bb9
  %_20 = load i32*, i32** %end, align 8, !dbg !1537
  %9 = bitcast { i32*, i32* }* %2 to i32**, !dbg !1538
  store i32* %_18, i32** %9, align 8, !dbg !1538
  %10 = getelementptr inbounds { i32*, i32* }, { i32*, i32* }* %2, i32 0, i32 1, !dbg !1538
  store i32* %_20, i32** %10, align 8, !dbg !1538
  %11 = getelementptr inbounds { i32*, i32* }, { i32*, i32* }* %2, i32 0, i32 0, !dbg !1539
  %12 = load i32*, i32** %11, align 8, !dbg !1539, !nonnull !4
  %13 = getelementptr inbounds { i32*, i32* }, { i32*, i32* }* %2, i32 0, i32 1, !dbg !1539
  %14 = load i32*, i32** %13, align 8, !dbg !1539
  %15 = insertvalue { i32*, i32* } undef, i32* %12, 0, !dbg !1539
  %16 = insertvalue { i32*, i32* } %15, i32* %14, 1, !dbg !1539
  ret { i32*, i32* } %16, !dbg !1539
}

; core::slice::iter::ChunksExact<T>::new
; Function Attrs: inlinehint nounwind
define void @"_ZN4core5slice4iter20ChunksExact$LT$T$GT$3new17h8edd9f38cc05981fE"(%"core::slice::ChunksExact<u8>"* noalias nocapture sret(%"core::slice::ChunksExact<u8>") dereferenceable(40) %0, [0 x i8]* nonnull align 1 %slice.0, i64 %slice.1, i64 %chunk_size) unnamed_addr #0 !dbg !1540 {
start:
  %snd.dbg.spill = alloca { [0 x i8]*, i64 }, align 8
  %fst.dbg.spill = alloca { [0 x i8]*, i64 }, align 8
  %fst_len.dbg.spill = alloca i64, align 8
  %rem.dbg.spill = alloca i64, align 8
  %chunk_size.dbg.spill = alloca i64, align 8
  %slice.dbg.spill = alloca { [0 x i8]*, i64 }, align 8
  %_14 = alloca { { [0 x i8]*, i64 }, { [0 x i8]*, i64 } }, align 8
  %1 = getelementptr inbounds { [0 x i8]*, i64 }, { [0 x i8]*, i64 }* %slice.dbg.spill, i32 0, i32 0
  store [0 x i8]* %slice.0, [0 x i8]** %1, align 8
  %2 = getelementptr inbounds { [0 x i8]*, i64 }, { [0 x i8]*, i64 }* %slice.dbg.spill, i32 0, i32 1
  store i64 %slice.1, i64* %2, align 8
  call void @llvm.dbg.declare(metadata { [0 x i8]*, i64 }* %slice.dbg.spill, metadata !1542, metadata !DIExpression()), !dbg !1551
  store i64 %chunk_size, i64* %chunk_size.dbg.spill, align 8
  call void @llvm.dbg.declare(metadata i64* %chunk_size.dbg.spill, metadata !1543, metadata !DIExpression()), !dbg !1552
  %_7 = icmp eq i64 %chunk_size, 0, !dbg !1553
  %3 = call i1 @llvm.expect.i1(i1 %_7, i1 false), !dbg !1553
  br i1 %3, label %panic, label %bb1, !dbg !1553

bb1:                                              ; preds = %start
  %rem = urem i64 %slice.1, %chunk_size, !dbg !1553
  store i64 %rem, i64* %rem.dbg.spill, align 8, !dbg !1553
  call void @llvm.dbg.declare(metadata i64* %rem.dbg.spill, metadata !1544, metadata !DIExpression()), !dbg !1554
  %fst_len = sub i64 %slice.1, %rem, !dbg !1555
  store i64 %fst_len, i64* %fst_len.dbg.spill, align 8, !dbg !1555
  call void @llvm.dbg.declare(metadata i64* %fst_len.dbg.spill, metadata !1546, metadata !DIExpression()), !dbg !1556
; call core::slice::<impl [T]>::split_at_unchecked
  call void @"_ZN4core5slice29_$LT$impl$u20$$u5b$T$u5d$$GT$18split_at_unchecked17h477953791869703aE"({ { [0 x i8]*, i64 }, { [0 x i8]*, i64 } }* noalias nocapture sret({ { [0 x i8]*, i64 }, { [0 x i8]*, i64 } }) dereferenceable(32) %_14, [0 x i8]* nonnull align 1 %slice.0, i64 %slice.1, i64 %fst_len), !dbg !1557
  br label %bb2, !dbg !1557

panic:                                            ; preds = %start
; call core::panicking::panic
  call void @_ZN4core9panicking5panic17h560e3e4b7752857aE([0 x i8]* nonnull align 1 bitcast ([57 x i8]* @str.0 to [0 x i8]*), i64 57, %"core::panic::Location"* align 8 dereferenceable(24) bitcast (<{ i8*, [16 x i8] }>* @alloc692 to %"core::panic::Location"*)), !dbg !1553
  unreachable, !dbg !1553

bb2:                                              ; preds = %bb1
  %4 = bitcast { { [0 x i8]*, i64 }, { [0 x i8]*, i64 } }* %_14 to { [0 x i8]*, i64 }*, !dbg !1558
  %5 = getelementptr inbounds { [0 x i8]*, i64 }, { [0 x i8]*, i64 }* %4, i32 0, i32 0, !dbg !1558
  %fst.0 = load [0 x i8]*, [0 x i8]** %5, align 8, !dbg !1558, !nonnull !4
  %6 = getelementptr inbounds { [0 x i8]*, i64 }, { [0 x i8]*, i64 }* %4, i32 0, i32 1, !dbg !1558
  %fst.1 = load i64, i64* %6, align 8, !dbg !1558
  %7 = getelementptr inbounds { [0 x i8]*, i64 }, { [0 x i8]*, i64 }* %fst.dbg.spill, i32 0, i32 0, !dbg !1558
  store [0 x i8]* %fst.0, [0 x i8]** %7, align 8, !dbg !1558
  %8 = getelementptr inbounds { [0 x i8]*, i64 }, { [0 x i8]*, i64 }* %fst.dbg.spill, i32 0, i32 1, !dbg !1558
  store i64 %fst.1, i64* %8, align 8, !dbg !1558
  call void @llvm.dbg.declare(metadata { [0 x i8]*, i64 }* %fst.dbg.spill, metadata !1548, metadata !DIExpression()), !dbg !1559
  %9 = getelementptr inbounds { { [0 x i8]*, i64 }, { [0 x i8]*, i64 } }, { { [0 x i8]*, i64 }, { [0 x i8]*, i64 } }* %_14, i32 0, i32 1, !dbg !1560
  %10 = getelementptr inbounds { [0 x i8]*, i64 }, { [0 x i8]*, i64 }* %9, i32 0, i32 0, !dbg !1560
  %snd.0 = load [0 x i8]*, [0 x i8]** %10, align 8, !dbg !1560, !nonnull !4
  %11 = getelementptr inbounds { [0 x i8]*, i64 }, { [0 x i8]*, i64 }* %9, i32 0, i32 1, !dbg !1560
  %snd.1 = load i64, i64* %11, align 8, !dbg !1560
  %12 = getelementptr inbounds { [0 x i8]*, i64 }, { [0 x i8]*, i64 }* %snd.dbg.spill, i32 0, i32 0, !dbg !1560
  store [0 x i8]* %snd.0, [0 x i8]** %12, align 8, !dbg !1560
  %13 = getelementptr inbounds { [0 x i8]*, i64 }, { [0 x i8]*, i64 }* %snd.dbg.spill, i32 0, i32 1, !dbg !1560
  store i64 %snd.1, i64* %13, align 8, !dbg !1560
  call void @llvm.dbg.declare(metadata { [0 x i8]*, i64 }* %snd.dbg.spill, metadata !1550, metadata !DIExpression()), !dbg !1561
  %14 = bitcast %"core::slice::ChunksExact<u8>"* %0 to { [0 x i8]*, i64 }*, !dbg !1562
  %15 = getelementptr inbounds { [0 x i8]*, i64 }, { [0 x i8]*, i64 }* %14, i32 0, i32 0, !dbg !1562
  store [0 x i8]* %fst.0, [0 x i8]** %15, align 8, !dbg !1562
  %16 = getelementptr inbounds { [0 x i8]*, i64 }, { [0 x i8]*, i64 }* %14, i32 0, i32 1, !dbg !1562
  store i64 %fst.1, i64* %16, align 8, !dbg !1562
  %17 = getelementptr inbounds %"core::slice::ChunksExact<u8>", %"core::slice::ChunksExact<u8>"* %0, i32 0, i32 1, !dbg !1562
  %18 = getelementptr inbounds { [0 x i8]*, i64 }, { [0 x i8]*, i64 }* %17, i32 0, i32 0, !dbg !1562
  store [0 x i8]* %snd.0, [0 x i8]** %18, align 8, !dbg !1562
  %19 = getelementptr inbounds { [0 x i8]*, i64 }, { [0 x i8]*, i64 }* %17, i32 0, i32 1, !dbg !1562
  store i64 %snd.1, i64* %19, align 8, !dbg !1562
  %20 = getelementptr inbounds %"core::slice::ChunksExact<u8>", %"core::slice::ChunksExact<u8>"* %0, i32 0, i32 2, !dbg !1562
  store i64 %chunk_size, i64* %20, align 8, !dbg !1562
  ret void, !dbg !1563
}

; core::slice::iter::<impl core::iter::traits::collect::IntoIterator for &[T]>::into_iter
; Function Attrs: nounwind
define { i8*, i8* } @"_ZN4core5slice4iter87_$LT$impl$u20$core..iter..traits..collect..IntoIterator$u20$for$u20$$RF$$u5b$T$u5d$$GT$9into_iter17h76edf14f00abcee6E"([0 x [64 x i8]]* nonnull align 1 %self.0, i64 %self.1) unnamed_addr #1 !dbg !1564 {
start:
  %self.dbg.spill = alloca { [0 x [64 x i8]]*, i64 }, align 8
  %0 = getelementptr inbounds { [0 x [64 x i8]]*, i64 }, { [0 x [64 x i8]]*, i64 }* %self.dbg.spill, i32 0, i32 0
  store [0 x [64 x i8]]* %self.0, [0 x [64 x i8]]** %0, align 8
  %1 = getelementptr inbounds { [0 x [64 x i8]]*, i64 }, { [0 x [64 x i8]]*, i64 }* %self.dbg.spill, i32 0, i32 1
  store i64 %self.1, i64* %1, align 8
  call void @llvm.dbg.declare(metadata { [0 x [64 x i8]]*, i64 }* %self.dbg.spill, metadata !1567, metadata !DIExpression()), !dbg !1568
; call core::slice::<impl [T]>::iter
  %2 = call { i8*, i8* } @"_ZN4core5slice29_$LT$impl$u20$$u5b$T$u5d$$GT$4iter17hfddf7b170084bc13E"([0 x [64 x i8]]* nonnull align 1 %self.0, i64 %self.1), !dbg !1569
  %3 = extractvalue { i8*, i8* } %2, 0, !dbg !1569
  %4 = extractvalue { i8*, i8* } %2, 1, !dbg !1569
  br label %bb1, !dbg !1569

bb1:                                              ; preds = %start
  %5 = insertvalue { i8*, i8* } undef, i8* %3, 0, !dbg !1570
  %6 = insertvalue { i8*, i8* } %5, i8* %4, 1, !dbg !1570
  ret { i8*, i8* } %6, !dbg !1570
}

; core::slice::iter::<impl core::iter::traits::collect::IntoIterator for &[T]>::into_iter
; Function Attrs: nounwind
define { i8*, i8* } @"_ZN4core5slice4iter87_$LT$impl$u20$core..iter..traits..collect..IntoIterator$u20$for$u20$$RF$$u5b$T$u5d$$GT$9into_iter17hf6d6ae69f3e2bca3E"([0 x [128 x i8]]* nonnull align 1 %self.0, i64 %self.1) unnamed_addr #1 !dbg !1571 {
start:
  %self.dbg.spill = alloca { [0 x [128 x i8]]*, i64 }, align 8
  %0 = getelementptr inbounds { [0 x [128 x i8]]*, i64 }, { [0 x [128 x i8]]*, i64 }* %self.dbg.spill, i32 0, i32 0
  store [0 x [128 x i8]]* %self.0, [0 x [128 x i8]]** %0, align 8
  %1 = getelementptr inbounds { [0 x [128 x i8]]*, i64 }, { [0 x [128 x i8]]*, i64 }* %self.dbg.spill, i32 0, i32 1
  store i64 %self.1, i64* %1, align 8
  call void @llvm.dbg.declare(metadata { [0 x [128 x i8]]*, i64 }* %self.dbg.spill, metadata !1573, metadata !DIExpression()), !dbg !1574
; call core::slice::<impl [T]>::iter
  %2 = call { i8*, i8* } @"_ZN4core5slice29_$LT$impl$u20$$u5b$T$u5d$$GT$4iter17h9836512060fbedafE"([0 x [128 x i8]]* nonnull align 1 %self.0, i64 %self.1), !dbg !1575
  %3 = extractvalue { i8*, i8* } %2, 0, !dbg !1575
  %4 = extractvalue { i8*, i8* } %2, 1, !dbg !1575
  br label %bb1, !dbg !1575

bb1:                                              ; preds = %start
  %5 = insertvalue { i8*, i8* } undef, i8* %3, 0, !dbg !1576
  %6 = insertvalue { i8*, i8* } %5, i8* %4, 1, !dbg !1576
  ret { i8*, i8* } %6, !dbg !1576
}

; core::result::Result<T,E>::map
; Function Attrs: inlinehint nounwind
define i40 @"_ZN4core6result19Result$LT$T$C$E$GT$3map17he19e3e199cf0b622E"(i8* align 1 dereferenceable_or_null(4) %0) unnamed_addr #0 !dbg !1577 {
start:
  %1 = alloca i32, align 4
  %t.dbg.spill = alloca [4 x i8]*, align 8
  %e.dbg.spill = alloca %"core::array::TryFromSliceError", align 1
  %op.dbg.spill = alloca %"[closure@core::array::<impl core::convert::TryFrom<&[u8]> for [u8; 4]>::try_from::{closure#0}]", align 1
  %_11 = alloca i8, align 1
  %_7 = alloca i8*, align 8
  %_5 = alloca [4 x i8], align 1
  %2 = alloca %"core::result::Result<[u8; 4], core::array::TryFromSliceError>", align 1
  %self = alloca i8*, align 8
  store i8* %0, i8** %self, align 8
  call void @llvm.dbg.declare(metadata i8** %self, metadata !1582, metadata !DIExpression()), !dbg !1591
  call void @llvm.dbg.declare(metadata %"[closure@core::array::<impl core::convert::TryFrom<&[u8]> for [u8; 4]>::try_from::{closure#0}]"* %op.dbg.spill, metadata !1583, metadata !DIExpression()), !dbg !1592
  call void @llvm.dbg.declare(metadata %"core::array::TryFromSliceError"* %e.dbg.spill, metadata !1586, metadata !DIExpression()), !dbg !1593
  store i8 0, i8* %_11, align 1, !dbg !1594
  store i8 1, i8* %_11, align 1, !dbg !1594
  %3 = bitcast i8** %self to {}**, !dbg !1594
  %4 = load {}*, {}** %3, align 8, !dbg !1594
  %5 = icmp eq {}* %4, null, !dbg !1594
  %_3 = select i1 %5, i64 1, i64 0, !dbg !1594
  switch i64 %_3, label %bb2 [
    i64 0, label %bb3
    i64 1, label %bb1
  ], !dbg !1595

bb2:                                              ; preds = %start
  unreachable, !dbg !1594

bb3:                                              ; preds = %start
  %6 = bitcast i8** %self to [4 x i8]**, !dbg !1596
  %t = load [4 x i8]*, [4 x i8]** %6, align 8, !dbg !1596, !nonnull !4
  store [4 x i8]* %t, [4 x i8]** %t.dbg.spill, align 8, !dbg !1596
  call void @llvm.dbg.declare(metadata [4 x i8]** %t.dbg.spill, metadata !1584, metadata !DIExpression()), !dbg !1597
  store i8 0, i8* %_11, align 1, !dbg !1598
  %7 = bitcast i8** %_7 to [4 x i8]**, !dbg !1598
  store [4 x i8]* %t, [4 x i8]** %7, align 8, !dbg !1598
  %8 = load i8*, i8** %_7, align 8, !dbg !1598, !nonnull !4
  %9 = bitcast i8* %8 to [4 x i8]*, !dbg !1598
; call core::array::<impl core::convert::TryFrom<&[T]> for [T; N]>::try_from::{{closure}}
  %10 = call i32 @"_ZN4core5array98_$LT$impl$u20$core..convert..TryFrom$LT$$RF$$u5b$T$u5d$$GT$$u20$for$u20$$u5b$T$u3b$$u20$N$u5d$$GT$8try_from28_$u7b$$u7b$closure$u7d$$u7d$17h9dc6b375f36d10a4E"([4 x i8]* align 1 dereferenceable(4) %9), !dbg !1598
  store i32 %10, i32* %1, align 4, !dbg !1598
  %11 = bitcast [4 x i8]* %_5 to i8*, !dbg !1598
  %12 = bitcast i32* %1 to i8*, !dbg !1598
  call void @llvm.memcpy.p0i8.p0i8.i64(i8* align 1 %11, i8* align 4 %12, i64 4, i1 false), !dbg !1598
  br label %bb4, !dbg !1598

bb1:                                              ; preds = %start
  %13 = bitcast %"core::result::Result<[u8; 4], core::array::TryFromSliceError>"* %2 to %"core::result::Result<[u8; 4], core::array::TryFromSliceError>::Err"*, !dbg !1599
  %14 = getelementptr inbounds %"core::result::Result<[u8; 4], core::array::TryFromSliceError>::Err", %"core::result::Result<[u8; 4], core::array::TryFromSliceError>::Err"* %13, i32 0, i32 1, !dbg !1599
  %15 = bitcast %"core::result::Result<[u8; 4], core::array::TryFromSliceError>"* %2 to i8*, !dbg !1599
  store i8 1, i8* %15, align 1, !dbg !1599
  br label %bb5, !dbg !1600

bb5:                                              ; preds = %bb4, %bb1
  %16 = load i8, i8* %_11, align 1, !dbg !1601, !range !266
  %17 = trunc i8 %16 to i1, !dbg !1601
  br i1 %17, label %bb7, label %bb6, !dbg !1601

bb4:                                              ; preds = %bb3
  %18 = bitcast %"core::result::Result<[u8; 4], core::array::TryFromSliceError>"* %2 to %"core::result::Result<[u8; 4], core::array::TryFromSliceError>::Ok"*, !dbg !1602
  %19 = getelementptr inbounds %"core::result::Result<[u8; 4], core::array::TryFromSliceError>::Ok", %"core::result::Result<[u8; 4], core::array::TryFromSliceError>::Ok"* %18, i32 0, i32 1, !dbg !1602
  %20 = bitcast [4 x i8]* %19 to i8*, !dbg !1602
  %21 = bitcast [4 x i8]* %_5 to i8*, !dbg !1602
  call void @llvm.memcpy.p0i8.p0i8.i64(i8* align 1 %20, i8* align 1 %21, i64 4, i1 false), !dbg !1602
  %22 = bitcast %"core::result::Result<[u8; 4], core::array::TryFromSliceError>"* %2 to i8*, !dbg !1602
  store i8 0, i8* %22, align 1, !dbg !1602
  br label %bb5, !dbg !1603

bb6:                                              ; preds = %bb7, %bb5
  %23 = bitcast %"core::result::Result<[u8; 4], core::array::TryFromSliceError>"* %2 to i40*, !dbg !1604
  %24 = load i40, i40* %23, align 1, !dbg !1604
  ret i40 %24, !dbg !1604

bb7:                                              ; preds = %bb5
  br label %bb6, !dbg !1601
}

; core::result::Result<T,E>::map
; Function Attrs: inlinehint nounwind
define i72 @"_ZN4core6result19Result$LT$T$C$E$GT$3map17hf3ecbf176e482801E"(i8* align 1 dereferenceable_or_null(8) %0) unnamed_addr #0 !dbg !1605 {
start:
  %1 = alloca i64, align 8
  %t.dbg.spill = alloca [8 x i8]*, align 8
  %e.dbg.spill = alloca %"core::array::TryFromSliceError", align 1
  %op.dbg.spill = alloca %"[closure@core::array::<impl core::convert::TryFrom<&[u8]> for [u8; 8]>::try_from::{closure#0}]", align 1
  %_11 = alloca i8, align 1
  %_7 = alloca i8*, align 8
  %_5 = alloca [8 x i8], align 1
  %2 = alloca %"core::result::Result<[u8; 8], core::array::TryFromSliceError>", align 1
  %self = alloca i8*, align 8
  store i8* %0, i8** %self, align 8
  call void @llvm.dbg.declare(metadata i8** %self, metadata !1609, metadata !DIExpression()), !dbg !1618
  call void @llvm.dbg.declare(metadata %"[closure@core::array::<impl core::convert::TryFrom<&[u8]> for [u8; 8]>::try_from::{closure#0}]"* %op.dbg.spill, metadata !1610, metadata !DIExpression()), !dbg !1619
  call void @llvm.dbg.declare(metadata %"core::array::TryFromSliceError"* %e.dbg.spill, metadata !1613, metadata !DIExpression()), !dbg !1620
  store i8 0, i8* %_11, align 1, !dbg !1621
  store i8 1, i8* %_11, align 1, !dbg !1621
  %3 = bitcast i8** %self to {}**, !dbg !1621
  %4 = load {}*, {}** %3, align 8, !dbg !1621
  %5 = icmp eq {}* %4, null, !dbg !1621
  %_3 = select i1 %5, i64 1, i64 0, !dbg !1621
  switch i64 %_3, label %bb2 [
    i64 0, label %bb3
    i64 1, label %bb1
  ], !dbg !1622

bb2:                                              ; preds = %start
  unreachable, !dbg !1621

bb3:                                              ; preds = %start
  %6 = bitcast i8** %self to [8 x i8]**, !dbg !1623
  %t = load [8 x i8]*, [8 x i8]** %6, align 8, !dbg !1623, !nonnull !4
  store [8 x i8]* %t, [8 x i8]** %t.dbg.spill, align 8, !dbg !1623
  call void @llvm.dbg.declare(metadata [8 x i8]** %t.dbg.spill, metadata !1611, metadata !DIExpression()), !dbg !1624
  store i8 0, i8* %_11, align 1, !dbg !1625
  %7 = bitcast i8** %_7 to [8 x i8]**, !dbg !1625
  store [8 x i8]* %t, [8 x i8]** %7, align 8, !dbg !1625
  %8 = load i8*, i8** %_7, align 8, !dbg !1625, !nonnull !4
  %9 = bitcast i8* %8 to [8 x i8]*, !dbg !1625
; call core::array::<impl core::convert::TryFrom<&[T]> for [T; N]>::try_from::{{closure}}
  %10 = call i64 @"_ZN4core5array98_$LT$impl$u20$core..convert..TryFrom$LT$$RF$$u5b$T$u5d$$GT$$u20$for$u20$$u5b$T$u3b$$u20$N$u5d$$GT$8try_from28_$u7b$$u7b$closure$u7d$$u7d$17h9f1f2033889bc8dfE"([8 x i8]* align 1 dereferenceable(8) %9), !dbg !1625
  store i64 %10, i64* %1, align 8, !dbg !1625
  %11 = bitcast [8 x i8]* %_5 to i8*, !dbg !1625
  %12 = bitcast i64* %1 to i8*, !dbg !1625
  call void @llvm.memcpy.p0i8.p0i8.i64(i8* align 1 %11, i8* align 8 %12, i64 8, i1 false), !dbg !1625
  br label %bb4, !dbg !1625

bb1:                                              ; preds = %start
  %13 = bitcast %"core::result::Result<[u8; 8], core::array::TryFromSliceError>"* %2 to %"core::result::Result<[u8; 8], core::array::TryFromSliceError>::Err"*, !dbg !1626
  %14 = getelementptr inbounds %"core::result::Result<[u8; 8], core::array::TryFromSliceError>::Err", %"core::result::Result<[u8; 8], core::array::TryFromSliceError>::Err"* %13, i32 0, i32 1, !dbg !1626
  %15 = bitcast %"core::result::Result<[u8; 8], core::array::TryFromSliceError>"* %2 to i8*, !dbg !1626
  store i8 1, i8* %15, align 1, !dbg !1626
  br label %bb5, !dbg !1627

bb5:                                              ; preds = %bb4, %bb1
  %16 = load i8, i8* %_11, align 1, !dbg !1628, !range !266
  %17 = trunc i8 %16 to i1, !dbg !1628
  br i1 %17, label %bb7, label %bb6, !dbg !1628

bb4:                                              ; preds = %bb3
  %18 = bitcast %"core::result::Result<[u8; 8], core::array::TryFromSliceError>"* %2 to %"core::result::Result<[u8; 8], core::array::TryFromSliceError>::Ok"*, !dbg !1629
  %19 = getelementptr inbounds %"core::result::Result<[u8; 8], core::array::TryFromSliceError>::Ok", %"core::result::Result<[u8; 8], core::array::TryFromSliceError>::Ok"* %18, i32 0, i32 1, !dbg !1629
  %20 = bitcast [8 x i8]* %19 to i8*, !dbg !1629
  %21 = bitcast [8 x i8]* %_5 to i8*, !dbg !1629
  call void @llvm.memcpy.p0i8.p0i8.i64(i8* align 1 %20, i8* align 1 %21, i64 8, i1 false), !dbg !1629
  %22 = bitcast %"core::result::Result<[u8; 8], core::array::TryFromSliceError>"* %2 to i8*, !dbg !1629
  store i8 0, i8* %22, align 1, !dbg !1629
  br label %bb5, !dbg !1630

bb6:                                              ; preds = %bb7, %bb5
  %23 = bitcast %"core::result::Result<[u8; 8], core::array::TryFromSliceError>"* %2 to i72*, !dbg !1631
  %24 = load i72, i72* %23, align 1, !dbg !1631
  ret i72 %24, !dbg !1631

bb7:                                              ; preds = %bb5
  br label %bb6, !dbg !1628
}

; core::result::Result<T,E>::unwrap
; Function Attrs: inlinehint nounwind
define i64 @"_ZN4core6result19Result$LT$T$C$E$GT$6unwrap17h5717e32ce2d6495fE"(i72 %0, %"core::panic::Location"* align 8 dereferenceable(24) %1) unnamed_addr #0 !dbg !1632 {
start:
  %e = alloca %"core::array::TryFromSliceError", align 1
  %t = alloca [8 x i8], align 1
  %2 = alloca i72, align 8
  %self = alloca %"core::result::Result<[u8; 8], core::array::TryFromSliceError>", align 1
  store i72 %0, i72* %2, align 8
  %3 = bitcast %"core::result::Result<[u8; 8], core::array::TryFromSliceError>"* %self to i8*
  %4 = bitcast i72* %2 to i8*
  call void @llvm.memcpy.p0i8.p0i8.i64(i8* align 1 %3, i8* align 8 %4, i64 9, i1 false)
  call void @llvm.dbg.declare(metadata [8 x i8]* %t, metadata !1649, metadata !DIExpression()), !dbg !1653
  call void @llvm.dbg.declare(metadata %"core::result::Result<[u8; 8], core::array::TryFromSliceError>"* %self, metadata !1648, metadata !DIExpression()), !dbg !1654
  call void @llvm.dbg.declare(metadata %"core::array::TryFromSliceError"* %e, metadata !1651, metadata !DIExpression()), !dbg !1655
  %5 = bitcast %"core::result::Result<[u8; 8], core::array::TryFromSliceError>"* %self to i8*, !dbg !1656
  %6 = load i8, i8* %5, align 1, !dbg !1656, !range !266
  %7 = trunc i8 %6 to i1, !dbg !1656
  %_2 = zext i1 %7 to i64, !dbg !1656
  switch i64 %_2, label %bb2 [
    i64 0, label %bb3
    i64 1, label %bb1
  ], !dbg !1657

bb2:                                              ; preds = %start
  unreachable, !dbg !1656

bb3:                                              ; preds = %start
  %8 = bitcast %"core::result::Result<[u8; 8], core::array::TryFromSliceError>"* %self to %"core::result::Result<[u8; 8], core::array::TryFromSliceError>::Ok"*, !dbg !1658
  %9 = getelementptr inbounds %"core::result::Result<[u8; 8], core::array::TryFromSliceError>::Ok", %"core::result::Result<[u8; 8], core::array::TryFromSliceError>::Ok"* %8, i32 0, i32 1, !dbg !1658
  %10 = bitcast [8 x i8]* %t to i8*, !dbg !1658
  %11 = bitcast [8 x i8]* %9 to i8*, !dbg !1658
  call void @llvm.memcpy.p0i8.p0i8.i64(i8* align 1 %10, i8* align 1 %11, i64 8, i1 false), !dbg !1658
  %12 = bitcast [8 x i8]* %t to i64*, !dbg !1659
  %13 = load i64, i64* %12, align 1, !dbg !1659
  ret i64 %13, !dbg !1659

bb1:                                              ; preds = %start
  %_6.0 = bitcast %"core::array::TryFromSliceError"* %e to {}*, !dbg !1660
; call core::result::unwrap_failed
  call void @_ZN4core6result13unwrap_failed17h84047e2415998400E([0 x i8]* nonnull align 1 bitcast (<{ [43 x i8] }>* @alloc697 to [0 x i8]*), i64 43, {}* nonnull align 1 %_6.0, [3 x i64]* align 8 dereferenceable(24) bitcast (<{ i8*, [16 x i8], i8*, [0 x i8] }>* @vtable.1 to [3 x i64]*), %"core::panic::Location"* align 8 dereferenceable(24) %1), !dbg !1661
  unreachable, !dbg !1661
}

; core::result::Result<T,E>::unwrap
; Function Attrs: inlinehint nounwind
define i32 @"_ZN4core6result19Result$LT$T$C$E$GT$6unwrap17h68ca97e03d1481f0E"(i40 %0, %"core::panic::Location"* align 8 dereferenceable(24) %1) unnamed_addr #0 !dbg !1662 {
start:
  %e = alloca %"core::array::TryFromSliceError", align 1
  %t = alloca [4 x i8], align 1
  %2 = alloca i40, align 8
  %self = alloca %"core::result::Result<[u8; 4], core::array::TryFromSliceError>", align 1
  store i40 %0, i40* %2, align 8
  %3 = bitcast %"core::result::Result<[u8; 4], core::array::TryFromSliceError>"* %self to i8*
  %4 = bitcast i40* %2 to i8*
  call void @llvm.memcpy.p0i8.p0i8.i64(i8* align 1 %3, i8* align 8 %4, i64 5, i1 false)
  call void @llvm.dbg.declare(metadata [4 x i8]* %t, metadata !1667, metadata !DIExpression()), !dbg !1671
  call void @llvm.dbg.declare(metadata %"core::result::Result<[u8; 4], core::array::TryFromSliceError>"* %self, metadata !1666, metadata !DIExpression()), !dbg !1672
  call void @llvm.dbg.declare(metadata %"core::array::TryFromSliceError"* %e, metadata !1669, metadata !DIExpression()), !dbg !1673
  %5 = bitcast %"core::result::Result<[u8; 4], core::array::TryFromSliceError>"* %self to i8*, !dbg !1674
  %6 = load i8, i8* %5, align 1, !dbg !1674, !range !266
  %7 = trunc i8 %6 to i1, !dbg !1674
  %_2 = zext i1 %7 to i64, !dbg !1674
  switch i64 %_2, label %bb2 [
    i64 0, label %bb3
    i64 1, label %bb1
  ], !dbg !1675

bb2:                                              ; preds = %start
  unreachable, !dbg !1674

bb3:                                              ; preds = %start
  %8 = bitcast %"core::result::Result<[u8; 4], core::array::TryFromSliceError>"* %self to %"core::result::Result<[u8; 4], core::array::TryFromSliceError>::Ok"*, !dbg !1676
  %9 = getelementptr inbounds %"core::result::Result<[u8; 4], core::array::TryFromSliceError>::Ok", %"core::result::Result<[u8; 4], core::array::TryFromSliceError>::Ok"* %8, i32 0, i32 1, !dbg !1676
  %10 = bitcast [4 x i8]* %t to i8*, !dbg !1676
  %11 = bitcast [4 x i8]* %9 to i8*, !dbg !1676
  call void @llvm.memcpy.p0i8.p0i8.i64(i8* align 1 %10, i8* align 1 %11, i64 4, i1 false), !dbg !1676
  %12 = bitcast [4 x i8]* %t to i32*, !dbg !1677
  %13 = load i32, i32* %12, align 1, !dbg !1677
  ret i32 %13, !dbg !1677

bb1:                                              ; preds = %start
  %_6.0 = bitcast %"core::array::TryFromSliceError"* %e to {}*, !dbg !1678
; call core::result::unwrap_failed
  call void @_ZN4core6result13unwrap_failed17h84047e2415998400E([0 x i8]* nonnull align 1 bitcast (<{ [43 x i8] }>* @alloc697 to [0 x i8]*), i64 43, {}* nonnull align 1 %_6.0, [3 x i64]* align 8 dereferenceable(24) bitcast (<{ i8*, [16 x i8], i8*, [0 x i8] }>* @vtable.1 to [3 x i64]*), %"core::panic::Location"* align 8 dereferenceable(24) %1), !dbg !1679
  unreachable, !dbg !1679
}

; core::panicking::assert_failed
; Function Attrs: cold noreturn nounwind
define void @_ZN4core9panicking13assert_failed17h681b845251a6b9e9E(i8 %kind, i64* align 8 dereferenceable(8) %0, i64* align 8 dereferenceable(8) %1, %"core::option::Option<core::fmt::Arguments>"* noalias nocapture dereferenceable(48) %args, %"core::panic::Location"* align 8 dereferenceable(24) %2) unnamed_addr #2 !dbg !1680 {
start:
  %kind.dbg.spill = alloca i8, align 1
  %_12 = alloca %"core::option::Option<core::fmt::Arguments>", align 8
  %right = alloca i64*, align 8
  %left = alloca i64*, align 8
  store i64* %0, i64** %left, align 8
  store i64* %1, i64** %right, align 8
  store i8 %kind, i8* %kind.dbg.spill, align 1
  call void @llvm.dbg.declare(metadata i8* %kind.dbg.spill, metadata !1764, metadata !DIExpression()), !dbg !1770
  call void @llvm.dbg.declare(metadata i64** %left, metadata !1765, metadata !DIExpression()), !dbg !1771
  call void @llvm.dbg.declare(metadata i64** %right, metadata !1766, metadata !DIExpression()), !dbg !1772
  call void @llvm.dbg.declare(metadata %"core::option::Option<core::fmt::Arguments>"* %args, metadata !1767, metadata !DIExpression()), !dbg !1773
  %_6.0 = bitcast i64** %left to {}*, !dbg !1774
  %_9.0 = bitcast i64** %right to {}*, !dbg !1775
  %3 = bitcast %"core::option::Option<core::fmt::Arguments>"* %_12 to i8*, !dbg !1776
  %4 = bitcast %"core::option::Option<core::fmt::Arguments>"* %args to i8*, !dbg !1776
  call void @llvm.memcpy.p0i8.p0i8.i64(i8* align 8 %3, i8* align 8 %4, i64 48, i1 false), !dbg !1776
; call core::panicking::assert_failed_inner
  call void @_ZN4core9panicking19assert_failed_inner17hb980cfe34185be0eE(i8 %kind, {}* nonnull align 1 %_6.0, [3 x i64]* align 8 dereferenceable(24) bitcast (<{ i8*, [16 x i8], i8*, [0 x i8] }>* @vtable.2 to [3 x i64]*), {}* nonnull align 1 %_9.0, [3 x i64]* align 8 dereferenceable(24) bitcast (<{ i8*, [16 x i8], i8*, [0 x i8] }>* @vtable.2 to [3 x i64]*), %"core::option::Option<core::fmt::Arguments>"* noalias nocapture dereferenceable(48) %_12, %"core::panic::Location"* align 8 dereferenceable(24) %2), !dbg !1777
  unreachable, !dbg !1777
}

; <T as core::convert::TryInto<U>>::try_into
; Function Attrs: nounwind
define i72 @"_ZN53_$LT$T$u20$as$u20$core..convert..TryInto$LT$U$GT$$GT$8try_into17h0e89afc502d9651dE"([0 x i8]* nonnull align 1 %self.0, i64 %self.1) unnamed_addr #1 !dbg !1778 {
start:
  %0 = alloca i72, align 8
  %self.dbg.spill = alloca { [0 x i8]*, i64 }, align 8
  %1 = alloca %"core::result::Result<[u8; 8], core::array::TryFromSliceError>", align 1
  %2 = getelementptr inbounds { [0 x i8]*, i64 }, { [0 x i8]*, i64 }* %self.dbg.spill, i32 0, i32 0
  store [0 x i8]* %self.0, [0 x i8]** %2, align 8
  %3 = getelementptr inbounds { [0 x i8]*, i64 }, { [0 x i8]*, i64 }* %self.dbg.spill, i32 0, i32 1
  store i64 %self.1, i64* %3, align 8
  call void @llvm.dbg.declare(metadata { [0 x i8]*, i64 }* %self.dbg.spill, metadata !1783, metadata !DIExpression()), !dbg !1786
; call core::array::<impl core::convert::TryFrom<&[T]> for [T; N]>::try_from
  %4 = call i72 @"_ZN4core5array98_$LT$impl$u20$core..convert..TryFrom$LT$$RF$$u5b$T$u5d$$GT$$u20$for$u20$$u5b$T$u3b$$u20$N$u5d$$GT$8try_from17h10c733d36b86f483E"([0 x i8]* nonnull align 1 %self.0, i64 %self.1), !dbg !1787
  store i72 %4, i72* %0, align 8, !dbg !1787
  %5 = bitcast %"core::result::Result<[u8; 8], core::array::TryFromSliceError>"* %1 to i8*, !dbg !1787
  %6 = bitcast i72* %0 to i8*, !dbg !1787
  call void @llvm.memcpy.p0i8.p0i8.i64(i8* align 1 %5, i8* align 8 %6, i64 9, i1 false), !dbg !1787
  br label %bb1, !dbg !1787

bb1:                                              ; preds = %start
  %7 = bitcast %"core::result::Result<[u8; 8], core::array::TryFromSliceError>"* %1 to i72*, !dbg !1788
  %8 = load i72, i72* %7, align 1, !dbg !1788
  ret i72 %8, !dbg !1788
}

; <T as core::convert::TryInto<U>>::try_into
; Function Attrs: nounwind
define i40 @"_ZN53_$LT$T$u20$as$u20$core..convert..TryInto$LT$U$GT$$GT$8try_into17h2cf8d0e4dfdf5ff2E"([0 x i8]* nonnull align 1 %self.0, i64 %self.1) unnamed_addr #1 !dbg !1789 {
start:
  %0 = alloca i40, align 8
  %self.dbg.spill = alloca { [0 x i8]*, i64 }, align 8
  %1 = alloca %"core::result::Result<[u8; 4], core::array::TryFromSliceError>", align 1
  %2 = getelementptr inbounds { [0 x i8]*, i64 }, { [0 x i8]*, i64 }* %self.dbg.spill, i32 0, i32 0
  store [0 x i8]* %self.0, [0 x i8]** %2, align 8
  %3 = getelementptr inbounds { [0 x i8]*, i64 }, { [0 x i8]*, i64 }* %self.dbg.spill, i32 0, i32 1
  store i64 %self.1, i64* %3, align 8
  call void @llvm.dbg.declare(metadata { [0 x i8]*, i64 }* %self.dbg.spill, metadata !1791, metadata !DIExpression()), !dbg !1793
; call core::array::<impl core::convert::TryFrom<&[T]> for [T; N]>::try_from
  %4 = call i40 @"_ZN4core5array98_$LT$impl$u20$core..convert..TryFrom$LT$$RF$$u5b$T$u5d$$GT$$u20$for$u20$$u5b$T$u3b$$u20$N$u5d$$GT$8try_from17hb92925616fe135bcE"([0 x i8]* nonnull align 1 %self.0, i64 %self.1), !dbg !1794
  store i40 %4, i40* %0, align 8, !dbg !1794
  %5 = bitcast %"core::result::Result<[u8; 4], core::array::TryFromSliceError>"* %1 to i8*, !dbg !1794
  %6 = bitcast i40* %0 to i8*, !dbg !1794
  call void @llvm.memcpy.p0i8.p0i8.i64(i8* align 1 %5, i8* align 8 %6, i64 5, i1 false), !dbg !1794
  br label %bb1, !dbg !1794

bb1:                                              ; preds = %start
  %7 = bitcast %"core::result::Result<[u8; 4], core::array::TryFromSliceError>"* %1 to i40*, !dbg !1795
  %8 = load i40, i40* %7, align 1, !dbg !1795
  ret i40 %8, !dbg !1795
}

; <I as core::iter::traits::collect::IntoIterator>::into_iter
; Function Attrs: inlinehint nounwind
define void @"_ZN63_$LT$I$u20$as$u20$core..iter..traits..collect..IntoIterator$GT$9into_iter17h501af3fb8a66fd39E"(%"core::slice::ChunksExact<u8>"* noalias nocapture sret(%"core::slice::ChunksExact<u8>") dereferenceable(40) %0, %"core::slice::ChunksExact<u8>"* noalias nocapture dereferenceable(40) %self) unnamed_addr #0 !dbg !1796 {
start:
  call void @llvm.dbg.declare(metadata %"core::slice::ChunksExact<u8>"* %self, metadata !1803, metadata !DIExpression()), !dbg !1806
  %1 = bitcast %"core::slice::ChunksExact<u8>"* %0 to i8*, !dbg !1807
  %2 = bitcast %"core::slice::ChunksExact<u8>"* %self to i8*, !dbg !1807
  call void @llvm.memcpy.p0i8.p0i8.i64(i8* align 8 %1, i8* align 8 %2, i64 40, i1 false), !dbg !1807
  ret void, !dbg !1808
}

; <I as core::iter::traits::collect::IntoIterator>::into_iter
; Function Attrs: inlinehint nounwind
define void @"_ZN63_$LT$I$u20$as$u20$core..iter..traits..collect..IntoIterator$GT$9into_iter17h79fdf22c510cd819E"(%"core::iter::Zip<core::slice::IterMut<u64>, core::slice::ChunksExact<u8>>"* noalias nocapture sret(%"core::iter::Zip<core::slice::IterMut<u64>, core::slice::ChunksExact<u8>>") dereferenceable(80) %0, %"core::iter::Zip<core::slice::IterMut<u64>, core::slice::ChunksExact<u8>>"* noalias nocapture dereferenceable(80) %self) unnamed_addr #0 !dbg !1809 {
start:
  call void @llvm.dbg.declare(metadata %"core::iter::Zip<core::slice::IterMut<u64>, core::slice::ChunksExact<u8>>"* %self, metadata !1813, metadata !DIExpression()), !dbg !1816
  %1 = bitcast %"core::iter::Zip<core::slice::IterMut<u64>, core::slice::ChunksExact<u8>>"* %0 to i8*, !dbg !1817
  %2 = bitcast %"core::iter::Zip<core::slice::IterMut<u64>, core::slice::ChunksExact<u8>>"* %self to i8*, !dbg !1817
  call void @llvm.memcpy.p0i8.p0i8.i64(i8* align 8 %1, i8* align 8 %2, i64 80, i1 false), !dbg !1817
  ret void, !dbg !1818
}

; <I as core::iter::traits::collect::IntoIterator>::into_iter
; Function Attrs: inlinehint nounwind
define void @"_ZN63_$LT$I$u20$as$u20$core..iter..traits..collect..IntoIterator$GT$9into_iter17hb9bc6b1abcaf8978E"(%"core::iter::Zip<core::slice::IterMut<u32>, core::slice::ChunksExact<u8>>"* noalias nocapture sret(%"core::iter::Zip<core::slice::IterMut<u32>, core::slice::ChunksExact<u8>>") dereferenceable(80) %0, %"core::iter::Zip<core::slice::IterMut<u32>, core::slice::ChunksExact<u8>>"* noalias nocapture dereferenceable(80) %self) unnamed_addr #0 !dbg !1819 {
start:
  call void @llvm.dbg.declare(metadata %"core::iter::Zip<core::slice::IterMut<u32>, core::slice::ChunksExact<u8>>"* %self, metadata !1823, metadata !DIExpression()), !dbg !1826
  %1 = bitcast %"core::iter::Zip<core::slice::IterMut<u32>, core::slice::ChunksExact<u8>>"* %0 to i8*, !dbg !1827
  %2 = bitcast %"core::iter::Zip<core::slice::IterMut<u32>, core::slice::ChunksExact<u8>>"* %self to i8*, !dbg !1827
  call void @llvm.memcpy.p0i8.p0i8.i64(i8* align 8 %1, i8* align 8 %2, i64 80, i1 false), !dbg !1827
  ret void, !dbg !1828
}

; <core::slice::iter::Iter<T> as core::iter::traits::iterator::Iterator>::next
; Function Attrs: inlinehint nounwind
define align 1 dereferenceable_or_null(64) i8* @"_ZN91_$LT$core..slice..iter..Iter$LT$T$GT$$u20$as$u20$core..iter..traits..iterator..Iterator$GT$4next17h8ac5e11da9ed8d58E"({ i8*, i8* }* align 8 dereferenceable(16) %self) unnamed_addr #0 !dbg !1829 {
start:
  %0 = alloca [64 x i8]*, align 8
  %count.dbg.spill.i1.i = alloca i64, align 8
  %self.dbg.spill.i2.i = alloca [64 x i8]*, align 8
  %old.dbg.spill.i = alloca [64 x i8]*, align 8
  %offset.dbg.spill.i = alloca i64, align 8
  %self.dbg.spill.i = alloca { i8*, i8* }*, align 8
  %1 = alloca [64 x i8]*, align 8
  %self.dbg.spill = alloca { i8*, i8* }*, align 8
  %2 = alloca i8*, align 8
  store { i8*, i8* }* %self, { i8*, i8* }** %self.dbg.spill, align 8
  call void @llvm.dbg.declare(metadata { i8*, i8* }** %self.dbg.spill, metadata !1846, metadata !DIExpression()), !dbg !1847
  %3 = bitcast { i8*, i8* }* %self to i8**, !dbg !1848
  %_6 = load i8*, i8** %3, align 8, !dbg !1848, !nonnull !4
; call core::ptr::non_null::NonNull<T>::as_ptr
  %_5 = call [64 x i8]* @"_ZN4core3ptr8non_null16NonNull$LT$T$GT$6as_ptr17h6047d37486932839E"(i8* nonnull %_6), !dbg !1848
  br label %bb1, !dbg !1848

bb1:                                              ; preds = %start
; call core::ptr::mut_ptr::<impl *mut T>::is_null
  %_4 = call zeroext i1 @"_ZN4core3ptr7mut_ptr31_$LT$impl$u20$$BP$mut$u20$T$GT$7is_null17hb5642e272f65ce67E"([64 x i8]* %_5), !dbg !1848
  br label %bb2, !dbg !1848

bb2:                                              ; preds = %bb1
  %_3 = xor i1 %_4, true, !dbg !1849
  call void @llvm.assume(i1 %_3), !dbg !1850
  br label %bb3, !dbg !1850

bb3:                                              ; preds = %bb2
  br label %bb4, !dbg !1851

bb4:                                              ; preds = %bb3
  %4 = icmp eq i64 64, 0, !dbg !1851
  br i1 %4, label %bb8, label %bb5, !dbg !1851

bb8:                                              ; preds = %bb4
  br label %bb9, !dbg !1852

bb5:                                              ; preds = %bb4
  %5 = getelementptr inbounds { i8*, i8* }, { i8*, i8* }* %self, i32 0, i32 1, !dbg !1853
  %6 = bitcast i8** %5 to [64 x i8]**, !dbg !1853
  %_11 = load [64 x i8]*, [64 x i8]** %6, align 8, !dbg !1853
; call core::ptr::const_ptr::<impl *const T>::is_null
  %_10 = call zeroext i1 @"_ZN4core3ptr9const_ptr33_$LT$impl$u20$$BP$const$u20$T$GT$7is_null17h1f1aa348791df014E"([64 x i8]* %_11), !dbg !1853
  br label %bb6, !dbg !1853

bb6:                                              ; preds = %bb5
  %_9 = xor i1 %_10, true, !dbg !1854
  call void @llvm.assume(i1 %_9), !dbg !1855
  br label %bb7, !dbg !1855

bb7:                                              ; preds = %bb6
  br label %bb9, !dbg !1852

bb9:                                              ; preds = %bb8, %bb7
  %7 = bitcast { i8*, i8* }* %self to i8**, !dbg !1856
  %_15 = load i8*, i8** %7, align 8, !dbg !1856, !nonnull !4
; call core::ptr::non_null::NonNull<T>::as_ptr
  %_14 = call [64 x i8]* @"_ZN4core3ptr8non_null16NonNull$LT$T$GT$6as_ptr17h6047d37486932839E"(i8* nonnull %_15), !dbg !1856
  br label %bb10, !dbg !1856

bb10:                                             ; preds = %bb9
  %8 = getelementptr inbounds { i8*, i8* }, { i8*, i8* }* %self, i32 0, i32 1, !dbg !1856
  %9 = bitcast i8** %8 to [64 x i8]**, !dbg !1856
  %_16 = load [64 x i8]*, [64 x i8]** %9, align 8, !dbg !1856
  %_12 = icmp eq [64 x i8]* %_14, %_16, !dbg !1856
  br i1 %_12, label %bb11, label %bb12, !dbg !1856

bb12:                                             ; preds = %bb10
  store { i8*, i8* }* %self, { i8*, i8* }** %self.dbg.spill.i, align 8
  call void @llvm.dbg.declare(metadata { i8*, i8* }** %self.dbg.spill.i, metadata !1857, metadata !DIExpression()) #10, !dbg !1865
  store i64 1, i64* %offset.dbg.spill.i, align 8
  call void @llvm.dbg.declare(metadata i64* %offset.dbg.spill.i, metadata !1862, metadata !DIExpression()) #10, !dbg !1867
  %10 = bitcast { i8*, i8* }* %self to i8**, !dbg !1868
  %_12.i = load i8*, i8** %10, align 8, !dbg !1868, !nonnull !4
; call core::ptr::non_null::NonNull<T>::as_ptr
  %old.i = call [64 x i8]* @"_ZN4core3ptr8non_null16NonNull$LT$T$GT$6as_ptr17h6047d37486932839E"(i8* nonnull %_12.i) #10, !dbg !1868
  store [64 x i8]* %old.i, [64 x i8]** %old.dbg.spill.i, align 8, !dbg !1868
  call void @llvm.dbg.declare(metadata [64 x i8]** %old.dbg.spill.i, metadata !1863, metadata !DIExpression()) #10, !dbg !1869
  %11 = bitcast { i8*, i8* }* %self to i8**, !dbg !1870
  %_16.i = load i8*, i8** %11, align 8, !dbg !1870, !nonnull !4
; call core::ptr::non_null::NonNull<T>::as_ptr
  %_15.i = call [64 x i8]* @"_ZN4core3ptr8non_null16NonNull$LT$T$GT$6as_ptr17h6047d37486932839E"(i8* nonnull %_16.i) #10, !dbg !1870
  store [64 x i8]* %_15.i, [64 x i8]** %self.dbg.spill.i2.i, align 8
  call void @llvm.dbg.declare(metadata [64 x i8]** %self.dbg.spill.i2.i, metadata !1871, metadata !DIExpression()) #10, !dbg !1877
  store i64 1, i64* %count.dbg.spill.i1.i, align 8
  call void @llvm.dbg.declare(metadata i64* %count.dbg.spill.i1.i, metadata !1876, metadata !DIExpression()) #10, !dbg !1879
  %12 = getelementptr inbounds [64 x i8], [64 x i8]* %_15.i, i64 1, !dbg !1880
  store [64 x i8]* %12, [64 x i8]** %0, align 8, !dbg !1880
  %_3.i.i = load [64 x i8]*, [64 x i8]** %0, align 8, !dbg !1880
; call core::ptr::non_null::NonNull<T>::new_unchecked
  %_13.i = call nonnull i8* @"_ZN4core3ptr8non_null16NonNull$LT$T$GT$13new_unchecked17h534ecdb4b66e2b94E"([64 x i8]* %_3.i.i) #10, !dbg !1881
  %13 = bitcast { i8*, i8* }* %self to i8**, !dbg !1882
  store i8* %_13.i, i8** %13, align 8, !dbg !1882
  store [64 x i8]* %old.i, [64 x i8]** %1, align 8, !dbg !1883
  %14 = load [64 x i8]*, [64 x i8]** %1, align 8, !dbg !1884
  br label %bb13, !dbg !1885

bb11:                                             ; preds = %bb10
  %15 = bitcast i8** %2 to {}**, !dbg !1886
  store {}* null, {}** %15, align 8, !dbg !1886
  br label %bb14, !dbg !1887

bb14:                                             ; preds = %bb13, %bb11
  %16 = load i8*, i8** %2, align 8, !dbg !1888
  ret i8* %16, !dbg !1888

bb13:                                             ; preds = %bb12
  %17 = bitcast i8** %2 to [64 x i8]**, !dbg !1889
  store [64 x i8]* %14, [64 x i8]** %17, align 8, !dbg !1889
  br label %bb14, !dbg !1887
}

; <core::slice::iter::Iter<T> as core::iter::traits::iterator::Iterator>::next
; Function Attrs: inlinehint nounwind
define align 1 dereferenceable_or_null(128) i8* @"_ZN91_$LT$core..slice..iter..Iter$LT$T$GT$$u20$as$u20$core..iter..traits..iterator..Iterator$GT$4next17h983731feb61a1debE"({ i8*, i8* }* align 8 dereferenceable(16) %self) unnamed_addr #0 !dbg !1890 {
start:
  %0 = alloca [128 x i8]*, align 8
  %count.dbg.spill.i1.i = alloca i64, align 8
  %self.dbg.spill.i2.i = alloca [128 x i8]*, align 8
  %old.dbg.spill.i = alloca [128 x i8]*, align 8
  %offset.dbg.spill.i = alloca i64, align 8
  %self.dbg.spill.i = alloca { i8*, i8* }*, align 8
  %1 = alloca [128 x i8]*, align 8
  %self.dbg.spill = alloca { i8*, i8* }*, align 8
  %2 = alloca i8*, align 8
  store { i8*, i8* }* %self, { i8*, i8* }** %self.dbg.spill, align 8
  call void @llvm.dbg.declare(metadata { i8*, i8* }** %self.dbg.spill, metadata !1905, metadata !DIExpression()), !dbg !1906
  %3 = bitcast { i8*, i8* }* %self to i8**, !dbg !1907
  %_6 = load i8*, i8** %3, align 8, !dbg !1907, !nonnull !4
; call core::ptr::non_null::NonNull<T>::as_ptr
  %_5 = call [128 x i8]* @"_ZN4core3ptr8non_null16NonNull$LT$T$GT$6as_ptr17h9b2ad35c1f145ad0E"(i8* nonnull %_6), !dbg !1907
  br label %bb1, !dbg !1907

bb1:                                              ; preds = %start
; call core::ptr::mut_ptr::<impl *mut T>::is_null
  %_4 = call zeroext i1 @"_ZN4core3ptr7mut_ptr31_$LT$impl$u20$$BP$mut$u20$T$GT$7is_null17he030bb0b8658b36cE"([128 x i8]* %_5), !dbg !1907
  br label %bb2, !dbg !1907

bb2:                                              ; preds = %bb1
  %_3 = xor i1 %_4, true, !dbg !1908
  call void @llvm.assume(i1 %_3), !dbg !1909
  br label %bb3, !dbg !1909

bb3:                                              ; preds = %bb2
  br label %bb4, !dbg !1910

bb4:                                              ; preds = %bb3
  %4 = icmp eq i64 128, 0, !dbg !1910
  br i1 %4, label %bb8, label %bb5, !dbg !1910

bb8:                                              ; preds = %bb4
  br label %bb9, !dbg !1911

bb5:                                              ; preds = %bb4
  %5 = getelementptr inbounds { i8*, i8* }, { i8*, i8* }* %self, i32 0, i32 1, !dbg !1912
  %6 = bitcast i8** %5 to [128 x i8]**, !dbg !1912
  %_11 = load [128 x i8]*, [128 x i8]** %6, align 8, !dbg !1912
; call core::ptr::const_ptr::<impl *const T>::is_null
  %_10 = call zeroext i1 @"_ZN4core3ptr9const_ptr33_$LT$impl$u20$$BP$const$u20$T$GT$7is_null17h2c070e7d49af0f0bE"([128 x i8]* %_11), !dbg !1912
  br label %bb6, !dbg !1912

bb6:                                              ; preds = %bb5
  %_9 = xor i1 %_10, true, !dbg !1913
  call void @llvm.assume(i1 %_9), !dbg !1914
  br label %bb7, !dbg !1914

bb7:                                              ; preds = %bb6
  br label %bb9, !dbg !1911

bb9:                                              ; preds = %bb8, %bb7
  %7 = bitcast { i8*, i8* }* %self to i8**, !dbg !1915
  %_15 = load i8*, i8** %7, align 8, !dbg !1915, !nonnull !4
; call core::ptr::non_null::NonNull<T>::as_ptr
  %_14 = call [128 x i8]* @"_ZN4core3ptr8non_null16NonNull$LT$T$GT$6as_ptr17h9b2ad35c1f145ad0E"(i8* nonnull %_15), !dbg !1915
  br label %bb10, !dbg !1915

bb10:                                             ; preds = %bb9
  %8 = getelementptr inbounds { i8*, i8* }, { i8*, i8* }* %self, i32 0, i32 1, !dbg !1915
  %9 = bitcast i8** %8 to [128 x i8]**, !dbg !1915
  %_16 = load [128 x i8]*, [128 x i8]** %9, align 8, !dbg !1915
  %_12 = icmp eq [128 x i8]* %_14, %_16, !dbg !1915
  br i1 %_12, label %bb11, label %bb12, !dbg !1915

bb12:                                             ; preds = %bb10
  store { i8*, i8* }* %self, { i8*, i8* }** %self.dbg.spill.i, align 8
  call void @llvm.dbg.declare(metadata { i8*, i8* }** %self.dbg.spill.i, metadata !1916, metadata !DIExpression()) #10, !dbg !1924
  store i64 1, i64* %offset.dbg.spill.i, align 8
  call void @llvm.dbg.declare(metadata i64* %offset.dbg.spill.i, metadata !1921, metadata !DIExpression()) #10, !dbg !1926
  %10 = bitcast { i8*, i8* }* %self to i8**, !dbg !1927
  %_12.i = load i8*, i8** %10, align 8, !dbg !1927, !nonnull !4
; call core::ptr::non_null::NonNull<T>::as_ptr
  %old.i = call [128 x i8]* @"_ZN4core3ptr8non_null16NonNull$LT$T$GT$6as_ptr17h9b2ad35c1f145ad0E"(i8* nonnull %_12.i) #10, !dbg !1927
  store [128 x i8]* %old.i, [128 x i8]** %old.dbg.spill.i, align 8, !dbg !1927
  call void @llvm.dbg.declare(metadata [128 x i8]** %old.dbg.spill.i, metadata !1922, metadata !DIExpression()) #10, !dbg !1928
  %11 = bitcast { i8*, i8* }* %self to i8**, !dbg !1929
  %_16.i = load i8*, i8** %11, align 8, !dbg !1929, !nonnull !4
; call core::ptr::non_null::NonNull<T>::as_ptr
  %_15.i = call [128 x i8]* @"_ZN4core3ptr8non_null16NonNull$LT$T$GT$6as_ptr17h9b2ad35c1f145ad0E"(i8* nonnull %_16.i) #10, !dbg !1929
  store [128 x i8]* %_15.i, [128 x i8]** %self.dbg.spill.i2.i, align 8
  call void @llvm.dbg.declare(metadata [128 x i8]** %self.dbg.spill.i2.i, metadata !1930, metadata !DIExpression()) #10, !dbg !1936
  store i64 1, i64* %count.dbg.spill.i1.i, align 8
  call void @llvm.dbg.declare(metadata i64* %count.dbg.spill.i1.i, metadata !1935, metadata !DIExpression()) #10, !dbg !1938
  %12 = getelementptr inbounds [128 x i8], [128 x i8]* %_15.i, i64 1, !dbg !1939
  store [128 x i8]* %12, [128 x i8]** %0, align 8, !dbg !1939
  %_3.i.i = load [128 x i8]*, [128 x i8]** %0, align 8, !dbg !1939
; call core::ptr::non_null::NonNull<T>::new_unchecked
  %_13.i = call nonnull i8* @"_ZN4core3ptr8non_null16NonNull$LT$T$GT$13new_unchecked17hc858cda088052a62E"([128 x i8]* %_3.i.i) #10, !dbg !1940
  %13 = bitcast { i8*, i8* }* %self to i8**, !dbg !1941
  store i8* %_13.i, i8** %13, align 8, !dbg !1941
  store [128 x i8]* %old.i, [128 x i8]** %1, align 8, !dbg !1942
  %14 = load [128 x i8]*, [128 x i8]** %1, align 8, !dbg !1943
  br label %bb13, !dbg !1944

bb11:                                             ; preds = %bb10
  %15 = bitcast i8** %2 to {}**, !dbg !1945
  store {}* null, {}** %15, align 8, !dbg !1945
  br label %bb14, !dbg !1946

bb14:                                             ; preds = %bb13, %bb11
  %16 = load i8*, i8** %2, align 8, !dbg !1947
  ret i8* %16, !dbg !1947

bb13:                                             ; preds = %bb12
  %17 = bitcast i8** %2 to [128 x i8]**, !dbg !1948
  store [128 x i8]* %14, [128 x i8]** %17, align 8, !dbg !1948
  br label %bb14, !dbg !1946
}

; <core::slice::iter::IterMut<T> as core::iter::traits::iterator::Iterator>::__iterator_get_unchecked
; Function Attrs: nounwind
define align 8 dereferenceable(8) i64* @"_ZN94_$LT$core..slice..iter..IterMut$LT$T$GT$$u20$as$u20$core..iter..traits..iterator..Iterator$GT$24__iterator_get_unchecked17h5e8c1527e7954ce8E"({ i64*, i64* }* align 8 dereferenceable(16) %self, i64 %idx) unnamed_addr #1 !dbg !1949 {
start:
  %0 = alloca i64*, align 8
  %count.dbg.spill.i.i = alloca i64, align 8
  %self.dbg.spill.i.i = alloca i64*, align 8
  %count.dbg.spill.i = alloca i64, align 8
  %self.dbg.spill.i = alloca i64*, align 8
  %idx.dbg.spill = alloca i64, align 8
  %self.dbg.spill = alloca { i64*, i64* }*, align 8
  store { i64*, i64* }* %self, { i64*, i64* }** %self.dbg.spill, align 8
  call void @llvm.dbg.declare(metadata { i64*, i64* }** %self.dbg.spill, metadata !1955, metadata !DIExpression()), !dbg !1957
  store i64 %idx, i64* %idx.dbg.spill, align 8
  call void @llvm.dbg.declare(metadata i64* %idx.dbg.spill, metadata !1956, metadata !DIExpression()), !dbg !1958
  %1 = bitcast { i64*, i64* }* %self to i64**, !dbg !1959
  %_8 = load i64*, i64** %1, align 8, !dbg !1959, !nonnull !4
; call core::ptr::non_null::NonNull<T>::as_ptr
  %_7 = call i64* @"_ZN4core3ptr8non_null16NonNull$LT$T$GT$6as_ptr17h60c5a30943565cf9E"(i64* nonnull %_8), !dbg !1959
  br label %bb1, !dbg !1959

bb1:                                              ; preds = %start
  store i64* %_7, i64** %self.dbg.spill.i, align 8
  call void @llvm.dbg.declare(metadata i64** %self.dbg.spill.i, metadata !1467, metadata !DIExpression()), !dbg !1960
  store i64 %idx, i64* %count.dbg.spill.i, align 8
  call void @llvm.dbg.declare(metadata i64* %count.dbg.spill.i, metadata !1472, metadata !DIExpression()), !dbg !1962
  store i64* %_7, i64** %self.dbg.spill.i.i, align 8
  call void @llvm.dbg.declare(metadata i64** %self.dbg.spill.i.i, metadata !1476, metadata !DIExpression()), !dbg !1963
  store i64 %idx, i64* %count.dbg.spill.i.i, align 8
  call void @llvm.dbg.declare(metadata i64* %count.dbg.spill.i.i, metadata !1481, metadata !DIExpression()), !dbg !1965
  %2 = getelementptr inbounds i64, i64* %_7, i64 %idx, !dbg !1966
  store i64* %2, i64** %0, align 8, !dbg !1966
  %_3.i.i = load i64*, i64** %0, align 8, !dbg !1966
  br label %bb2, !dbg !1959

bb2:                                              ; preds = %bb1
  ret i64* %_3.i.i, !dbg !1967
}

; <core::slice::iter::IterMut<T> as core::iter::traits::iterator::Iterator>::__iterator_get_unchecked
; Function Attrs: nounwind
define align 4 dereferenceable(4) i32* @"_ZN94_$LT$core..slice..iter..IterMut$LT$T$GT$$u20$as$u20$core..iter..traits..iterator..Iterator$GT$24__iterator_get_unchecked17h652fb5c8615ec912E"({ i32*, i32* }* align 8 dereferenceable(16) %self, i64 %idx) unnamed_addr #1 !dbg !1968 {
start:
  %0 = alloca i32*, align 8
  %count.dbg.spill.i.i = alloca i64, align 8
  %self.dbg.spill.i.i = alloca i32*, align 8
  %count.dbg.spill.i = alloca i64, align 8
  %self.dbg.spill.i = alloca i32*, align 8
  %idx.dbg.spill = alloca i64, align 8
  %self.dbg.spill = alloca { i32*, i32* }*, align 8
  store { i32*, i32* }* %self, { i32*, i32* }** %self.dbg.spill, align 8
  call void @llvm.dbg.declare(metadata { i32*, i32* }** %self.dbg.spill, metadata !1973, metadata !DIExpression()), !dbg !1975
  store i64 %idx, i64* %idx.dbg.spill, align 8
  call void @llvm.dbg.declare(metadata i64* %idx.dbg.spill, metadata !1974, metadata !DIExpression()), !dbg !1976
  %1 = bitcast { i32*, i32* }* %self to i32**, !dbg !1977
  %_8 = load i32*, i32** %1, align 8, !dbg !1977, !nonnull !4
; call core::ptr::non_null::NonNull<T>::as_ptr
  %_7 = call i32* @"_ZN4core3ptr8non_null16NonNull$LT$T$GT$6as_ptr17h397d707b1022eb6eE"(i32* nonnull %_8), !dbg !1977
  br label %bb1, !dbg !1977

bb1:                                              ; preds = %start
  store i32* %_7, i32** %self.dbg.spill.i, align 8
  call void @llvm.dbg.declare(metadata i32** %self.dbg.spill.i, metadata !1515, metadata !DIExpression()), !dbg !1978
  store i64 %idx, i64* %count.dbg.spill.i, align 8
  call void @llvm.dbg.declare(metadata i64* %count.dbg.spill.i, metadata !1520, metadata !DIExpression()), !dbg !1980
  store i32* %_7, i32** %self.dbg.spill.i.i, align 8
  call void @llvm.dbg.declare(metadata i32** %self.dbg.spill.i.i, metadata !1524, metadata !DIExpression()), !dbg !1981
  store i64 %idx, i64* %count.dbg.spill.i.i, align 8
  call void @llvm.dbg.declare(metadata i64* %count.dbg.spill.i.i, metadata !1529, metadata !DIExpression()), !dbg !1983
  %2 = getelementptr inbounds i32, i32* %_7, i64 %idx, !dbg !1984
  store i32* %2, i32** %0, align 8, !dbg !1984
  %_3.i.i = load i32*, i32** %0, align 8, !dbg !1984
  br label %bb2, !dbg !1977

bb2:                                              ; preds = %bb1
  ret i32* %_3.i.i, !dbg !1985
}

; <core::slice::iter::IterMut<T> as core::iter::traits::iterator::Iterator>::size_hint
; Function Attrs: inlinehint nounwind
define void @"_ZN94_$LT$core..slice..iter..IterMut$LT$T$GT$$u20$as$u20$core..iter..traits..iterator..Iterator$GT$9size_hint17h002af797dd30d961E"({ i64, { i64, i64 } }* noalias nocapture sret({ i64, { i64, i64 } }) dereferenceable(24) %0, { i32*, i32* }* align 8 dereferenceable(16) %self) unnamed_addr #0 !dbg !1986 {
start:
  %rhs.dbg.spill.i = alloca i64, align 8
  %self.dbg.spill.i = alloca i64, align 8
  %_1.dbg.spill.i = alloca i32*, align 8
  %diff.dbg.spill = alloca i64, align 8
  %1 = alloca i64, align 8
  %size.dbg.spill = alloca i64, align 8
  %start.dbg.spill = alloca i32*, align 8
  %self.dbg.spill = alloca { i32*, i32* }*, align 8
  %_23 = alloca { i64, i64 }, align 8
  %exact = alloca i64, align 8
  store { i32*, i32* }* %self, { i32*, i32* }** %self.dbg.spill, align 8
  call void @llvm.dbg.declare(metadata { i32*, i32* }** %self.dbg.spill, metadata !1994, metadata !DIExpression()), !dbg !2003
  call void @llvm.dbg.declare(metadata i64* %exact, metadata !1995, metadata !DIExpression()), !dbg !2004
  %2 = bitcast { i32*, i32* }* %self to i32**, !dbg !2005
  %start1 = load i32*, i32** %2, align 8, !dbg !2005, !nonnull !4
  store i32* %start1, i32** %start.dbg.spill, align 8, !dbg !2005
  call void @llvm.dbg.declare(metadata i32** %start.dbg.spill, metadata !1997, metadata !DIExpression()), !dbg !2006
; call core::ptr::non_null::NonNull<T>::as_ptr
  %_6 = call i32* @"_ZN4core3ptr8non_null16NonNull$LT$T$GT$6as_ptr17h397d707b1022eb6eE"(i32* nonnull %start1), !dbg !2006
  br label %bb1, !dbg !2006

bb1:                                              ; preds = %start
  store i32* %_6, i32** %_1.dbg.spill.i, align 8
  call void @llvm.dbg.declare(metadata i32** %_1.dbg.spill.i, metadata !2007, metadata !DIExpression()), !dbg !2012
  store i64 4, i64* %size.dbg.spill, align 8, !dbg !2006
  call void @llvm.dbg.declare(metadata i64* %size.dbg.spill, metadata !1999, metadata !DIExpression()), !dbg !2014
  br label %bb2, !dbg !2006

bb2:                                              ; preds = %bb1
  %3 = icmp eq i64 4, 0, !dbg !2014
  br i1 %3, label %bb3, label %bb6, !dbg !2014

bb3:                                              ; preds = %bb2
  %4 = getelementptr inbounds { i32*, i32* }, { i32*, i32* }* %self, i32 0, i32 1, !dbg !2014
  %_10 = load i32*, i32** %4, align 8, !dbg !2014
  %_9 = ptrtoint i32* %_10 to i64, !dbg !2014
; call core::ptr::non_null::NonNull<T>::as_ptr
  %_12 = call i32* @"_ZN4core3ptr8non_null16NonNull$LT$T$GT$6as_ptr17h397d707b1022eb6eE"(i32* nonnull %start1), !dbg !2014
  br label %bb4, !dbg !2014

bb6:                                              ; preds = %bb2
  %5 = getelementptr inbounds { i32*, i32* }, { i32*, i32* }* %self, i32 0, i32 1, !dbg !2014
  %_16 = load i32*, i32** %5, align 8, !dbg !2014
  %_15 = ptrtoint i32* %_16 to i64, !dbg !2014
; call core::ptr::non_null::NonNull<T>::as_ptr
  %_18 = call i32* @"_ZN4core3ptr8non_null16NonNull$LT$T$GT$6as_ptr17h397d707b1022eb6eE"(i32* nonnull %start1), !dbg !2014
  br label %bb7, !dbg !2014

bb7:                                              ; preds = %bb6
  %_17 = ptrtoint i32* %_18 to i64, !dbg !2014
  %6 = sub nuw i64 %_15, %_17, !dbg !2014
  store i64 %6, i64* %1, align 8, !dbg !2014
  %diff = load i64, i64* %1, align 8, !dbg !2014
  store i64 %diff, i64* %diff.dbg.spill, align 8, !dbg !2014
  call void @llvm.dbg.declare(metadata i64* %diff.dbg.spill, metadata !2001, metadata !DIExpression()), !dbg !2015
  br label %bb8, !dbg !2014

bb8:                                              ; preds = %bb7
  %7 = udiv exact i64 %diff, 4, !dbg !2015
  store i64 %7, i64* %exact, align 8, !dbg !2015
  br label %bb9, !dbg !2015

bb9:                                              ; preds = %bb8
  br label %bb10, !dbg !2014

bb10:                                             ; preds = %bb5, %bb9
  %_22 = load i64, i64* %exact, align 8, !dbg !2016
  %_24 = load i64, i64* %exact, align 8, !dbg !2017
  %8 = bitcast { i64, i64 }* %_23 to %"core::option::Option<usize>::Some"*, !dbg !2018
  %9 = getelementptr inbounds %"core::option::Option<usize>::Some", %"core::option::Option<usize>::Some"* %8, i32 0, i32 1, !dbg !2018
  store i64 %_24, i64* %9, align 8, !dbg !2018
  %10 = bitcast { i64, i64 }* %_23 to i64*, !dbg !2018
  store i64 1, i64* %10, align 8, !dbg !2018
  %11 = bitcast { i64, { i64, i64 } }* %0 to i64*, !dbg !2019
  store i64 %_22, i64* %11, align 8, !dbg !2019
  %12 = getelementptr inbounds { i64, { i64, i64 } }, { i64, { i64, i64 } }* %0, i32 0, i32 1, !dbg !2019
  %13 = getelementptr inbounds { i64, i64 }, { i64, i64 }* %_23, i32 0, i32 0, !dbg !2019
  %14 = load i64, i64* %13, align 8, !dbg !2019, !range !2020
  %15 = getelementptr inbounds { i64, i64 }, { i64, i64 }* %_23, i32 0, i32 1, !dbg !2019
  %16 = load i64, i64* %15, align 8, !dbg !2019
  %17 = getelementptr inbounds { i64, i64 }, { i64, i64 }* %12, i32 0, i32 0, !dbg !2019
  store i64 %14, i64* %17, align 8, !dbg !2019
  %18 = getelementptr inbounds { i64, i64 }, { i64, i64 }* %12, i32 0, i32 1, !dbg !2019
  store i64 %16, i64* %18, align 8, !dbg !2019
  ret void, !dbg !2021

bb4:                                              ; preds = %bb3
  %_11 = ptrtoint i32* %_12 to i64, !dbg !2014
  store i64 %_9, i64* %self.dbg.spill.i, align 8
  call void @llvm.dbg.declare(metadata i64* %self.dbg.spill.i, metadata !2022, metadata !DIExpression()), !dbg !2027
  store i64 %_11, i64* %rhs.dbg.spill.i, align 8
  call void @llvm.dbg.declare(metadata i64* %rhs.dbg.spill.i, metadata !2026, metadata !DIExpression()), !dbg !2029
  %19 = sub i64 %_9, %_11, !dbg !2030
  store i64 %19, i64* %exact, align 8, !dbg !2014
  br label %bb5, !dbg !2014

bb5:                                              ; preds = %bb4
  br label %bb10, !dbg !2014
}

; <core::slice::iter::IterMut<T> as core::iter::traits::iterator::Iterator>::size_hint
; Function Attrs: inlinehint nounwind
define void @"_ZN94_$LT$core..slice..iter..IterMut$LT$T$GT$$u20$as$u20$core..iter..traits..iterator..Iterator$GT$9size_hint17h21234902ae3f1c0dE"({ i64, { i64, i64 } }* noalias nocapture sret({ i64, { i64, i64 } }) dereferenceable(24) %0, { i64*, i64* }* align 8 dereferenceable(16) %self) unnamed_addr #0 !dbg !2031 {
start:
  %rhs.dbg.spill.i = alloca i64, align 8
  %self.dbg.spill.i = alloca i64, align 8
  %_1.dbg.spill.i = alloca i64*, align 8
  %diff.dbg.spill = alloca i64, align 8
  %1 = alloca i64, align 8
  %size.dbg.spill = alloca i64, align 8
  %start.dbg.spill = alloca i64*, align 8
  %self.dbg.spill = alloca { i64*, i64* }*, align 8
  %_23 = alloca { i64, i64 }, align 8
  %exact = alloca i64, align 8
  store { i64*, i64* }* %self, { i64*, i64* }** %self.dbg.spill, align 8
  call void @llvm.dbg.declare(metadata { i64*, i64* }** %self.dbg.spill, metadata !2035, metadata !DIExpression()), !dbg !2044
  call void @llvm.dbg.declare(metadata i64* %exact, metadata !2036, metadata !DIExpression()), !dbg !2045
  %2 = bitcast { i64*, i64* }* %self to i64**, !dbg !2046
  %start1 = load i64*, i64** %2, align 8, !dbg !2046, !nonnull !4
  store i64* %start1, i64** %start.dbg.spill, align 8, !dbg !2046
  call void @llvm.dbg.declare(metadata i64** %start.dbg.spill, metadata !2038, metadata !DIExpression()), !dbg !2047
; call core::ptr::non_null::NonNull<T>::as_ptr
  %_6 = call i64* @"_ZN4core3ptr8non_null16NonNull$LT$T$GT$6as_ptr17h60c5a30943565cf9E"(i64* nonnull %start1), !dbg !2047
  br label %bb1, !dbg !2047

bb1:                                              ; preds = %start
  store i64* %_6, i64** %_1.dbg.spill.i, align 8
  call void @llvm.dbg.declare(metadata i64** %_1.dbg.spill.i, metadata !2048, metadata !DIExpression()), !dbg !2053
  store i64 8, i64* %size.dbg.spill, align 8, !dbg !2047
  call void @llvm.dbg.declare(metadata i64* %size.dbg.spill, metadata !2040, metadata !DIExpression()), !dbg !2055
  br label %bb2, !dbg !2047

bb2:                                              ; preds = %bb1
  %3 = icmp eq i64 8, 0, !dbg !2055
  br i1 %3, label %bb3, label %bb6, !dbg !2055

bb3:                                              ; preds = %bb2
  %4 = getelementptr inbounds { i64*, i64* }, { i64*, i64* }* %self, i32 0, i32 1, !dbg !2055
  %_10 = load i64*, i64** %4, align 8, !dbg !2055
  %_9 = ptrtoint i64* %_10 to i64, !dbg !2055
; call core::ptr::non_null::NonNull<T>::as_ptr
  %_12 = call i64* @"_ZN4core3ptr8non_null16NonNull$LT$T$GT$6as_ptr17h60c5a30943565cf9E"(i64* nonnull %start1), !dbg !2055
  br label %bb4, !dbg !2055

bb6:                                              ; preds = %bb2
  %5 = getelementptr inbounds { i64*, i64* }, { i64*, i64* }* %self, i32 0, i32 1, !dbg !2055
  %_16 = load i64*, i64** %5, align 8, !dbg !2055
  %_15 = ptrtoint i64* %_16 to i64, !dbg !2055
; call core::ptr::non_null::NonNull<T>::as_ptr
  %_18 = call i64* @"_ZN4core3ptr8non_null16NonNull$LT$T$GT$6as_ptr17h60c5a30943565cf9E"(i64* nonnull %start1), !dbg !2055
  br label %bb7, !dbg !2055

bb7:                                              ; preds = %bb6
  %_17 = ptrtoint i64* %_18 to i64, !dbg !2055
  %6 = sub nuw i64 %_15, %_17, !dbg !2055
  store i64 %6, i64* %1, align 8, !dbg !2055
  %diff = load i64, i64* %1, align 8, !dbg !2055
  store i64 %diff, i64* %diff.dbg.spill, align 8, !dbg !2055
  call void @llvm.dbg.declare(metadata i64* %diff.dbg.spill, metadata !2042, metadata !DIExpression()), !dbg !2056
  br label %bb8, !dbg !2055

bb8:                                              ; preds = %bb7
  %7 = udiv exact i64 %diff, 8, !dbg !2056
  store i64 %7, i64* %exact, align 8, !dbg !2056
  br label %bb9, !dbg !2056

bb9:                                              ; preds = %bb8
  br label %bb10, !dbg !2055

bb10:                                             ; preds = %bb5, %bb9
  %_22 = load i64, i64* %exact, align 8, !dbg !2057
  %_24 = load i64, i64* %exact, align 8, !dbg !2058
  %8 = bitcast { i64, i64 }* %_23 to %"core::option::Option<usize>::Some"*, !dbg !2059
  %9 = getelementptr inbounds %"core::option::Option<usize>::Some", %"core::option::Option<usize>::Some"* %8, i32 0, i32 1, !dbg !2059
  store i64 %_24, i64* %9, align 8, !dbg !2059
  %10 = bitcast { i64, i64 }* %_23 to i64*, !dbg !2059
  store i64 1, i64* %10, align 8, !dbg !2059
  %11 = bitcast { i64, { i64, i64 } }* %0 to i64*, !dbg !2060
  store i64 %_22, i64* %11, align 8, !dbg !2060
  %12 = getelementptr inbounds { i64, { i64, i64 } }, { i64, { i64, i64 } }* %0, i32 0, i32 1, !dbg !2060
  %13 = getelementptr inbounds { i64, i64 }, { i64, i64 }* %_23, i32 0, i32 0, !dbg !2060
  %14 = load i64, i64* %13, align 8, !dbg !2060, !range !2020
  %15 = getelementptr inbounds { i64, i64 }, { i64, i64 }* %_23, i32 0, i32 1, !dbg !2060
  %16 = load i64, i64* %15, align 8, !dbg !2060
  %17 = getelementptr inbounds { i64, i64 }, { i64, i64 }* %12, i32 0, i32 0, !dbg !2060
  store i64 %14, i64* %17, align 8, !dbg !2060
  %18 = getelementptr inbounds { i64, i64 }, { i64, i64 }* %12, i32 0, i32 1, !dbg !2060
  store i64 %16, i64* %18, align 8, !dbg !2060
  ret void, !dbg !2061

bb4:                                              ; preds = %bb3
  %_11 = ptrtoint i64* %_12 to i64, !dbg !2055
  store i64 %_9, i64* %self.dbg.spill.i, align 8
  call void @llvm.dbg.declare(metadata i64* %self.dbg.spill.i, metadata !2022, metadata !DIExpression()), !dbg !2062
  store i64 %_11, i64* %rhs.dbg.spill.i, align 8
  call void @llvm.dbg.declare(metadata i64* %rhs.dbg.spill.i, metadata !2026, metadata !DIExpression()), !dbg !2064
  %19 = sub i64 %_9, %_11, !dbg !2065
  store i64 %19, i64* %exact, align 8, !dbg !2055
  br label %bb5, !dbg !2055

bb5:                                              ; preds = %bb4
  br label %bb10, !dbg !2055
}

; <core::slice::iter::ChunksExact<T> as core::iter::traits::iterator::Iterator>::__iterator_get_unchecked
; Function Attrs: nounwind
define { [0 x i8]*, i64 } @"_ZN98_$LT$core..slice..iter..ChunksExact$LT$T$GT$$u20$as$u20$core..iter..traits..iterator..Iterator$GT$24__iterator_get_unchecked17hbcc6a714238eadf1E"(%"core::slice::ChunksExact<u8>"* align 8 dereferenceable(40) %self, i64 %idx) unnamed_addr #1 !dbg !2066 {
start:
  %0 = alloca i8*, align 8
  %count.dbg.spill.i.i = alloca i64, align 8
  %self.dbg.spill.i.i = alloca i8*, align 8
  %count.dbg.spill.i = alloca i64, align 8
  %self.dbg.spill.i = alloca i8*, align 8
  %start.dbg.spill = alloca i64, align 8
  %idx.dbg.spill = alloca i64, align 8
  %self.dbg.spill = alloca %"core::slice::ChunksExact<u8>"*, align 8
  store %"core::slice::ChunksExact<u8>"* %self, %"core::slice::ChunksExact<u8>"** %self.dbg.spill, align 8
  call void @llvm.dbg.declare(metadata %"core::slice::ChunksExact<u8>"** %self.dbg.spill, metadata !2072, metadata !DIExpression()), !dbg !2076
  store i64 %idx, i64* %idx.dbg.spill, align 8
  call void @llvm.dbg.declare(metadata i64* %idx.dbg.spill, metadata !2073, metadata !DIExpression()), !dbg !2077
  %1 = getelementptr inbounds %"core::slice::ChunksExact<u8>", %"core::slice::ChunksExact<u8>"* %self, i32 0, i32 2, !dbg !2078
  %_5 = load i64, i64* %1, align 8, !dbg !2078
  %start1 = mul i64 %idx, %_5, !dbg !2079
  store i64 %start1, i64* %start.dbg.spill, align 8, !dbg !2079
  call void @llvm.dbg.declare(metadata i64* %start.dbg.spill, metadata !2074, metadata !DIExpression()), !dbg !2080
  %2 = bitcast %"core::slice::ChunksExact<u8>"* %self to { [0 x i8]*, i64 }*, !dbg !2081
  %3 = getelementptr inbounds { [0 x i8]*, i64 }, { [0 x i8]*, i64 }* %2, i32 0, i32 0, !dbg !2081
  %_8.0 = load [0 x i8]*, [0 x i8]** %3, align 8, !dbg !2081, !nonnull !4
  %4 = getelementptr inbounds { [0 x i8]*, i64 }, { [0 x i8]*, i64 }* %2, i32 0, i32 1, !dbg !2081
  %_8.1 = load i64, i64* %4, align 8, !dbg !2081
; call core::slice::<impl [T]>::as_ptr
  %_7 = call i8* @"_ZN4core5slice29_$LT$impl$u20$$u5b$T$u5d$$GT$6as_ptr17h4fbbe680d101d17bE"([0 x i8]* nonnull align 1 %_8.0, i64 %_8.1), !dbg !2081
  br label %bb1, !dbg !2081

bb1:                                              ; preds = %start
  store i8* %_7, i8** %self.dbg.spill.i, align 8
  call void @llvm.dbg.declare(metadata i8** %self.dbg.spill.i, metadata !2082, metadata !DIExpression()), !dbg !2086
  store i64 %start1, i64* %count.dbg.spill.i, align 8
  call void @llvm.dbg.declare(metadata i64* %count.dbg.spill.i, metadata !2085, metadata !DIExpression()), !dbg !2088
  store i8* %_7, i8** %self.dbg.spill.i.i, align 8
  call void @llvm.dbg.declare(metadata i8** %self.dbg.spill.i.i, metadata !2089, metadata !DIExpression()), !dbg !2093
  store i64 %start1, i64* %count.dbg.spill.i.i, align 8
  call void @llvm.dbg.declare(metadata i64* %count.dbg.spill.i.i, metadata !2092, metadata !DIExpression()), !dbg !2095
  %5 = getelementptr inbounds i8, i8* %_7, i64 %start1, !dbg !2096
  store i8* %5, i8** %0, align 8, !dbg !2096
  %6 = load i8*, i8** %0, align 8, !dbg !2096
  br label %bb2, !dbg !2081

bb2:                                              ; preds = %bb1
  %7 = getelementptr inbounds %"core::slice::ChunksExact<u8>", %"core::slice::ChunksExact<u8>"* %self, i32 0, i32 2, !dbg !2097
  %_10 = load i64, i64* %7, align 8, !dbg !2097
; call core::slice::raw::from_raw_parts
  %8 = call { [0 x i8]*, i64 } @_ZN4core5slice3raw14from_raw_parts17hf4e279f607bdffbeE(i8* %6, i64 %_10), !dbg !2098
  %9 = extractvalue { [0 x i8]*, i64 } %8, 0, !dbg !2098
  %10 = extractvalue { [0 x i8]*, i64 } %8, 1, !dbg !2098
  br label %bb3, !dbg !2098

bb3:                                              ; preds = %bb2
  %11 = insertvalue { [0 x i8]*, i64 } undef, [0 x i8]* %9, 0, !dbg !2099
  %12 = insertvalue { [0 x i8]*, i64 } %11, i64 %10, 1, !dbg !2099
  ret { [0 x i8]*, i64 } %12, !dbg !2099
}

; <core::slice::iter::ChunksExact<T> as core::iter::traits::iterator::Iterator>::size_hint
; Function Attrs: inlinehint nounwind
define void @"_ZN98_$LT$core..slice..iter..ChunksExact$LT$T$GT$$u20$as$u20$core..iter..traits..iterator..Iterator$GT$9size_hint17h7530e59b9649c048E"({ i64, { i64, i64 } }* noalias nocapture sret({ i64, { i64, i64 } }) dereferenceable(24) %0, %"core::slice::ChunksExact<u8>"* align 8 dereferenceable(40) %self) unnamed_addr #0 !dbg !2100 {
start:
  %n.dbg.spill = alloca i64, align 8
  %self.dbg.spill = alloca %"core::slice::ChunksExact<u8>"*, align 8
  %_8 = alloca { i64, i64 }, align 8
  store %"core::slice::ChunksExact<u8>"* %self, %"core::slice::ChunksExact<u8>"** %self.dbg.spill, align 8
  call void @llvm.dbg.declare(metadata %"core::slice::ChunksExact<u8>"** %self.dbg.spill, metadata !2104, metadata !DIExpression()), !dbg !2107
  %1 = bitcast %"core::slice::ChunksExact<u8>"* %self to { [0 x i8]*, i64 }*, !dbg !2108
  %2 = getelementptr inbounds { [0 x i8]*, i64 }, { [0 x i8]*, i64 }* %1, i32 0, i32 0, !dbg !2108
  %_4.0 = load [0 x i8]*, [0 x i8]** %2, align 8, !dbg !2108, !nonnull !4
  %3 = getelementptr inbounds { [0 x i8]*, i64 }, { [0 x i8]*, i64 }* %1, i32 0, i32 1, !dbg !2108
  %_4.1 = load i64, i64* %3, align 8, !dbg !2108
  %4 = getelementptr inbounds %"core::slice::ChunksExact<u8>", %"core::slice::ChunksExact<u8>"* %self, i32 0, i32 2, !dbg !2109
  %_5 = load i64, i64* %4, align 8, !dbg !2109
  %_6 = icmp eq i64 %_5, 0, !dbg !2108
  %5 = call i1 @llvm.expect.i1(i1 %_6, i1 false), !dbg !2108
  br i1 %5, label %panic, label %bb1, !dbg !2108

bb1:                                              ; preds = %start
  %n = udiv i64 %_4.1, %_5, !dbg !2108
  store i64 %n, i64* %n.dbg.spill, align 8, !dbg !2108
  call void @llvm.dbg.declare(metadata i64* %n.dbg.spill, metadata !2105, metadata !DIExpression()), !dbg !2110
  %6 = bitcast { i64, i64 }* %_8 to %"core::option::Option<usize>::Some"*, !dbg !2111
  %7 = getelementptr inbounds %"core::option::Option<usize>::Some", %"core::option::Option<usize>::Some"* %6, i32 0, i32 1, !dbg !2111
  store i64 %n, i64* %7, align 8, !dbg !2111
  %8 = bitcast { i64, i64 }* %_8 to i64*, !dbg !2111
  store i64 1, i64* %8, align 8, !dbg !2111
  %9 = bitcast { i64, { i64, i64 } }* %0 to i64*, !dbg !2112
  store i64 %n, i64* %9, align 8, !dbg !2112
  %10 = getelementptr inbounds { i64, { i64, i64 } }, { i64, { i64, i64 } }* %0, i32 0, i32 1, !dbg !2112
  %11 = getelementptr inbounds { i64, i64 }, { i64, i64 }* %_8, i32 0, i32 0, !dbg !2112
  %12 = load i64, i64* %11, align 8, !dbg !2112, !range !2020
  %13 = getelementptr inbounds { i64, i64 }, { i64, i64 }* %_8, i32 0, i32 1, !dbg !2112
  %14 = load i64, i64* %13, align 8, !dbg !2112
  %15 = getelementptr inbounds { i64, i64 }, { i64, i64 }* %10, i32 0, i32 0, !dbg !2112
  store i64 %12, i64* %15, align 8, !dbg !2112
  %16 = getelementptr inbounds { i64, i64 }, { i64, i64 }* %10, i32 0, i32 1, !dbg !2112
  store i64 %14, i64* %16, align 8, !dbg !2112
  ret void, !dbg !2113

panic:                                            ; preds = %start
; call core::panicking::panic
  call void @_ZN4core9panicking5panic17h560e3e4b7752857aE([0 x i8]* nonnull align 1 bitcast ([25 x i8]* @str.3 to [0 x i8]*), i64 25, %"core::panic::Location"* align 8 dereferenceable(24) bitcast (<{ i8*, [16 x i8] }>* @alloc702 to %"core::panic::Location"*)), !dbg !2108
  unreachable, !dbg !2108
}

; sha2::sha256::compress256
; Function Attrs: nounwind
define void @_ZN4sha26sha25611compress25617h92ce412c68561d70E([8 x i32]* align 4 dereferenceable(32) %state, [0 x %"digest::generic_array::GenericArray<u8, digest::typenum::UInt<digest::typenum::UInt<digest::typenum::UInt<digest::typenum::UInt<digest::typenum::UInt<digest::typenum::UInt<digest::typenum::UInt<digest::typenum::UTerm, digest::typenum::B1>, digest::typenum::B0>, digest::typenum::B0>, digest::typenum::B0>, digest::typenum::B0>, digest::typenum::B0>, digest::typenum::B0>>"]* nonnull align 1 %blocks.0, i64 %blocks.1) unnamed_addr #1 !dbg !2114 {
start:
  %blocks.dbg.spill3 = alloca { [0 x [64 x i8]]*, i64 }, align 8
  %p.dbg.spill = alloca [64 x i8]*, align 8
  %blocks.dbg.spill = alloca { [0 x %"digest::generic_array::GenericArray<u8, digest::typenum::UInt<digest::typenum::UInt<digest::typenum::UInt<digest::typenum::UInt<digest::typenum::UInt<digest::typenum::UInt<digest::typenum::UInt<digest::typenum::UTerm, digest::typenum::B1>, digest::typenum::B0>, digest::typenum::B0>, digest::typenum::B0>, digest::typenum::B0>, digest::typenum::B0>, digest::typenum::B0>>"]*, i64 }, align 8
  %state.dbg.spill = alloca [8 x i32]*, align 8
  store [8 x i32]* %state, [8 x i32]** %state.dbg.spill, align 8
  call void @llvm.dbg.declare(metadata [8 x i32]** %state.dbg.spill, metadata !2123, metadata !DIExpression()), !dbg !2129
  %0 = getelementptr inbounds { [0 x %"digest::generic_array::GenericArray<u8, digest::typenum::UInt<digest::typenum::UInt<digest::typenum::UInt<digest::typenum::UInt<digest::typenum::UInt<digest::typenum::UInt<digest::typenum::UInt<digest::typenum::UTerm, digest::typenum::B1>, digest::typenum::B0>, digest::typenum::B0>, digest::typenum::B0>, digest::typenum::B0>, digest::typenum::B0>, digest::typenum::B0>>"]*, i64 }, { [0 x %"digest::generic_array::GenericArray<u8, digest::typenum::UInt<digest::typenum::UInt<digest::typenum::UInt<digest::typenum::UInt<digest::typenum::UInt<digest::typenum::UInt<digest::typenum::UInt<digest::typenum::UTerm, digest::typenum::B1>, digest::typenum::B0>, digest::typenum::B0>, digest::typenum::B0>, digest::typenum::B0>, digest::typenum::B0>, digest::typenum::B0>>"]*, i64 }* %blocks.dbg.spill, i32 0, i32 0
  store [0 x %"digest::generic_array::GenericArray<u8, digest::typenum::UInt<digest::typenum::UInt<digest::typenum::UInt<digest::typenum::UInt<digest::typenum::UInt<digest::typenum::UInt<digest::typenum::UInt<digest::typenum::UTerm, digest::typenum::B1>, digest::typenum::B0>, digest::typenum::B0>, digest::typenum::B0>, digest::typenum::B0>, digest::typenum::B0>, digest::typenum::B0>>"]* %blocks.0, [0 x %"digest::generic_array::GenericArray<u8, digest::typenum::UInt<digest::typenum::UInt<digest::typenum::UInt<digest::typenum::UInt<digest::typenum::UInt<digest::typenum::UInt<digest::typenum::UInt<digest::typenum::UTerm, digest::typenum::B1>, digest::typenum::B0>, digest::typenum::B0>, digest::typenum::B0>, digest::typenum::B0>, digest::typenum::B0>, digest::typenum::B0>>"]** %0, align 8
  %1 = getelementptr inbounds { [0 x %"digest::generic_array::GenericArray<u8, digest::typenum::UInt<digest::typenum::UInt<digest::typenum::UInt<digest::typenum::UInt<digest::typenum::UInt<digest::typenum::UInt<digest::typenum::UInt<digest::typenum::UTerm, digest::typenum::B1>, digest::typenum::B0>, digest::typenum::B0>, digest::typenum::B0>, digest::typenum::B0>, digest::typenum::B0>, digest::typenum::B0>>"]*, i64 }, { [0 x %"digest::generic_array::GenericArray<u8, digest::typenum::UInt<digest::typenum::UInt<digest::typenum::UInt<digest::typenum::UInt<digest::typenum::UInt<digest::typenum::UInt<digest::typenum::UInt<digest::typenum::UTerm, digest::typenum::B1>, digest::typenum::B0>, digest::typenum::B0>, digest::typenum::B0>, digest::typenum::B0>, digest::typenum::B0>, digest::typenum::B0>>"]*, i64 }* %blocks.dbg.spill, i32 0, i32 1
  store i64 %blocks.1, i64* %1, align 8
  call void @llvm.dbg.declare(metadata { [0 x %"digest::generic_array::GenericArray<u8, digest::typenum::UInt<digest::typenum::UInt<digest::typenum::UInt<digest::typenum::UInt<digest::typenum::UInt<digest::typenum::UInt<digest::typenum::UInt<digest::typenum::UTerm, digest::typenum::B1>, digest::typenum::B0>, digest::typenum::B0>, digest::typenum::B0>, digest::typenum::B0>, digest::typenum::B0>, digest::typenum::B0>>"]*, i64 }* %blocks.dbg.spill, metadata !2124, metadata !DIExpression()), !dbg !2130
; call core::slice::<impl [T]>::as_ptr
  %_4 = call %"digest::generic_array::GenericArray<u8, digest::typenum::UInt<digest::typenum::UInt<digest::typenum::UInt<digest::typenum::UInt<digest::typenum::UInt<digest::typenum::UInt<digest::typenum::UInt<digest::typenum::UTerm, digest::typenum::B1>, digest::typenum::B0>, digest::typenum::B0>, digest::typenum::B0>, digest::typenum::B0>, digest::typenum::B0>, digest::typenum::B0>>"* @"_ZN4core5slice29_$LT$impl$u20$$u5b$T$u5d$$GT$6as_ptr17h0fa854dc80af967bE"([0 x %"digest::generic_array::GenericArray<u8, digest::typenum::UInt<digest::typenum::UInt<digest::typenum::UInt<digest::typenum::UInt<digest::typenum::UInt<digest::typenum::UInt<digest::typenum::UInt<digest::typenum::UTerm, digest::typenum::B1>, digest::typenum::B0>, digest::typenum::B0>, digest::typenum::B0>, digest::typenum::B0>, digest::typenum::B0>, digest::typenum::B0>>"]* nonnull align 1 %blocks.0, i64 %blocks.1), !dbg !2131
  br label %bb1, !dbg !2131

bb1:                                              ; preds = %start
  %p = bitcast %"digest::generic_array::GenericArray<u8, digest::typenum::UInt<digest::typenum::UInt<digest::typenum::UInt<digest::typenum::UInt<digest::typenum::UInt<digest::typenum::UInt<digest::typenum::UInt<digest::typenum::UTerm, digest::typenum::B1>, digest::typenum::B0>, digest::typenum::B0>, digest::typenum::B0>, digest::typenum::B0>, digest::typenum::B0>, digest::typenum::B0>>"* %_4 to [64 x i8]*, !dbg !2131
  store [64 x i8]* %p, [64 x i8]** %p.dbg.spill, align 8, !dbg !2131
  call void @llvm.dbg.declare(metadata [64 x i8]** %p.dbg.spill, metadata !2125, metadata !DIExpression()), !dbg !2132
; call core::slice::raw::from_raw_parts
  %2 = call { [0 x [64 x i8]]*, i64 } @_ZN4core5slice3raw14from_raw_parts17hdafe7d959f666e18E([64 x i8]* %p, i64 %blocks.1), !dbg !2133
  %blocks.01 = extractvalue { [0 x [64 x i8]]*, i64 } %2, 0, !dbg !2133
  %blocks.12 = extractvalue { [0 x [64 x i8]]*, i64 } %2, 1, !dbg !2133
  %3 = getelementptr inbounds { [0 x [64 x i8]]*, i64 }, { [0 x [64 x i8]]*, i64 }* %blocks.dbg.spill3, i32 0, i32 0, !dbg !2133
  store [0 x [64 x i8]]* %blocks.01, [0 x [64 x i8]]** %3, align 8, !dbg !2133
  %4 = getelementptr inbounds { [0 x [64 x i8]]*, i64 }, { [0 x [64 x i8]]*, i64 }* %blocks.dbg.spill3, i32 0, i32 1, !dbg !2133
  store i64 %blocks.12, i64* %4, align 8, !dbg !2133
  call void @llvm.dbg.declare(metadata { [0 x [64 x i8]]*, i64 }* %blocks.dbg.spill3, metadata !2127, metadata !DIExpression()), !dbg !2134
  br label %bb2, !dbg !2133

bb2:                                              ; preds = %bb1
; call sha2::sha256::soft::compress
  call void @_ZN4sha26sha2564soft8compress17h3d58c63074786244E([8 x i32]* align 4 dereferenceable(32) %state, [0 x [64 x i8]]* nonnull align 1 %blocks.01, i64 %blocks.12), !dbg !2135
  br label %bb3, !dbg !2135

bb3:                                              ; preds = %bb2
  ret void, !dbg !2136
}

; sha2::sha512::compress512
; Function Attrs: nounwind
define void @_ZN4sha26sha51211compress51217h114c50551460614aE([8 x i64]* align 8 dereferenceable(64) %state, [0 x %"digest::generic_array::GenericArray<u8, digest::typenum::UInt<digest::typenum::UInt<digest::typenum::UInt<digest::typenum::UInt<digest::typenum::UInt<digest::typenum::UInt<digest::typenum::UInt<digest::typenum::UInt<digest::typenum::UTerm, digest::typenum::B1>, digest::typenum::B0>, digest::typenum::B0>, digest::typenum::B0>, digest::typenum::B0>, digest::typenum::B0>, digest::typenum::B0>, digest::typenum::B0>>"]* nonnull align 1 %blocks.0, i64 %blocks.1) unnamed_addr #1 !dbg !2137 {
start:
  %blocks.dbg.spill3 = alloca { [0 x [128 x i8]]*, i64 }, align 8
  %p.dbg.spill = alloca [128 x i8]*, align 8
  %blocks.dbg.spill = alloca { [0 x %"digest::generic_array::GenericArray<u8, digest::typenum::UInt<digest::typenum::UInt<digest::typenum::UInt<digest::typenum::UInt<digest::typenum::UInt<digest::typenum::UInt<digest::typenum::UInt<digest::typenum::UInt<digest::typenum::UTerm, digest::typenum::B1>, digest::typenum::B0>, digest::typenum::B0>, digest::typenum::B0>, digest::typenum::B0>, digest::typenum::B0>, digest::typenum::B0>, digest::typenum::B0>>"]*, i64 }, align 8
  %state.dbg.spill = alloca [8 x i64]*, align 8
  store [8 x i64]* %state, [8 x i64]** %state.dbg.spill, align 8
  call void @llvm.dbg.declare(metadata [8 x i64]** %state.dbg.spill, metadata !2145, metadata !DIExpression()), !dbg !2151
  %0 = getelementptr inbounds { [0 x %"digest::generic_array::GenericArray<u8, digest::typenum::UInt<digest::typenum::UInt<digest::typenum::UInt<digest::typenum::UInt<digest::typenum::UInt<digest::typenum::UInt<digest::typenum::UInt<digest::typenum::UInt<digest::typenum::UTerm, digest::typenum::B1>, digest::typenum::B0>, digest::typenum::B0>, digest::typenum::B0>, digest::typenum::B0>, digest::typenum::B0>, digest::typenum::B0>, digest::typenum::B0>>"]*, i64 }, { [0 x %"digest::generic_array::GenericArray<u8, digest::typenum::UInt<digest::typenum::UInt<digest::typenum::UInt<digest::typenum::UInt<digest::typenum::UInt<digest::typenum::UInt<digest::typenum::UInt<digest::typenum::UInt<digest::typenum::UTerm, digest::typenum::B1>, digest::typenum::B0>, digest::typenum::B0>, digest::typenum::B0>, digest::typenum::B0>, digest::typenum::B0>, digest::typenum::B0>, digest::typenum::B0>>"]*, i64 }* %blocks.dbg.spill, i32 0, i32 0
