; ModuleID = 'solana_frozen_abi.ce94849e-cgu.0'
source_filename = "solana_frozen_abi.ce94849e-cgu.0"
target datalayout = "e-m:e-p:64:64-i64:64-n32:64-S128"
target triple = "bpfel"

%"std::sync::atomic::AtomicUsize" = type { i64 }
%"std::string::String" = type { %"std::vec::Vec<u8>" }
%"std::vec::Vec<u8>" = type { { i8*, i64 }, i64 }
%"std::panic::Location" = type { { [0 x i8]*, i64 }, i32, i32 }
%"std::ops::RangeFull" = type {}
%"std::slice::ChunksExactMut<u8>" = type { { [0 x i8]*, i64 }, { [0 x i8]*, i64 }, i64 }
%"std::option::Option<usize>::Some" = type { [1 x i64], i64 }
%"[closure@std::iter::Iterator::for_each::call<std::string::String, [closure@<std::vec::Vec<std::string::String> as std::vec::spec_extend::SpecExtend<std::string::String, std::iter::Map<std::slice::Iter<&str>, [closure@/root/.cargo/registry/src/github.com-1ecc6299db9ec823/solana-frozen-abi-1.10.0/src/abi_digester.rs:141:18: 145:14]>>>::spec_extend::{closure#0}]>::{closure#0}]" = type { %"[closure@<std::vec::Vec<std::string::String> as std::vec::spec_extend::SpecExtend<std::string::String, std::iter::Map<std::slice::Iter<&str>, [closure@/root/.cargo/registry/src/github.com-1ecc6299db9ec823/solana-frozen-abi-1.10.0/src/abi_digester.rs:141:18: 145:14]>>>::spec_extend::{closure#0}]" }
%"[closure@<std::vec::Vec<std::string::String> as std::vec::spec_extend::SpecExtend<std::string::String, std::iter::Map<std::slice::Iter<&str>, [closure@/root/.cargo/registry/src/github.com-1ecc6299db9ec823/solana-frozen-abi-1.10.0/src/abi_digester.rs:141:18: 145:14]>>>::spec_extend::{closure#0}]" = type { %"std::string::String"*, { i64*, i64 } }
%"[closure@std::iter::adapters::map::map_fold<&&str, std::string::String, (), [closure@/root/.cargo/registry/src/github.com-1ecc6299db9ec823/solana-frozen-abi-1.10.0/src/abi_digester.rs:141:18: 145:14], [closure@std::iter::Iterator::for_each::call<std::string::String, [closure@<std::vec::Vec<std::string::String> as std::vec::spec_extend::SpecExtend<std::string::String, std::iter::Map<std::slice::Iter<&str>, [closure@/root/.cargo/registry/src/github.com-1ecc6299db9ec823/solana-frozen-abi-1.10.0/src/abi_digester.rs:141:18: 145:14]>>>::spec_extend::{closure#0}]>::{closure#0}]>::{closure#0}]" = type { %"[closure@/root/.cargo/registry/src/github.com-1ecc6299db9ec823/solana-frozen-abi-1.10.0/src/abi_digester.rs:141:18: 145:14]", %"[closure@std::iter::Iterator::for_each::call<std::string::String, [closure@<std::vec::Vec<std::string::String> as std::vec::spec_extend::SpecExtend<std::string::String, std::iter::Map<std::slice::Iter<&str>, [closure@/root/.cargo/registry/src/github.com-1ecc6299db9ec823/solana-frozen-abi-1.10.0/src/abi_digester.rs:141:18: 145:14]>>>::spec_extend::{closure#0}]>::{closure#0}]" }
%"[closure@/root/.cargo/registry/src/github.com-1ecc6299db9ec823/solana-frozen-abi-1.10.0/src/abi_digester.rs:141:18: 145:14]" = type {}
%"[closure@std::str::join_generic_copy<str, u8, std::string::String>::{closure#0}::{closure#0}]" = type {}
%"std::option::Option<(&mut [u8], &u32)>" = type { {}*, [2 x i64] }
%"std::iter::Zip<std::slice::ChunksExactMut<u8>, std::slice::Iter<u32>>" = type { %"std::slice::ChunksExactMut<u8>", { i32*, i32* }, i64, i64, i64 }
%"std::str::CharIndices" = type { i64, { i8*, i8* } }
%"std::str::pattern::SearchStep" = type { i64, [2 x i64] }
%"std::str::pattern::MultiCharEqSearcher<[closure@core::str::<impl str>::trim_end::{closure#0}]>" = type { %"[closure@core::str::<impl str>::trim_end::{closure#0}]", { [0 x i8]*, i64 }, %"std::str::CharIndices" }
%"[closure@core::str::<impl str>::trim_end::{closure#0}]" = type {}
%"std::str::pattern::SearchStep::Reject" = type { [1 x i64], i64, i64 }
%"std::str::pattern::SearchStep::Match" = type { [1 x i64], i64, i64 }
%"std::option::Option<(usize, usize)>" = type { i64, [2 x i64] }
%"std::str::pattern::CharPredicateSearcher<[closure@core::str::<impl str>::trim_end::{closure#0}]>" = type { %"std::str::pattern::MultiCharEqSearcher<[closure@core::str::<impl str>::trim_end::{closure#0}]>" }
%"std::iter::Enumerate<std::slice::IterMut<u8>>" = type { { i8*, i8* }, i64 }
%"[closure@<std::iter::Enumerate<I> as std::iter::Iterator>::fold::enumerate<&mut u8, (), [closure@std::iter::Iterator::for_each::call<(usize, &mut u8), [closure@<sha2::digest::generic_array::GenericArray<u8, sha2::digest::typenum::UInt<sha2::digest::typenum::UInt<sha2::digest::typenum::UInt<sha2::digest::typenum::UInt<sha2::digest::typenum::UInt<sha2::digest::typenum::UInt<sha2::digest::typenum::UTerm, sha2::digest::typenum::B1>, sha2::digest::typenum::B0>, sha2::digest::typenum::B0>, sha2::digest::typenum::B0>, sha2::digest::typenum::B0>, sha2::digest::typenum::B0>> as sha2::digest::generic_array::sequence::GenericSequence<u8>>::generate<[closure@sha2::digest::generic_array::impls::<impl std::default::Default for sha2::digest::generic_array::GenericArray<u8, sha2::digest::typenum::UInt<sha2::digest::typenum::UInt<sha2::digest::typenum::UInt<sha2::digest::typenum::UInt<sha2::digest::typenum::UInt<sha2::digest::typenum::UInt<sha2::digest::typenum::UTerm, sha2::digest::typenum::B1>, sha2::digest::typenum::B0>, sha2::digest::typenum::B0>, sha2::digest::typenum::B0>, sha2::digest::typenum::B0>, sha2::digest::typenum::B0>>>::default::{closure#0}]>::{closure#0}]>::{closure#0}]>::{closure#0}]" = type { { i8*, i64* }, i64 }
%"[closure@<std::iter::Enumerate<I> as std::iter::Iterator>::fold::enumerate<&mut u8, (), [closure@std::iter::Iterator::for_each::call<(usize, &mut u8), [closure@<sha2::digest::generic_array::GenericArray<u8, sha2::digest::typenum::UInt<sha2::digest::typenum::UInt<sha2::digest::typenum::UInt<sha2::digest::typenum::UInt<sha2::digest::typenum::UInt<sha2::digest::typenum::UInt<sha2::digest::typenum::UInt<sha2::digest::typenum::UTerm, sha2::digest::typenum::B1>, sha2::digest::typenum::B0>, sha2::digest::typenum::B0>, sha2::digest::typenum::B0>, sha2::digest::typenum::B0>, sha2::digest::typenum::B0>, sha2::digest::typenum::B0>> as sha2::digest::generic_array::sequence::GenericSequence<u8>>::generate<[closure@sha2::digest::generic_array::impls::<impl std::default::Default for sha2::digest::generic_array::GenericArray<u8, sha2::digest::typenum::UInt<sha2::digest::typenum::UInt<sha2::digest::typenum::UInt<sha2::digest::typenum::UInt<sha2::digest::typenum::UInt<sha2::digest::typenum::UInt<sha2::digest::typenum::UInt<sha2::digest::typenum::UTerm, sha2::digest::typenum::B1>, sha2::digest::typenum::B0>, sha2::digest::typenum::B0>, sha2::digest::typenum::B0>, sha2::digest::typenum::B0>, sha2::digest::typenum::B0>, sha2::digest::typenum::B0>>>::default::{closure#0}]>::{closure#0}]>::{closure#0}]>::{closure#0}]" = type { { i8*, i64* }, i64 }
%"sha2::digest::generic_array::GenericArray<u8, sha2::digest::typenum::UInt<sha2::digest::typenum::UInt<sha2::digest::typenum::UInt<sha2::digest::typenum::UInt<sha2::digest::typenum::UInt<sha2::digest::typenum::UInt<sha2::digest::typenum::UTerm, sha2::digest::typenum::B1>, sha2::digest::typenum::B0>, sha2::digest::typenum::B0>, sha2::digest::typenum::B0>, sha2::digest::typenum::B0>, sha2::digest::typenum::B0>>" = type { %"sha2::digest::generic_array::GenericArrayImplEven<u8, sha2::digest::generic_array::GenericArrayImplEven<u8, sha2::digest::generic_array::GenericArrayImplEven<u8, sha2::digest::generic_array::GenericArrayImplEven<u8, sha2::digest::generic_array::GenericArrayImplEven<u8, sha2::digest::generic_array::GenericArrayImplOdd<u8, [u8; 0]>>>>>>" }
%"sha2::digest::generic_array::GenericArrayImplEven<u8, sha2::digest::generic_array::GenericArrayImplEven<u8, sha2::digest::generic_array::GenericArrayImplEven<u8, sha2::digest::generic_array::GenericArrayImplEven<u8, sha2::digest::generic_array::GenericArrayImplEven<u8, sha2::digest::generic_array::GenericArrayImplOdd<u8, [u8; 0]>>>>>>" = type { %"sha2::digest::generic_array::GenericArrayImplEven<u8, sha2::digest::generic_array::GenericArrayImplEven<u8, sha2::digest::generic_array::GenericArrayImplEven<u8, sha2::digest::generic_array::GenericArrayImplEven<u8, sha2::digest::generic_array::GenericArrayImplOdd<u8, [u8; 0]>>>>>", %"sha2::digest::generic_array::GenericArrayImplEven<u8, sha2::digest::generic_array::GenericArrayImplEven<u8, sha2::digest::generic_array::GenericArrayImplEven<u8, sha2::digest::generic_array::GenericArrayImplEven<u8, sha2::digest::generic_array::GenericArrayImplOdd<u8, [u8; 0]>>>>>", %"std::marker::PhantomData<u8>" }
%"sha2::digest::generic_array::GenericArrayImplEven<u8, sha2::digest::generic_array::GenericArrayImplEven<u8, sha2::digest::generic_array::GenericArrayImplEven<u8, sha2::digest::generic_array::GenericArrayImplEven<u8, sha2::digest::generic_array::GenericArrayImplOdd<u8, [u8; 0]>>>>>" = type { %"sha2::digest::generic_array::GenericArrayImplEven<u8, sha2::digest::generic_array::GenericArrayImplEven<u8, sha2::digest::generic_array::GenericArrayImplEven<u8, sha2::digest::generic_array::GenericArrayImplOdd<u8, [u8; 0]>>>>", %"sha2::digest::generic_array::GenericArrayImplEven<u8, sha2::digest::generic_array::GenericArrayImplEven<u8, sha2::digest::generic_array::GenericArrayImplEven<u8, sha2::digest::generic_array::GenericArrayImplOdd<u8, [u8; 0]>>>>", %"std::marker::PhantomData<u8>" }
%"sha2::digest::generic_array::GenericArrayImplEven<u8, sha2::digest::generic_array::GenericArrayImplEven<u8, sha2::digest::generic_array::GenericArrayImplEven<u8, sha2::digest::generic_array::GenericArrayImplOdd<u8, [u8; 0]>>>>" = type { %"sha2::digest::generic_array::GenericArrayImplEven<u8, sha2::digest::generic_array::GenericArrayImplEven<u8, sha2::digest::generic_array::GenericArrayImplOdd<u8, [u8; 0]>>>", %"sha2::digest::generic_array::GenericArrayImplEven<u8, sha2::digest::generic_array::GenericArrayImplEven<u8, sha2::digest::generic_array::GenericArrayImplOdd<u8, [u8; 0]>>>", %"std::marker::PhantomData<u8>" }
%"sha2::digest::generic_array::GenericArrayImplEven<u8, sha2::digest::generic_array::GenericArrayImplEven<u8, sha2::digest::generic_array::GenericArrayImplOdd<u8, [u8; 0]>>>" = type { %"sha2::digest::generic_array::GenericArrayImplEven<u8, sha2::digest::generic_array::GenericArrayImplOdd<u8, [u8; 0]>>", %"sha2::digest::generic_array::GenericArrayImplEven<u8, sha2::digest::generic_array::GenericArrayImplOdd<u8, [u8; 0]>>", %"std::marker::PhantomData<u8>" }
%"sha2::digest::generic_array::GenericArrayImplEven<u8, sha2::digest::generic_array::GenericArrayImplOdd<u8, [u8; 0]>>" = type { %"sha2::digest::generic_array::GenericArrayImplOdd<u8, [u8; 0]>", %"sha2::digest::generic_array::GenericArrayImplOdd<u8, [u8; 0]>", %"std::marker::PhantomData<u8>" }
%"sha2::digest::generic_array::GenericArrayImplOdd<u8, [u8; 0]>" = type { [0 x i8], [0 x i8], i8 }
%"std::marker::PhantomData<u8>" = type {}
%"sha2::digest::generic_array::ArrayBuilder<u8, sha2::digest::typenum::UInt<sha2::digest::typenum::UInt<sha2::digest::typenum::UInt<sha2::digest::typenum::UInt<sha2::digest::typenum::UInt<sha2::digest::typenum::UInt<sha2::digest::typenum::UTerm, sha2::digest::typenum::B1>, sha2::digest::typenum::B0>, sha2::digest::typenum::B0>, sha2::digest::typenum::B0>, sha2::digest::typenum::B0>, sha2::digest::typenum::B0>>" = type { i64, %"std::mem::MaybeUninit<sha2::digest::generic_array::GenericArray<u8, sha2::digest::typenum::UInt<sha2::digest::typenum::UInt<sha2::digest::typenum::UInt<sha2::digest::typenum::UInt<sha2::digest::typenum::UInt<sha2::digest::typenum::UInt<sha2::digest::typenum::UTerm, sha2::digest::typenum::B1>, sha2::digest::typenum::B0>, sha2::digest::typenum::B0>, sha2::digest::typenum::B0>, sha2::digest::typenum::B0>, sha2::digest::typenum::B0>>>" }
%"std::mem::MaybeUninit<sha2::digest::generic_array::GenericArray<u8, sha2::digest::typenum::UInt<sha2::digest::typenum::UInt<sha2::digest::typenum::UInt<sha2::digest::typenum::UInt<sha2::digest::typenum::UInt<sha2::digest::typenum::UInt<sha2::digest::typenum::UTerm, sha2::digest::typenum::B1>, sha2::digest::typenum::B0>, sha2::digest::typenum::B0>, sha2::digest::typenum::B0>, sha2::digest::typenum::B0>, sha2::digest::typenum::B0>>>" = type { [32 x i8] }
%"[closure@sha2::digest::generic_array::impls::<impl std::default::Default for sha2::digest::generic_array::GenericArray<u8, sha2::digest::typenum::UInt<sha2::digest::typenum::UInt<sha2::digest::typenum::UInt<sha2::digest::typenum::UInt<sha2::digest::typenum::UInt<sha2::digest::typenum::UInt<sha2::digest::typenum::UTerm, sha2::digest::typenum::B1>, sha2::digest::typenum::B0>, sha2::digest::typenum::B0>, sha2::digest::typenum::B0>, sha2::digest::typenum::B0>, sha2::digest::typenum::B0>>>::default::{closure#0}]" = type {}
%"sha2::digest::generic_array::GenericArray<u8, sha2::digest::typenum::UInt<sha2::digest::typenum::UInt<sha2::digest::typenum::UInt<sha2::digest::typenum::UInt<sha2::digest::typenum::UInt<sha2::digest::typenum::UInt<sha2::digest::typenum::UInt<sha2::digest::typenum::UTerm, sha2::digest::typenum::B1>, sha2::digest::typenum::B0>, sha2::digest::typenum::B0>, sha2::digest::typenum::B0>, sha2::digest::typenum::B0>, sha2::digest::typenum::B0>, sha2::digest::typenum::B0>>" = type { %"sha2::digest::generic_array::GenericArrayImplEven<u8, sha2::digest::generic_array::GenericArrayImplEven<u8, sha2::digest::generic_array::GenericArrayImplEven<u8, sha2::digest::generic_array::GenericArrayImplEven<u8, sha2::digest::generic_array::GenericArrayImplEven<u8, sha2::digest::generic_array::GenericArrayImplEven<u8, sha2::digest::generic_array::GenericArrayImplOdd<u8, [u8; 0]>>>>>>>" }
%"sha2::digest::generic_array::GenericArrayImplEven<u8, sha2::digest::generic_array::GenericArrayImplEven<u8, sha2::digest::generic_array::GenericArrayImplEven<u8, sha2::digest::generic_array::GenericArrayImplEven<u8, sha2::digest::generic_array::GenericArrayImplEven<u8, sha2::digest::generic_array::GenericArrayImplEven<u8, sha2::digest::generic_array::GenericArrayImplOdd<u8, [u8; 0]>>>>>>>" = type { %"sha2::digest::generic_array::GenericArrayImplEven<u8, sha2::digest::generic_array::GenericArrayImplEven<u8, sha2::digest::generic_array::GenericArrayImplEven<u8, sha2::digest::generic_array::GenericArrayImplEven<u8, sha2::digest::generic_array::GenericArrayImplEven<u8, sha2::digest::generic_array::GenericArrayImplOdd<u8, [u8; 0]>>>>>>", %"sha2::digest::generic_array::GenericArrayImplEven<u8, sha2::digest::generic_array::GenericArrayImplEven<u8, sha2::digest::generic_array::GenericArrayImplEven<u8, sha2::digest::generic_array::GenericArrayImplEven<u8, sha2::digest::generic_array::GenericArrayImplEven<u8, sha2::digest::generic_array::GenericArrayImplOdd<u8, [u8; 0]>>>>>>", %"std::marker::PhantomData<u8>" }
%"sha2::digest::generic_array::ArrayBuilder<u8, sha2::digest::typenum::UInt<sha2::digest::typenum::UInt<sha2::digest::typenum::UInt<sha2::digest::typenum::UInt<sha2::digest::typenum::UInt<sha2::digest::typenum::UInt<sha2::digest::typenum::UInt<sha2::digest::typenum::UTerm, sha2::digest::typenum::B1>, sha2::digest::typenum::B0>, sha2::digest::typenum::B0>, sha2::digest::typenum::B0>, sha2::digest::typenum::B0>, sha2::digest::typenum::B0>, sha2::digest::typenum::B0>>" = type { i64, %"std::mem::MaybeUninit<sha2::digest::generic_array::GenericArray<u8, sha2::digest::typenum::UInt<sha2::digest::typenum::UInt<sha2::digest::typenum::UInt<sha2::digest::typenum::UInt<sha2::digest::typenum::UInt<sha2::digest::typenum::UInt<sha2::digest::typenum::UInt<sha2::digest::typenum::UTerm, sha2::digest::typenum::B1>, sha2::digest::typenum::B0>, sha2::digest::typenum::B0>, sha2::digest::typenum::B0>, sha2::digest::typenum::B0>, sha2::digest::typenum::B0>, sha2::digest::typenum::B0>>>" }
%"std::mem::MaybeUninit<sha2::digest::generic_array::GenericArray<u8, sha2::digest::typenum::UInt<sha2::digest::typenum::UInt<sha2::digest::typenum::UInt<sha2::digest::typenum::UInt<sha2::digest::typenum::UInt<sha2::digest::typenum::UInt<sha2::digest::typenum::UInt<sha2::digest::typenum::UTerm, sha2::digest::typenum::B1>, sha2::digest::typenum::B0>, sha2::digest::typenum::B0>, sha2::digest::typenum::B0>, sha2::digest::typenum::B0>, sha2::digest::typenum::B0>, sha2::digest::typenum::B0>>>" = type { [64 x i8] }
%"[closure@sha2::digest::generic_array::impls::<impl std::default::Default for sha2::digest::generic_array::GenericArray<u8, sha2::digest::typenum::UInt<sha2::digest::typenum::UInt<sha2::digest::typenum::UInt<sha2::digest::typenum::UInt<sha2::digest::typenum::UInt<sha2::digest::typenum::UInt<sha2::digest::typenum::UInt<sha2::digest::typenum::UTerm, sha2::digest::typenum::B1>, sha2::digest::typenum::B0>, sha2::digest::typenum::B0>, sha2::digest::typenum::B0>, sha2::digest::typenum::B0>, sha2::digest::typenum::B0>, sha2::digest::typenum::B0>>>::default::{closure#0}]" = type {}
%"std::vec::Vec<std::string::String>" = type { { i64*, i64 }, i64 }
%"std::option::Option<(&mut [u8], &u32)>::Some" = type { { { [0 x i8]*, i64 }, i32* } }
%"sha2::digest::core_api::CtVariableCoreWrapper<sha2::Sha256VarCore, sha2::digest::typenum::UInt<sha2::digest::typenum::UInt<sha2::digest::typenum::UInt<sha2::digest::typenum::UInt<sha2::digest::typenum::UInt<sha2::digest::typenum::UInt<sha2::digest::typenum::UTerm, sha2::digest::typenum::B1>, sha2::digest::typenum::B0>, sha2::digest::typenum::B0>, sha2::digest::typenum::B0>, sha2::digest::typenum::B0>, sha2::digest::typenum::B0>>" = type { %"std::marker::PhantomData<sha2::digest::typenum::UInt<sha2::digest::typenum::UInt<sha2::digest::typenum::UInt<sha2::digest::typenum::UInt<sha2::digest::typenum::UInt<sha2::digest::typenum::UInt<sha2::digest::typenum::UTerm, sha2::digest::typenum::B1>, sha2::digest::typenum::B0>, sha2::digest::typenum::B0>, sha2::digest::typenum::B0>, sha2::digest::typenum::B0>, sha2::digest::typenum::B0>>", %"sha2::Sha256VarCore" }
%"std::marker::PhantomData<sha2::digest::typenum::UInt<sha2::digest::typenum::UInt<sha2::digest::typenum::UInt<sha2::digest::typenum::UInt<sha2::digest::typenum::UInt<sha2::digest::typenum::UInt<sha2::digest::typenum::UTerm, sha2::digest::typenum::B1>, sha2::digest::typenum::B0>, sha2::digest::typenum::B0>, sha2::digest::typenum::B0>, sha2::digest::typenum::B0>, sha2::digest::typenum::B0>>" = type {}
%"sha2::Sha256VarCore" = type { i64, [8 x i32] }
%"std::result::Result<sha2::Sha256VarCore, sha2::digest::InvalidOutputSize>" = type { i64, [5 x i64] }
%"std::iter::TakeWhile<std::slice::Iter<u8>, [closure@bs58::encode::encode_into<&[u8]>::{closure#0}]>" = type { %"[closure@bs58::encode::encode_into<&[u8]>::{closure#0}]", { i8*, i8* }, i8, [7 x i8] }
%"[closure@bs58::encode::encode_into<&[u8]>::{closure#0}]" = type {}
%"std::option::Option<std::convert::Infallible>::None" = type {}
%"sha2::digest::block_buffer::BlockBuffer<sha2::digest::typenum::UInt<sha2::digest::typenum::UInt<sha2::digest::typenum::UInt<sha2::digest::typenum::UInt<sha2::digest::typenum::UInt<sha2::digest::typenum::UInt<sha2::digest::typenum::UInt<sha2::digest::typenum::UTerm, sha2::digest::typenum::B1>, sha2::digest::typenum::B0>, sha2::digest::typenum::B0>, sha2::digest::typenum::B0>, sha2::digest::typenum::B0>, sha2::digest::typenum::B0>, sha2::digest::typenum::B0>, sha2::digest::block_buffer::Eager>" = type { %"std::marker::PhantomData<sha2::digest::block_buffer::Eager>", %"sha2::digest::generic_array::GenericArray<u8, sha2::digest::typenum::UInt<sha2::digest::typenum::UInt<sha2::digest::typenum::UInt<sha2::digest::typenum::UInt<sha2::digest::typenum::UInt<sha2::digest::typenum::UInt<sha2::digest::typenum::UInt<sha2::digest::typenum::UTerm, sha2::digest::typenum::B1>, sha2::digest::typenum::B0>, sha2::digest::typenum::B0>, sha2::digest::typenum::B0>, sha2::digest::typenum::B0>, sha2::digest::typenum::B0>, sha2::digest::typenum::B0>>", i8 }
%"std::marker::PhantomData<sha2::digest::block_buffer::Eager>" = type {}
%"std::mem::ManuallyDrop<sha2::digest::generic_array::GenericArray<u8, sha2::digest::typenum::UInt<sha2::digest::typenum::UInt<sha2::digest::typenum::UInt<sha2::digest::typenum::UInt<sha2::digest::typenum::UInt<sha2::digest::typenum::UInt<sha2::digest::typenum::UTerm, sha2::digest::typenum::B1>, sha2::digest::typenum::B0>, sha2::digest::typenum::B0>, sha2::digest::typenum::B0>, sha2::digest::typenum::B0>, sha2::digest::typenum::B0>>>" = type { %"sha2::digest::generic_array::GenericArray<u8, sha2::digest::typenum::UInt<sha2::digest::typenum::UInt<sha2::digest::typenum::UInt<sha2::digest::typenum::UInt<sha2::digest::typenum::UInt<sha2::digest::typenum::UInt<sha2::digest::typenum::UTerm, sha2::digest::typenum::B1>, sha2::digest::typenum::B0>, sha2::digest::typenum::B0>, sha2::digest::typenum::B0>, sha2::digest::typenum::B0>, sha2::digest::typenum::B0>>" }
%"std::mem::ManuallyDrop<sha2::digest::generic_array::GenericArray<u8, sha2::digest::typenum::UInt<sha2::digest::typenum::UInt<sha2::digest::typenum::UInt<sha2::digest::typenum::UInt<sha2::digest::typenum::UInt<sha2::digest::typenum::UInt<sha2::digest::typenum::UInt<sha2::digest::typenum::UTerm, sha2::digest::typenum::B1>, sha2::digest::typenum::B0>, sha2::digest::typenum::B0>, sha2::digest::typenum::B0>, sha2::digest::typenum::B0>, sha2::digest::typenum::B0>, sha2::digest::typenum::B0>>>" = type { %"sha2::digest::generic_array::GenericArray<u8, sha2::digest::typenum::UInt<sha2::digest::typenum::UInt<sha2::digest::typenum::UInt<sha2::digest::typenum::UInt<sha2::digest::typenum::UInt<sha2::digest::typenum::UInt<sha2::digest::typenum::UInt<sha2::digest::typenum::UTerm, sha2::digest::typenum::B1>, sha2::digest::typenum::B0>, sha2::digest::typenum::B0>, sha2::digest::typenum::B0>, sha2::digest::typenum::B0>, sha2::digest::typenum::B0>, sha2::digest::typenum::B0>>" }
%"std::result::Result<abi_digester::AbiDigester, abi_digester::DigestError>" = type { i64, [6 x i64] }
%"std::result::Result<std::convert::Infallible, abi_digester::DigestError>::Err" = type { %"abi_digester::DigestError" }
%"abi_digester::DigestError" = type { i64, [5 x i64] }
%"std::result::Result<abi_digester::AbiDigester, abi_digester::DigestError>::Err" = type { [1 x i64], %"abi_digester::DigestError" }
%"bs58::encode::Error::BufferTooSmall" = type {}
%"std::result::Result<std::convert::Infallible, bs58::encode::Error>::Err" = type { %"bs58::encode::Error::BufferTooSmall" }
%"std::result::Result<usize, bs58::encode::Error>::Err" = type { [8 x i8], %"bs58::encode::Error::BufferTooSmall" }
%"std::fs::OpenOptions" = type { %"std::sys::sbf::fs::OpenOptions" }
%"std::sys::sbf::fs::OpenOptions" = type {}
%"std::path::Path" = type { %"std::ffi::OsStr" }
%"std::ffi::OsStr" = type { %"std::sys::sbf::os_str::Slice" }
%"std::sys::sbf::os_str::Slice" = type { [0 x i8] }
%"std::result::Result<std::fs::File, std::io::Error>::Err" = type { %"std::io::Error" }
%"std::io::Error" = type { %"std::io::error::Repr" }
%"std::io::error::Repr" = type { i8, [15 x i8] }
%"std::fs::File" = type { %"std::sys::sbf::fs::File" }
%"std::sys::sbf::fs::File" = type { %"std::sys::sbf::Void" }
%"std::sys::sbf::Void" = type { [0 x i8] }
%"std::result::Result<usize, std::io::Error>" = type { i64, [2 x i64] }
%"std::result::Result<(), std::io::Error>" = type { i8, [15 x i8] }
%"std::result::Result<usize, std::io::Error>::Ok" = type { [1 x i64], i64 }
%"std::result::Result<usize, std::io::Error>::Err" = type { [1 x i64], %"std::io::Error" }
%"std::result::Result<(), std::io::Error>::Err" = type { %"std::io::Error" }
%"std::io::error::Custom" = type { { {}*, [3 x i64]* }, i8, [7 x i8] }
%"std::io::error::Repr::Os" = type { [1 x i32], i32 }
%"std::io::error::Repr::Simple" = type { [1 x i8], i8 }
%"std::io::error::Repr::SimpleMessage" = type { [1 x i8], i8, [6 x i8], { [0 x i8]*, i64 }* }
%"std::io::error::Repr::Custom" = type { [1 x i64], %"std::io::error::Custom"* }
%"std::result::Result<std::string::String, std::env::VarError>" = type { i64, [3 x i64] }
%"std::sync::Once" = type { %"std::marker::PhantomData<*const std::sync::once::Waiter>", %"std::sync::atomic::AtomicUsize" }
%"std::marker::PhantomData<*const std::sync::once::Waiter>" = type {}
%"std::fmt::Formatter" = type { { i64, i64 }, { i64, i64 }, { {}*, [3 x i64]* }, i32, i32, i8, [7 x i8] }
%"std::option::Option<std::string::String>" = type { {}*, [2 x i64] }
%"sha2::digest::core_api::CoreWrapper<sha2::digest::core_api::CtVariableCoreWrapper<sha2::Sha256VarCore, sha2::digest::typenum::UInt<sha2::digest::typenum::UInt<sha2::digest::typenum::UInt<sha2::digest::typenum::UInt<sha2::digest::typenum::UInt<sha2::digest::typenum::UInt<sha2::digest::typenum::UTerm, sha2::digest::typenum::B1>, sha2::digest::typenum::B0>, sha2::digest::typenum::B0>, sha2::digest::typenum::B0>, sha2::digest::typenum::B0>, sha2::digest::typenum::B0>>>" = type { %"sha2::digest::core_api::CtVariableCoreWrapper<sha2::Sha256VarCore, sha2::digest::typenum::UInt<sha2::digest::typenum::UInt<sha2::digest::typenum::UInt<sha2::digest::typenum::UInt<sha2::digest::typenum::UInt<sha2::digest::typenum::UInt<sha2::digest::typenum::UTerm, sha2::digest::typenum::B1>, sha2::digest::typenum::B0>, sha2::digest::typenum::B0>, sha2::digest::typenum::B0>, sha2::digest::typenum::B0>, sha2::digest::typenum::B0>>", %"sha2::digest::block_buffer::BlockBuffer<sha2::digest::typenum::UInt<sha2::digest::typenum::UInt<sha2::digest::typenum::UInt<sha2::digest::typenum::UInt<sha2::digest::typenum::UInt<sha2::digest::typenum::UInt<sha2::digest::typenum::UInt<sha2::digest::typenum::UTerm, sha2::digest::typenum::B1>, sha2::digest::typenum::B0>, sha2::digest::typenum::B0>, sha2::digest::typenum::B0>, sha2::digest::typenum::B0>, sha2::digest::typenum::B0>, sha2::digest::typenum::B0>, sha2::digest::block_buffer::Eager>", [7 x i8] }
%"std::fmt::DebugList" = type { %"core::fmt::builders::DebugInner" }
%"core::fmt::builders::DebugInner" = type { %"std::fmt::Formatter"*, i8, i8, [6 x i8] }
%"std::str::pattern::MultiCharEqPattern<[closure@core::str::<impl str>::trim_end::{closure#0}]>" = type { %"[closure@core::str::<impl str>::trim_end::{closure#0}]" }
%"bs58::Alphabet" = type { [58 x i8], [128 x i8] }
%"std::result::Result<usize, bs58::encode::Error>::Ok" = type { [1 x i64], i64 }
%"bs58::encode::EncodeBuilder<[u8; 32]>" = type { %"bs58::Check::Disabled", %"bs58::Alphabet"*, [32 x i8] }
%"bs58::Check::Disabled" = type {}
%"core::fmt::Opaque" = type {}
%"hash::Hash" = type { [32 x i8] }
%"std::fmt::Arguments" = type { { [0 x { [0 x i8]*, i64 }]*, i64 }, { i64*, i64 }, { [0 x { i8*, i64* }]*, i64 } }
%"std::fmt::rt::v1::Argument" = type { i64, %"std::fmt::rt::v1::FormatSpec" }
%"std::fmt::rt::v1::FormatSpec" = type { { i64, i64 }, { i64, i64 }, i32, i32, i8, [7 x i8] }
%"std::rc::RcBox<std::cell::RefCell<std::vec::Vec<std::string::String>>>" = type { i64, i64, %"std::cell::RefCell<std::vec::Vec<std::string::String>>" }
%"std::cell::RefCell<std::vec::Vec<std::string::String>>" = type { i64, %"std::cell::UnsafeCell<std::vec::Vec<std::string::String>>" }
%"std::cell::UnsafeCell<std::vec::Vec<std::string::String>>" = type { %"std::vec::Vec<std::string::String>" }
%"alloc::sync::ArcInner<std::thread::Inner>" = type { %"std::sync::atomic::AtomicUsize", %"std::sync::atomic::AtomicUsize", %"std::thread::Inner" }
%"std::thread::Inner" = type { { i8*, i64 }, i64, %"std::sys_common::thread_parker::generic::Parker" }
%"std::sys_common::thread_parker::generic::Parker" = type { %"std::sync::atomic::AtomicUsize", %"std::sync::Mutex<()>", %"std::sync::Condvar" }
%"std::sync::Mutex<()>" = type { i8*, %"std::sync::poison::Flag", %"std::cell::UnsafeCell<()>", [7 x i8] }
%"std::sync::poison::Flag" = type { %"std::sync::atomic::AtomicBool" }
%"std::sync::atomic::AtomicBool" = type { i8 }
%"std::cell::UnsafeCell<()>" = type { {} }
%"std::sync::Condvar" = type { %"std::sys_common::condvar::Condvar" }
%"std::sys_common::condvar::Condvar" = type { %"std::sys::sbf::condvar::Condvar"*, %"std::sys_common::condvar::check::SameMutexCheck" }
%"std::sys::sbf::condvar::Condvar" = type {}
%"std::sys_common::condvar::check::SameMutexCheck" = type { %"std::sync::atomic::AtomicUsize" }
%"std::mem::ManuallyDrop<sha2::digest::generic_array::ArrayBuilder<u8, sha2::digest::typenum::UInt<sha2::digest::typenum::UInt<sha2::digest::typenum::UInt<sha2::digest::typenum::UInt<sha2::digest::typenum::UInt<sha2::digest::typenum::UInt<sha2::digest::typenum::UTerm, sha2::digest::typenum::B1>, sha2::digest::typenum::B0>, sha2::digest::typenum::B0>, sha2::digest::typenum::B0>, sha2::digest::typenum::B0>, sha2::digest::typenum::B0>>>" = type { %"sha2::digest::generic_array::ArrayBuilder<u8, sha2::digest::typenum::UInt<sha2::digest::typenum::UInt<sha2::digest::typenum::UInt<sha2::digest::typenum::UInt<sha2::digest::typenum::UInt<sha2::digest::typenum::UInt<sha2::digest::typenum::UTerm, sha2::digest::typenum::B1>, sha2::digest::typenum::B0>, sha2::digest::typenum::B0>, sha2::digest::typenum::B0>, sha2::digest::typenum::B0>, sha2::digest::typenum::B0>>" }
%"std::mem::ManuallyDrop<sha2::digest::generic_array::ArrayBuilder<u8, sha2::digest::typenum::UInt<sha2::digest::typenum::UInt<sha2::digest::typenum::UInt<sha2::digest::typenum::UInt<sha2::digest::typenum::UInt<sha2::digest::typenum::UInt<sha2::digest::typenum::UInt<sha2::digest::typenum::UTerm, sha2::digest::typenum::B1>, sha2::digest::typenum::B0>, sha2::digest::typenum::B0>, sha2::digest::typenum::B0>, sha2::digest::typenum::B0>, sha2::digest::typenum::B0>, sha2::digest::typenum::B0>>>" = type { %"sha2::digest::generic_array::ArrayBuilder<u8, sha2::digest::typenum::UInt<sha2::digest::typenum::UInt<sha2::digest::typenum::UInt<sha2::digest::typenum::UInt<sha2::digest::typenum::UInt<sha2::digest::typenum::UInt<sha2::digest::typenum::UInt<sha2::digest::typenum::UTerm, sha2::digest::typenum::B1>, sha2::digest::typenum::B0>, sha2::digest::typenum::B0>, sha2::digest::typenum::B0>, sha2::digest::typenum::B0>, sha2::digest::typenum::B0>, sha2::digest::typenum::B0>>" }
%"<std::cell::RefCell<T> as std::fmt::Debug>::fmt::BorrowedPlaceholder" = type {}
%"std::env::VarError" = type { {}*, [2 x i64] }
%"std::env::VarError::NotUnicode" = type { %"std::ffi::OsString" }
%"std::ffi::OsString" = type { %"std::sys::sbf::os_str::Buf" }
%"std::sys::sbf::os_str::Buf" = type { %"std::vec::Vec<u8>" }
%"std::cell::BorrowError" = type {}
%"sha2::digest::InvalidOutputSize" = type {}
%"std::cell::BorrowMutError" = type {}
%"std::string::FromUtf8Error" = type { %"std::vec::Vec<u8>", %"std::str::Utf8Error" }
%"std::str::Utf8Error" = type { i64, { i8, i8 }, [6 x i8] }
%"std::mem::MaybeUninit<std::mem::MaybeUninit<sha2::digest::generic_array::GenericArray<u8, sha2::digest::typenum::UInt<sha2::digest::typenum::UInt<sha2::digest::typenum::UInt<sha2::digest::typenum::UInt<sha2::digest::typenum::UInt<sha2::digest::typenum::UInt<sha2::digest::typenum::UInt<sha2::digest::typenum::UTerm, sha2::digest::typenum::B1>, sha2::digest::typenum::B0>, sha2::digest::typenum::B0>, sha2::digest::typenum::B0>, sha2::digest::typenum::B0>, sha2::digest::typenum::B0>, sha2::digest::typenum::B0>>>>" = type { [64 x i8] }
%"std::mem::ManuallyDrop<std::mem::MaybeUninit<sha2::digest::generic_array::GenericArray<u8, sha2::digest::typenum::UInt<sha2::digest::typenum::UInt<sha2::digest::typenum::UInt<sha2::digest::typenum::UInt<sha2::digest::typenum::UInt<sha2::digest::typenum::UInt<sha2::digest::typenum::UInt<sha2::digest::typenum::UTerm, sha2::digest::typenum::B1>, sha2::digest::typenum::B0>, sha2::digest::typenum::B0>, sha2::digest::typenum::B0>, sha2::digest::typenum::B0>, sha2::digest::typenum::B0>, sha2::digest::typenum::B0>>>>" = type { %"std::mem::MaybeUninit<sha2::digest::generic_array::GenericArray<u8, sha2::digest::typenum::UInt<sha2::digest::typenum::UInt<sha2::digest::typenum::UInt<sha2::digest::typenum::UInt<sha2::digest::typenum::UInt<sha2::digest::typenum::UInt<sha2::digest::typenum::UInt<sha2::digest::typenum::UTerm, sha2::digest::typenum::B1>, sha2::digest::typenum::B0>, sha2::digest::typenum::B0>, sha2::digest::typenum::B0>, sha2::digest::typenum::B0>, sha2::digest::typenum::B0>, sha2::digest::typenum::B0>>>" }
%"std::mem::MaybeUninit<std::mem::MaybeUninit<sha2::digest::generic_array::GenericArray<u8, sha2::digest::typenum::UInt<sha2::digest::typenum::UInt<sha2::digest::typenum::UInt<sha2::digest::typenum::UInt<sha2::digest::typenum::UInt<sha2::digest::typenum::UInt<sha2::digest::typenum::UTerm, sha2::digest::typenum::B1>, sha2::digest::typenum::B0>, sha2::digest::typenum::B0>, sha2::digest::typenum::B0>, sha2::digest::typenum::B0>, sha2::digest::typenum::B0>>>>" = type { [32 x i8] }
%"std::mem::ManuallyDrop<std::mem::MaybeUninit<sha2::digest::generic_array::GenericArray<u8, sha2::digest::typenum::UInt<sha2::digest::typenum::UInt<sha2::digest::typenum::UInt<sha2::digest::typenum::UInt<sha2::digest::typenum::UInt<sha2::digest::typenum::UInt<sha2::digest::typenum::UTerm, sha2::digest::typenum::B1>, sha2::digest::typenum::B0>, sha2::digest::typenum::B0>, sha2::digest::typenum::B0>, sha2::digest::typenum::B0>, sha2::digest::typenum::B0>>>>" = type { %"std::mem::MaybeUninit<sha2::digest::generic_array::GenericArray<u8, sha2::digest::typenum::UInt<sha2::digest::typenum::UInt<sha2::digest::typenum::UInt<sha2::digest::typenum::UInt<sha2::digest::typenum::UInt<sha2::digest::typenum::UInt<sha2::digest::typenum::UTerm, sha2::digest::typenum::B1>, sha2::digest::typenum::B0>, sha2::digest::typenum::B0>, sha2::digest::typenum::B0>, sha2::digest::typenum::B0>, sha2::digest::typenum::B0>>>" }
%"std::mem::MaybeUninit<std::string::String>" = type { [3 x i64] }
%"std::mem::ManuallyDrop<std::string::String>" = type { %"std::string::String" }
%"std::array::TryFromSliceError" = type { {} }
%"abi_digester::AbiDigester" = type { i64*, i64, %"std::option::Option<std::string::String>", i8, [7 x i8] }
%"abi_digester::DigestError::Node" = type { [1 x i64], { [0 x i8]*, i64 }, %"abi_digester::DigestError"* }
%"abi_digester::DigestError::Leaf" = type { [1 x i64], { [0 x i8]*, i64 }, { [0 x i8]*, i64 }, %"abi_digester::DigestError"* }
%"std::option::Option<std::string::String>::Some" = type { %"std::string::String" }
%"std::ptr::metadata::PtrRepr<[sha2::digest::generic_array::GenericArray<u8, sha2::digest::typenum::UInt<sha2::digest::typenum::UInt<sha2::digest::typenum::UInt<sha2::digest::typenum::UInt<sha2::digest::typenum::UInt<sha2::digest::typenum::UInt<sha2::digest::typenum::UInt<sha2::digest::typenum::UTerm, sha2::digest::typenum::B1>, sha2::digest::typenum::B0>, sha2::digest::typenum::B0>, sha2::digest::typenum::B0>, sha2::digest::typenum::B0>, sha2::digest::typenum::B0>, sha2::digest::typenum::B0>>]>" = type { [2 x i64] }
%"std::ptr::metadata::PtrRepr<[std::string::String]>" = type { [2 x i64] }
%"std::result::Result<std::string::String, std::env::VarError>::Ok" = type { [1 x i64], %"std::string::String" }
%"std::result::Result<std::string::String, std::env::VarError>::Err" = type { [1 x i64], %"std::env::VarError" }
%"std::option::Option<u32>::Some" = type { [1 x i32], i32 }
%"std::str::MatchIndices<char>" = type { %"core::str::iter::MatchIndicesInternal<char>" }
%"core::str::iter::MatchIndicesInternal<char>" = type { %"std::str::pattern::CharSearcher" }
%"std::str::pattern::CharSearcher" = type { { [0 x i8]*, i64 }, i64, i64, i64, i32, [4 x i8] }
%"std::option::Option<(usize, usize)>::Some" = type { [1 x i64], { i64, i64 } }
%"std::option::Option<(usize, &str)>" = type { [1 x i64], {}*, [1 x i64] }
%"[closure@/root/.cargo/registry/src/github.com-1ecc6299db9ec823/solana-frozen-abi-1.10.0/src/abi_example.rs:237:30: 237:43]" = type {}
%"std::ops::ControlFlow<std::option::Option<std::convert::Infallible>, usize>::Continue" = type { [1 x i64], i64 }
%"std::sync::atomic::AtomicIsize" = type { i64 }
%"std::sync::atomic::AtomicI8" = type { i8 }
%"std::sync::atomic::AtomicU8" = type { i8 }
%"std::sync::atomic::AtomicI16" = type { i16 }
%"std::sync::atomic::AtomicI32" = type { i32 }
%"std::sync::atomic::AtomicI64" = type { i64 }
%"std::sync::atomic::AtomicU16" = type { i16 }
%"std::sync::atomic::AtomicU32" = type { i32 }
%"std::sync::atomic::AtomicU64" = type { i64 }
%"std::result::Result<std::convert::Infallible, std::alloc::LayoutError>::Err" = type { %"std::alloc::LayoutError" }
%"std::alloc::LayoutError" = type {}
%"std::result::Result<(std::alloc::Layout, usize), std::alloc::LayoutError>" = type { [1 x i64], i64, [1 x i64] }
%"std::ops::ControlFlow<std::result::Result<std::convert::Infallible, std::alloc::LayoutError>, (std::alloc::Layout, usize)>" = type { [1 x i64], i64, [1 x i64] }
%"std::ops::ControlFlow<std::result::Result<std::convert::Infallible, std::alloc::LayoutError>, (std::alloc::Layout, usize)>::Continue" = type { { { i64, i64 }, i64 } }
%"std::ops::ControlFlow<std::result::Result<std::convert::Infallible, std::alloc::LayoutError>, usize>::Continue" = type { [1 x i64], i64 }
%"std::result::Result<(std::alloc::Layout, usize), std::alloc::LayoutError>::Ok" = type { { { i64, i64 }, i64 } }
%"std::result::Result<[u8; 32], std::array::TryFromSliceError>" = type { i8, [32 x i8] }
%"[closure@std::array::<impl std::convert::TryFrom<&[u8]> for [u8; 32]>::try_from::{closure#0}]" = type {}
%"std::option::Option<std::fmt::Arguments>" = type { {}*, [5 x i64] }
%"std::option::Option<(usize, &str)>::Some" = type { { i64, { [0 x i8]*, i64 } } }
%"[closure@<std::str::Chars as std::iter::Iterator>::next::{closure#0}]" = type {}
%"[closure@<std::str::Chars as std::iter::DoubleEndedIterator>::next_back::{closure#0}]" = type {}
%"std::result::Result<usize, abi_digester::DigestError>" = type { i64, [6 x i64] }
%"std::result::Result<usize, abi_digester::DigestError>::Err" = type { [1 x i64], %"abi_digester::DigestError" }
%"std::result::Result<usize, abi_digester::DigestError>::Ok" = type { [1 x i64], i64 }
%"std::result::Result<[u8; 32], std::array::TryFromSliceError>::Err" = type { [1 x i8], %"std::array::TryFromSliceError" }
%"std::result::Result<[u8; 32], std::array::TryFromSliceError>::Ok" = type { [1 x i8], [32 x i8] }
%"std::result::Result<std::string::String, std::string::FromUtf8Error>" = type { i64, [5 x i64] }
%"std::result::Result<std::string::String, std::string::FromUtf8Error>::Ok" = type { [1 x i64], %"std::string::String" }
%"std::result::Result<std::string::String, std::string::FromUtf8Error>::Err" = type { [1 x i64], %"std::string::FromUtf8Error" }
%"std::result::Result<sha2::Sha256VarCore, sha2::digest::InvalidOutputSize>::Ok" = type { [1 x i64], %"sha2::Sha256VarCore" }
%"std::alloc::Global" = type {}
%"std::result::Result<std::convert::Infallible, std::alloc::AllocError>::Err" = type { %"std::alloc::AllocError" }
%"std::alloc::AllocError" = type {}
%"std::result::Result<&str, std::str::Utf8Error>" = type { i64, [2 x i64] }
%"std::result::Result<&str, std::str::Utf8Error>::Err" = type { [1 x i64], %"std::str::Utf8Error" }
%"std::result::Result<(), std::collections::TryReserveError>" = type { i64, [2 x i64] }
%"std::result::Result<(), std::collections::TryReserveError>::Err" = type { [1 x i64], { i64, i64 } }
%"std::result::Result<(), std::collections::TryReserveErrorKind>" = type { i64, [2 x i64] }
%"std::result::Result<(), std::collections::TryReserveErrorKind>::Err" = type { [1 x i64], { i64, i64 } }
%"std::option::Option<(std::ptr::NonNull<u8>, std::alloc::Layout)>" = type { {}*, [2 x i64] }
%"std::option::Option<(std::ptr::NonNull<u8>, std::alloc::Layout)>::Some" = type { { i8*, { i64, i64 } } }
%"std::result::Result<std::ptr::NonNull<[u8]>, std::collections::TryReserveError>" = type { i64, [2 x i64] }
%"std::ops::ControlFlow<std::result::Result<std::convert::Infallible, std::collections::TryReserveError>, std::ptr::NonNull<[u8]>>" = type { i64, [2 x i64] }
%"std::result::Result<usize, std::collections::TryReserveErrorKind>" = type { i64, [2 x i64] }
%"std::ops::ControlFlow<std::result::Result<std::convert::Infallible, std::collections::TryReserveErrorKind>, usize>" = type { i64, [2 x i64] }
%"std::ops::ControlFlow<std::result::Result<std::convert::Infallible, std::collections::TryReserveErrorKind>, usize>::Continue" = type { [1 x i64], i64 }
%"std::ops::ControlFlow<std::result::Result<std::convert::Infallible, std::collections::TryReserveErrorKind>, usize>::Break" = type { [1 x i64], { i64, i64 } }
%"std::ops::ControlFlow<std::result::Result<std::convert::Infallible, std::collections::TryReserveError>, std::ptr::NonNull<[u8]>>::Continue" = type { [1 x i64], { i8*, i64 } }
%"std::ops::ControlFlow<std::result::Result<std::convert::Infallible, std::collections::TryReserveError>, std::ptr::NonNull<[u8]>>::Break" = type { [1 x i64], { i64, i64 } }
%"std::fmt::DebugStruct" = type { %"std::fmt::Formatter"*, i8, i8, [6 x i8] }
%"std::fmt::DebugTuple" = type { %"std::fmt::Formatter"*, i64, i8, i8, [6 x i8] }
%"std::ops::ControlFlow<std::result::Result<std::convert::Infallible, bs58::encode::Error>, usize>::Continue" = type { [1 x i64], i64 }
%"std::ops::ControlFlow<std::result::Result<std::convert::Infallible, bs58::encode::Error>, usize>::Break" = type { [8 x i8], %"std::result::Result<std::convert::Infallible, bs58::encode::Error>::Err" }
%"std::ops::ControlFlow<std::result::Result<std::convert::Infallible, abi_digester::DigestError>>" = type { i64, [5 x i64] }
%"std::result::Result<(), abi_digester::DigestError>" = type { i64, [5 x i64] }
%"std::ops::ControlFlow<std::result::Result<std::convert::Infallible, abi_digester::DigestError>>::Continue" = type { {} }
%"std::result::Result<(), abi_digester::DigestError>::Err" = type { %"abi_digester::DigestError" }
%"std::ops::ControlFlow<std::result::Result<std::convert::Infallible, abi_digester::DigestError>>::Break" = type { %"std::result::Result<std::convert::Infallible, abi_digester::DigestError>::Err" }
%"std::ops::ControlFlow<std::result::Result<std::convert::Infallible, abi_digester::DigestError>, usize>" = type { i64, [6 x i64] }
%"std::ops::ControlFlow<std::result::Result<std::convert::Infallible, abi_digester::DigestError>, usize>::Continue" = type { [1 x i64], i64 }
%"std::ops::ControlFlow<std::result::Result<std::convert::Infallible, abi_digester::DigestError>, usize>::Break" = type { [1 x i64], %"std::result::Result<std::convert::Infallible, abi_digester::DigestError>::Err" }
%"std::result::Result<abi_digester::AbiDigester, abi_digester::DigestError>::Ok" = type { [1 x i64], %"abi_digester::AbiDigester" }
%"hash::Hasher" = type { %"sha2::digest::core_api::CoreWrapper<sha2::digest::core_api::CtVariableCoreWrapper<sha2::Sha256VarCore, sha2::digest::typenum::UInt<sha2::digest::typenum::UInt<sha2::digest::typenum::UInt<sha2::digest::typenum::UInt<sha2::digest::typenum::UInt<sha2::digest::typenum::UInt<sha2::digest::typenum::UTerm, sha2::digest::typenum::B1>, sha2::digest::typenum::B0>, sha2::digest::typenum::B0>, sha2::digest::typenum::B0>, sha2::digest::typenum::B0>, sha2::digest::typenum::B0>>>" }
%"std::option::Option<std::fmt::Arguments>::Some" = type { %"std::fmt::Arguments" }
%"std::net::SocketAddr" = type { i32, [7 x i32] }
%"std::net::IpAddr" = type { i8, [19 x i8] }
%"std::net::IpAddr::V4" = type { [1 x i32], i32 }

@alloc883 = private unnamed_addr constant <{ [77 x i8] }> <{ [77 x i8] c"/home/runner/work/bpf-tools/bpf-tools/out/rust/library/core/src/slice/iter.rs" }>, align 1
@alloc692 = private unnamed_addr constant <{ i8*, [16 x i8] }> <{ i8* getelementptr inbounds (<{ [77 x i8] }>, <{ [77 x i8] }>* @alloc883, i32 0, i32 0, i32 0), [16 x i8] c"M\00\00\00\00\00\00\00h\07\00\00\11\00\00\00" }>, align 8
@str.0 = internal constant [25 x i8] c"attempt to divide by zero"
@alloc693 = private unnamed_addr constant <{ [90 x i8] }> <{ [90 x i8] c"/home/runner/work/bpf-tools/bpf-tools/out/rust/library/core/src/iter/adapters/enumerate.rs" }>, align 1
@alloc694 = private unnamed_addr constant <{ i8*, [16 x i8] }> <{ i8* getelementptr inbounds (<{ [90 x i8] }>, <{ [90 x i8] }>* @alloc693, i32 0, i32 0, i32 0), [16 x i8] c"Z\00\00\00\00\00\00\00k\00\00\00\11\00\00\00" }>, align 8
@str.1 = internal constant [28 x i8] c"attempt to add with overflow"
@alloc741 = private unnamed_addr constant <{ [85 x i8] }> <{ [85 x i8] c"/root/.cargo/registry/src/github.com-1ecc6299db9ec823/generic-array-0.14.5/src/lib.rs" }>, align 1
@alloc696 = private unnamed_addr constant <{ i8*, [16 x i8] }> <{ i8* getelementptr inbounds (<{ [85 x i8] }>, <{ [85 x i8] }>* @alloc741, i32 0, i32 0, i32 0), [16 x i8] c"U\00\00\00\00\00\00\00\82\01\00\00\15\00\00\00" }>, align 8
@alloc885 = private unnamed_addr constant <{ [17 x i8] }> <{ [17 x i8] c"capacity overflow" }>, align 1
@alloc698 = private unnamed_addr constant <{ [93 x i8] }> <{ [93 x i8] c"/home/runner/work/bpf-tools/bpf-tools/out/rust/library/alloc/src/vec/spec_from_iter_nested.rs" }>, align 1
@alloc699 = private unnamed_addr constant <{ i8*, [16 x i8] }> <{ i8* getelementptr inbounds (<{ [93 x i8] }>, <{ [93 x i8] }>* @alloc698, i32 0, i32 0, i32 0), [16 x i8] c"]\00\00\00\00\00\00\005\00\00\00\12\00\00\00" }>, align 8
@alloc706 = private unnamed_addr constant <{ [95 x i8] }> <{ [95 x i8] c"/root/.cargo/registry/src/github.com-1ecc6299db9ec823/digest-0.10.3/src/core_api/ct_variable.rs" }>, align 1
@alloc701 = private unnamed_addr constant <{ i8*, [16 x i8] }> <{ i8* getelementptr inbounds (<{ [95 x i8] }>, <{ [95 x i8] }>* @alloc706, i32 0, i32 0, i32 0), [16 x i8] c"_\00\00\00\00\00\00\00\86\00\00\00+\00\00\00" }>, align 8
@alloc703 = private unnamed_addr constant <{ i8*, [16 x i8] }> <{ i8* getelementptr inbounds (<{ [95 x i8] }>, <{ [95 x i8] }>* @alloc706, i32 0, i32 0, i32 0), [16 x i8] c"_\00\00\00\00\00\00\00s\00\00\00\11\00\00\00" }>, align 8
@str.2 = internal constant [33 x i8] c"attempt to subtract with overflow"
@alloc705 = private unnamed_addr constant <{ i8*, [16 x i8] }> <{ i8* getelementptr inbounds (<{ [95 x i8] }>, <{ [95 x i8] }>* @alloc706, i32 0, i32 0, i32 0), [16 x i8] c"_\00\00\00\00\00\00\00v\00\00\006\00\00\00" }>, align 8
@alloc707 = private unnamed_addr constant <{ i8*, [16 x i8] }> <{ i8* getelementptr inbounds (<{ [95 x i8] }>, <{ [95 x i8] }>* @alloc706, i32 0, i32 0, i32 0), [16 x i8] c"_\00\00\00\00\00\00\00u\00\00\005\00\00\00" }>, align 8
@alloc739 = private unnamed_addr constant <{ [84 x i8] }> <{ [84 x i8] c"/root/.cargo/registry/src/github.com-1ecc6299db9ec823/block-buffer-0.10.2/src/lib.rs" }>, align 1
@alloc709 = private unnamed_addr constant <{ i8*, [16 x i8] }> <{ i8* getelementptr inbounds (<{ [84 x i8] }>, <{ [84 x i8] }>* @alloc739, i32 0, i32 0, i32 0), [16 x i8] c"T\00\00\00\00\00\00\00y\00\00\00\13\00\00\00" }>, align 8
@alloc711 = private unnamed_addr constant <{ i8*, [16 x i8] }> <{ i8* getelementptr inbounds (<{ [84 x i8] }>, <{ [84 x i8] }>* @alloc739, i32 0, i32 0, i32 0), [16 x i8] c"T\00\00\00\00\00\00\00\84\00\00\00\0D\00\00\00" }>, align 8
@alloc713 = private unnamed_addr constant <{ i8*, [16 x i8] }> <{ i8* getelementptr inbounds (<{ [84 x i8] }>, <{ [84 x i8] }>* @alloc739, i32 0, i32 0, i32 0), [16 x i8] c"T\00\00\00\00\00\00\00\85\00\00\00$\00\00\00" }>, align 8
@alloc715 = private unnamed_addr constant <{ i8*, [16 x i8] }> <{ i8* getelementptr inbounds (<{ [84 x i8] }>, <{ [84 x i8] }>* @alloc739, i32 0, i32 0, i32 0), [16 x i8] c"T\00\00\00\00\00\00\00\8B\00\00\00\0D\00\00\00" }>, align 8
@alloc717 = private unnamed_addr constant <{ i8*, [16 x i8] }> <{ i8* getelementptr inbounds (<{ [84 x i8] }>, <{ [84 x i8] }>* @alloc739, i32 0, i32 0, i32 0), [16 x i8] c"T\00\00\00\00\00\00\00\95\00\00\00\09\00\00\00" }>, align 8
@alloc718 = private unnamed_addr constant <{ [56 x i8] }> <{ [56 x i8] c"assertion failed: Kind::invariant(pos, BlockSize::USIZE)" }>, align 1
@alloc720 = private unnamed_addr constant <{ i8*, [16 x i8] }> <{ i8* getelementptr inbounds (<{ [84 x i8] }>, <{ [84 x i8] }>* @alloc739, i32 0, i32 0, i32 0), [16 x i8] c"T\00\00\00\00\00\00\00\D5\00\00\00\09\00\00\00" }>, align 8
@alloc721 = private unnamed_addr constant <{ [23 x i8] }> <{ [23 x i8] c"assertion failed: false" }>, align 1
@alloc723 = private unnamed_addr constant <{ i8*, [16 x i8] }> <{ i8* getelementptr inbounds (<{ [84 x i8] }>, <{ [84 x i8] }>* @alloc739, i32 0, i32 0, i32 0), [16 x i8] c"T\00\00\00\00\00\00\00\AD\00\00\00\0D\00\00\00" }>, align 8
@alloc724 = private unnamed_addr constant <{ [18 x i8] }> <{ [18 x i8] c"suffix is too long" }>, align 1
@alloc726 = private unnamed_addr constant <{ i8*, [16 x i8] }> <{ i8* getelementptr inbounds (<{ [84 x i8] }>, <{ [84 x i8] }>* @alloc739, i32 0, i32 0, i32 0), [16 x i8] c"T\00\00\00\00\00\00\00\10\01\00\00\0D\00\00\00" }>, align 8
@alloc728 = private unnamed_addr constant <{ i8*, [16 x i8] }> <{ i8* getelementptr inbounds (<{ [84 x i8] }>, <{ [84 x i8] }>* @alloc739, i32 0, i32 0, i32 0), [16 x i8] c"T\00\00\00\00\00\00\00\13\01\00\00\09\00\00\00" }>, align 8
@alloc730 = private unnamed_addr constant <{ i8*, [16 x i8] }> <{ i8* getelementptr inbounds (<{ [84 x i8] }>, <{ [84 x i8] }>* @alloc739, i32 0, i32 0, i32 0), [16 x i8] c"T\00\00\00\00\00\00\00\14\01\00\00#\00\00\00" }>, align 8
@alloc732 = private unnamed_addr constant <{ i8*, [16 x i8] }> <{ i8* getelementptr inbounds (<{ [84 x i8] }>, <{ [84 x i8] }>* @alloc739, i32 0, i32 0, i32 0), [16 x i8] c"T\00\00\00\00\00\00\00\14\01\00\00\17\00\00\00" }>, align 8
@alloc734 = private unnamed_addr constant <{ i8*, [16 x i8] }> <{ i8* getelementptr inbounds (<{ [84 x i8] }>, <{ [84 x i8] }>* @alloc739, i32 0, i32 0, i32 0), [16 x i8] c"T\00\00\00\00\00\00\00\18\01\00\00\11\00\00\00" }>, align 8
@alloc736 = private unnamed_addr constant <{ i8*, [16 x i8] }> <{ i8* getelementptr inbounds (<{ [84 x i8] }>, <{ [84 x i8] }>* @alloc739, i32 0, i32 0, i32 0), [16 x i8] c"T\00\00\00\00\00\00\00\19\01\00\00\0C\00\00\00" }>, align 8
@alloc738 = private unnamed_addr constant <{ i8*, [16 x i8] }> <{ i8* getelementptr inbounds (<{ [84 x i8] }>, <{ [84 x i8] }>* @alloc739, i32 0, i32 0, i32 0), [16 x i8] c"T\00\00\00\00\00\00\00\1C\01\00\00\0D\00\00\00" }>, align 8
@alloc740 = private unnamed_addr constant <{ i8*, [16 x i8] }> <{ i8* getelementptr inbounds (<{ [84 x i8] }>, <{ [84 x i8] }>* @alloc739, i32 0, i32 0, i32 0), [16 x i8] c"T\00\00\00\00\00\00\00\1F\01\00\00\0D\00\00\00" }>, align 8
@alloc742 = private unnamed_addr constant <{ i8*, [16 x i8] }> <{ i8* getelementptr inbounds (<{ [85 x i8] }>, <{ [85 x i8] }>* @alloc741, i32 0, i32 0, i32 0), [16 x i8] c"U\00\00\00\00\00\00\00\F1\00\00\00\0F\00\00\00" }>, align 8
@_ZN3log20MAX_LOG_LEVEL_FILTER17h1b09946e0517ea47E = external global %"std::sync::atomic::AtomicUsize"
@alloc441 = private unnamed_addr constant <{ [1 x i8] }> <{ [1 x i8] c"#" }>, align 1
@alloc743 = private unnamed_addr constant <{ [72 x i8] }> <{ [72 x i8] c"/home/runner/work/bpf-tools/bpf-tools/out/rust/library/std/src/io/mod.rs" }>, align 1
@alloc744 = private unnamed_addr constant <{ i8*, [16 x i8] }> <{ i8* getelementptr inbounds (<{ [72 x i8] }>, <{ [72 x i8] }>* @alloc743, i32 0, i32 0, i32 0), [16 x i8] c"H\00\00\00\00\00\00\00\02\06\00\00!\00\00\00" }>, align 8
@alloc438 = private unnamed_addr constant <{ [28 x i8] }> <{ [28 x i8] c"failed to write whole buffer" }>, align 1
@alloc439 = private unnamed_addr constant <{ i8*, [8 x i8] }> <{ i8* getelementptr inbounds (<{ [28 x i8] }>, <{ [28 x i8] }>* @alloc438, i32 0, i32 0, i32 0), [8 x i8] c"\1C\00\00\00\00\00\00\00" }>, align 8
@alloc745 = private unnamed_addr constant <{ [76 x i8] }> <{ [76 x i8] c"/home/runner/work/bpf-tools/bpf-tools/out/rust/library/core/src/ops/arith.rs" }>, align 1
@alloc746 = private unnamed_addr constant <{ i8*, [16 x i8] }> <{ i8* getelementptr inbounds (<{ [76 x i8] }>, <{ [76 x i8] }>* @alloc745, i32 0, i32 0, i32 0), [16 x i8] c"L\00\00\00\00\00\00\00\D5\00\00\00\01\00\00\00" }>, align 8
@alloc865 = private unnamed_addr constant <{ [78 x i8] }> <{ [78 x i8] c"/root/.cargo/registry/src/github.com-1ecc6299db9ec823/bs58-0.4.0/src/encode.rs" }>, align 1
@alloc748 = private unnamed_addr constant <{ i8*, [16 x i8] }> <{ i8* getelementptr inbounds (<{ [78 x i8] }>, <{ [78 x i8] }>* @alloc865, i32 0, i32 0, i32 0), [16 x i8] c"N\00\00\00\00\00\00\00U\01\00\00\1A\00\00\00" }>, align 8
@alloc750 = private unnamed_addr constant <{ i8*, [16 x i8] }> <{ i8* getelementptr inbounds (<{ [78 x i8] }>, <{ [78 x i8] }>* @alloc865, i32 0, i32 0, i32 0), [16 x i8] c"N\00\00\00\00\00\00\00V\01\00\00\0D\00\00\00" }>, align 8
@alloc752 = private unnamed_addr constant <{ i8*, [16 x i8] }> <{ i8* getelementptr inbounds (<{ [78 x i8] }>, <{ [78 x i8] }>* @alloc865, i32 0, i32 0, i32 0), [16 x i8] c"N\00\00\00\00\00\00\00^\01\00\00\0D\00\00\00" }>, align 8
@alloc754 = private unnamed_addr constant <{ i8*, [16 x i8] }> <{ i8* getelementptr inbounds (<{ [78 x i8] }>, <{ [78 x i8] }>* @alloc865, i32 0, i32 0, i32 0), [16 x i8] c"N\00\00\00\00\00\00\00_\01\00\00\0D\00\00\00" }>, align 8
@alloc756 = private unnamed_addr constant <{ i8*, [16 x i8] }> <{ i8* getelementptr inbounds (<{ [78 x i8] }>, <{ [78 x i8] }>* @alloc865, i32 0, i32 0, i32 0), [16 x i8] c"N\00\00\00\00\00\00\00h\01\00\00\09\00\00\00" }>, align 8
@alloc758 = private unnamed_addr constant <{ i8*, [16 x i8] }> <{ i8* getelementptr inbounds (<{ [78 x i8] }>, <{ [78 x i8] }>* @alloc865, i32 0, i32 0, i32 0), [16 x i8] c"N\00\00\00\00\00\00\00i\01\00\00\09\00\00\00" }>, align 8
@alloc760 = private unnamed_addr constant <{ i8*, [16 x i8] }> <{ i8* getelementptr inbounds (<{ [78 x i8] }>, <{ [78 x i8] }>* @alloc865, i32 0, i32 0, i32 0), [16 x i8] c"N\00\00\00\00\00\00\00l\01\00\00\15\00\00\00" }>, align 8
@alloc762 = private unnamed_addr constant <{ i8*, [16 x i8] }> <{ i8* getelementptr inbounds (<{ [78 x i8] }>, <{ [78 x i8] }>* @alloc865, i32 0, i32 0, i32 0), [16 x i8] c"N\00\00\00\00\00\00\00m\01\00\00\10\00\00\00" }>, align 8
@alloc764 = private unnamed_addr constant <{ i8*, [16 x i8] }> <{ i8* getelementptr inbounds (<{ [78 x i8] }>, <{ [78 x i8] }>* @alloc865, i32 0, i32 0, i32 0), [16 x i8] c"N\00\00\00\00\00\00\00p\01\00\00\05\00\00\00" }>, align 8
@alloc436 = private unnamed_addr constant <{ [186 x i8] }> <{ [186 x i8] c"123456789ABCDEFGHJKLMNPQRSTUVWXYZabcdefghijkmnopqrstuvwxyz\FF\FF\FF\FF\FF\FF\FF\FF\FF\FF\FF\FF\FF\FF\FF\FF\FF\FF\FF\FF\FF\FF\FF\FF\FF\FF\FF\FF\FF\FF\FF\FF\FF\FF\FF\FF\FF\FF\FF\FF\FF\FF\FF\FF\FF\FF\FF\FF\FF\00\01\02\03\04\05\06\07\08\FF\FF\FF\FF\FF\FF\FF\09\0A\0B\0C\0D\0E\0F\10\FF\11\12\13\14\15\FF\16\17\18\19\1A\1B\1C\1D\1E\1F \FF\FF\FF\FF\FF\FF!\22#$%&'()*+\FF,-./0123456789\FF\FF\FF\FF\FF" }>, align 1
@alloc766 = private unnamed_addr constant <{ i8*, [16 x i8] }> <{ i8* getelementptr inbounds (<{ [78 x i8] }>, <{ [78 x i8] }>* @alloc865, i32 0, i32 0, i32 0), [16 x i8] c"N\00\00\00\00\00\00\00\E6\00\00\00 \00\00\00" }>, align 8
@alloc768 = private unnamed_addr constant <{ i8*, [16 x i8] }> <{ i8* getelementptr inbounds (<{ [78 x i8] }>, <{ [78 x i8] }>* @alloc865, i32 0, i32 0, i32 0), [16 x i8] c"N\00\00\00\00\00\00\00>\01\00\00'\00\00\00" }>, align 8
@str.3 = internal constant [33 x i8] c"attempt to multiply with overflow"
@alloc769 = private unnamed_addr constant <{ [4 x i8] }> <{ [4 x i8] c"bool" }>, align 1
@alloc770 = private unnamed_addr constant <{ [3 x i8] }> <{ [3 x i8] c"u16" }>, align 1
@alloc771 = private unnamed_addr constant <{ [4 x i8] }> <{ [4 x i8] c"char" }>, align 1
@alloc772 = private unnamed_addr constant <{ [3 x i8] }> <{ [3 x i8] c"f64" }>, align 1
@alloc773 = private unnamed_addr constant <{ [29 x i8] }> <{ [29 x i8] c"solana_frozen_abi::hash::Hash" }>, align 1
@alloc774 = private unnamed_addr constant <{ [3 x i8] }> <{ [3 x i8] c"i64" }>, align 1
@alloc775 = private unnamed_addr constant <{ [3 x i8] }> <{ [3 x i8] c"u32" }>, align 1
@alloc776 = private unnamed_addr constant <{ [2 x i8] }> <{ [2 x i8] c"()" }>, align 1
@alloc777 = private unnamed_addr constant <{ [4 x i8] }> <{ [4 x i8] c"u128" }>, align 1
@alloc778 = private unnamed_addr constant <{ [4 x i8] }> <{ [4 x i8] c"&str" }>, align 1
@alloc779 = private unnamed_addr constant <{ [4 x i8] }> <{ [4 x i8] c"i128" }>, align 1
@alloc780 = private unnamed_addr constant <{ [3 x i8] }> <{ [3 x i8] c"i16" }>, align 1
@alloc781 = private unnamed_addr constant <{ [3 x i8] }> <{ [3 x i8] c"f32" }>, align 1
@alloc782 = private unnamed_addr constant <{ [2 x i8] }> <{ [2 x i8] c"i8" }>, align 1
@alloc783 = private unnamed_addr constant <{ [3 x i8] }> <{ [3 x i8] c"i32" }>, align 1
@alloc784 = private unnamed_addr constant <{ [2 x i8] }> <{ [2 x i8] c"u8" }>, align 1
@alloc785 = private unnamed_addr constant <{ [3 x i8] }> <{ [3 x i8] c"u64" }>, align 1
@vtable.4 = private unnamed_addr constant <{ i8*, [16 x i8], i8*, [0 x i8] }> <{ i8* bitcast (void (%"std::string::String"**)* @"_ZN4core3ptr46drop_in_place$LT$$RF$alloc..string..String$GT$17h69ad8930a5012021E" to i8*), [16 x i8] c"\08\00\00\00\00\00\00\00\08\00\00\00\00\00\00\00", i8* bitcast (i1 (%"std::string::String"**, %"std::fmt::Formatter"*)* @"_ZN42_$LT$$RF$T$u20$as$u20$core..fmt..Debug$GT$3fmt17hebf63e08bc20edb3E" to i8*), [0 x i8] zeroinitializer }>, align 8, !dbg !0
@alloc789 = private unnamed_addr constant <{ [12 x i8] }> <{ [12 x i8] c"invalid args" }>, align 1
@alloc790 = private unnamed_addr constant <{ [74 x i8] }> <{ [74 x i8] c"/home/runner/work/bpf-tools/bpf-tools/out/rust/library/core/src/fmt/mod.rs" }>, align 1
@alloc791 = private unnamed_addr constant <{ i8*, [16 x i8] }> <{ i8* getelementptr inbounds (<{ [74 x i8] }>, <{ [74 x i8] }>* @alloc790, i32 0, i32 0, i32 0), [16 x i8] c"J\00\00\00\00\00\00\00c\01\00\00\0D\00\00\00" }>, align 8
@alloc792 = private unnamed_addr constant <{ [74 x i8] }> <{ [74 x i8] c"/home/runner/work/bpf-tools/bpf-tools/out/rust/library/core/src/ptr/mod.rs" }>, align 1
@alloc793 = private unnamed_addr constant <{ i8*, [16 x i8] }> <{ i8* getelementptr inbounds (<{ [74 x i8] }>, <{ [74 x i8] }>* @alloc792, i32 0, i32 0, i32 0), [16 x i8] c"J\00\00\00\00\00\00\00\BC\02\00\00\0D\00\00\00" }>, align 8
@alloc794 = private unnamed_addr constant <{ [16 x i8] }> <{ [16 x i8] c"already borrowed" }>, align 1
@alloc795 = private unnamed_addr constant <{ [24 x i8] }> <{ [24 x i8] c"already mutably borrowed" }>, align 1
@alloc800 = private unnamed_addr constant <{ [79 x i8] }> <{ [79 x i8] c"/home/runner/work/bpf-tools/bpf-tools/out/rust/library/core/src/char/methods.rs" }>, align 1
@alloc797 = private unnamed_addr constant <{ i8*, [16 x i8] }> <{ i8* getelementptr inbounds (<{ [79 x i8] }>, <{ [79 x i8] }>* @alloc800, i32 0, i32 0, i32 0), [16 x i8] c"O\00\00\00\00\00\00\00P\06\00\00\16\00\00\00" }>, align 8
@alloc799 = private unnamed_addr constant <{ i8*, [16 x i8] }> <{ i8* getelementptr inbounds (<{ [79 x i8] }>, <{ [79 x i8] }>* @alloc800, i32 0, i32 0, i32 0), [16 x i8] c"O\00\00\00\00\00\00\00j\06\00\00\0A\00\00\00" }>, align 8
@alloc281 = private unnamed_addr constant <{ [18 x i8] }> <{ [18 x i8] c"encode_utf8: need " }>, align 1
@alloc283 = private unnamed_addr constant <{ [19 x i8] }> <{ [19 x i8] c" bytes to encode U+" }>, align 1
@alloc284 = private unnamed_addr constant <{ [21 x i8] }> <{ [21 x i8] c", but the buffer has " }>, align 1
@alloc282 = private unnamed_addr constant <{ i8*, [8 x i8], i8*, [8 x i8], i8*, [8 x i8] }> <{ i8* getelementptr inbounds (<{ [18 x i8] }>, <{ [18 x i8] }>* @alloc281, i32 0, i32 0, i32 0), [8 x i8] c"\12\00\00\00\00\00\00\00", i8* getelementptr inbounds (<{ [19 x i8] }>, <{ [19 x i8] }>* @alloc283, i32 0, i32 0, i32 0), [8 x i8] c"\13\00\00\00\00\00\00\00", i8* getelementptr inbounds (<{ [21 x i8] }>, <{ [21 x i8] }>* @alloc284, i32 0, i32 0, i32 0), [8 x i8] c"\15\00\00\00\00\00\00\00" }>, align 8
@alloc801 = private unnamed_addr constant <{ i8*, [16 x i8] }> <{ i8* getelementptr inbounds (<{ [79 x i8] }>, <{ [79 x i8] }>* @alloc800, i32 0, i32 0, i32 0), [16 x i8] c"O\00\00\00\00\00\00\00c\06\00\00\0E\00\00\00" }>, align 8
@alloc802 = private unnamed_addr constant <{ [79 x i8] }> <{ [79 x i8] c"/home/runner/work/bpf-tools/bpf-tools/out/rust/library/core/src/alloc/layout.rs" }>, align 1
@alloc803 = private unnamed_addr constant <{ i8*, [16 x i8] }> <{ i8* getelementptr inbounds (<{ [79 x i8] }>, <{ [79 x i8] }>* @alloc802, i32 0, i32 0, i32 0), [16 x i8] c"O\00\00\00\00\00\00\00\10\01\00\009\00\00\00" }>, align 8
@alloc804 = private unnamed_addr constant <{ [76 x i8] }> <{ [76 x i8] c"/home/runner/work/bpf-tools/bpf-tools/out/rust/library/core/src/array/mod.rs" }>, align 1
@alloc805 = private unnamed_addr constant <{ i8*, [16 x i8] }> <{ i8* getelementptr inbounds (<{ [76 x i8] }>, <{ [76 x i8] }>* @alloc804, i32 0, i32 0, i32 0), [16 x i8] c"L\00\00\00\00\00\00\00K\00\00\00\0A\00\00\00" }>, align 8
@alloc811 = private unnamed_addr constant <{ [35 x i8] }> <{ [35 x i8] c"assertion failed: mid <= self.len()" }>, align 1
@alloc814 = private unnamed_addr constant <{ [76 x i8] }> <{ [76 x i8] c"/home/runner/work/bpf-tools/bpf-tools/out/rust/library/core/src/slice/mod.rs" }>, align 1
@alloc808 = private unnamed_addr constant <{ i8*, [16 x i8] }> <{ i8* getelementptr inbounds (<{ [76 x i8] }>, <{ [76 x i8] }>* @alloc814, i32 0, i32 0, i32 0), [16 x i8] c"L\00\00\00\00\00\00\00\FF\05\00\00\09\00\00\00" }>, align 8
@alloc354 = private unnamed_addr constant <{ [8 x i8] }> zeroinitializer, align 8
@alloc810 = private unnamed_addr constant <{ i8*, [16 x i8] }> <{ i8* getelementptr inbounds (<{ [76 x i8] }>, <{ [76 x i8] }>* @alloc814, i32 0, i32 0, i32 0), [16 x i8] c"L\00\00\00\00\00\00\00\89\03\00\00\09\00\00\00" }>, align 8
@alloc813 = private unnamed_addr constant <{ i8*, [16 x i8] }> <{ i8* getelementptr inbounds (<{ [76 x i8] }>, <{ [76 x i8] }>* @alloc814, i32 0, i32 0, i32 0), [16 x i8] c"L\00\00\00\00\00\00\00\E1\05\00\00\09\00\00\00" }>, align 8
@alloc815 = private unnamed_addr constant <{ i8*, [16 x i8] }> <{ i8* getelementptr inbounds (<{ [76 x i8] }>, <{ [76 x i8] }>* @alloc814, i32 0, i32 0, i32 0), [16 x i8] c"L\00\00\00\00\00\00\00\E6\07\00\00\1E\00\00\00" }>, align 8
@alloc817 = private unnamed_addr constant <{ i8*, [16 x i8] }> <{ i8* getelementptr inbounds (<{ [77 x i8] }>, <{ [77 x i8] }>* @alloc883, i32 0, i32 0, i32 0), [16 x i8] c"M\00\00\00\00\00\00\00F\07\00\00\13\00\00\00" }>, align 8
@str.5 = internal constant [57 x i8] c"attempt to calculate the remainder with a divisor of zero"
@alloc818 = private unnamed_addr constant <{ [43 x i8] }> <{ [43 x i8] c"called `Option::unwrap()` on a `None` value" }>, align 1
@vtable.6 = private unnamed_addr constant <{ i8*, [16 x i8], i8*, [0 x i8] }> <{ i8* bitcast (void (%"std::cell::BorrowMutError"*)* @"_ZN4core3ptr47drop_in_place$LT$core..cell..BorrowMutError$GT$17h0f5554efb59e5bb6E" to i8*), [16 x i8] c"\00\00\00\00\00\00\00\00\01\00\00\00\00\00\00\00", i8* bitcast (i1 (%"std::cell::BorrowMutError"*, %"std::fmt::Formatter"*)* @"_ZN63_$LT$core..cell..BorrowMutError$u20$as$u20$core..fmt..Debug$GT$3fmt17h8fbce2618a168c02E" to i8*), [0 x i8] zeroinitializer }>, align 8, !dbg !40
@vtable.7 = private unnamed_addr constant <{ i8*, [16 x i8], i8*, [0 x i8] }> <{ i8* bitcast (void (%"std::cell::BorrowError"*)* @"_ZN4core3ptr44drop_in_place$LT$core..cell..BorrowError$GT$17h896d08d690fc9c82E" to i8*), [16 x i8] c"\00\00\00\00\00\00\00\00\01\00\00\00\00\00\00\00", i8* bitcast (i1 (%"std::cell::BorrowError"*, %"std::fmt::Formatter"*)* @"_ZN60_$LT$core..cell..BorrowError$u20$as$u20$core..fmt..Debug$GT$3fmt17h5edbc33da3a30a49E" to i8*), [0 x i8] zeroinitializer }>, align 8, !dbg !45
@alloc842 = private unnamed_addr constant <{ [43 x i8] }> <{ [43 x i8] c"called `Result::unwrap()` on an `Err` value" }>, align 1
@vtable.8 = private unnamed_addr constant <{ i8*, [16 x i8], i8*, [0 x i8] }> <{ i8* bitcast (void (%"std::io::Error"*)* @"_ZN4core3ptr42drop_in_place$LT$std..io..error..Error$GT$17h039c0e666c9bdd3cE" to i8*), [16 x i8] c"\10\00\00\00\00\00\00\00\08\00\00\00\00\00\00\00", i8* bitcast (i1 (%"std::io::Error"*, %"std::fmt::Formatter"*)* @"_ZN58_$LT$std..io..error..Error$u20$as$u20$core..fmt..Debug$GT$3fmt17hfa0e70e51a8cc47eE" to i8*), [0 x i8] zeroinitializer }>, align 8, !dbg !49
@vtable.9 = private unnamed_addr constant <{ i8*, [16 x i8], i8*, [0 x i8] }> <{ i8* bitcast (void (%"std::array::TryFromSliceError"*)* @"_ZN4core3ptr51drop_in_place$LT$core..array..TryFromSliceError$GT$17hfea8906bf6b06c3cE" to i8*), [16 x i8] c"\00\00\00\00\00\00\00\00\01\00\00\00\00\00\00\00", i8* bitcast (i1 (%"std::array::TryFromSliceError"*, %"std::fmt::Formatter"*)* @"_ZN67_$LT$core..array..TryFromSliceError$u20$as$u20$core..fmt..Debug$GT$3fmt17hf76d34ae020e321eE" to i8*), [0 x i8] zeroinitializer }>, align 8, !dbg !150
@vtable.a = private unnamed_addr constant <{ i8*, [16 x i8], i8*, [0 x i8] }> <{ i8* bitcast (void (%"std::string::FromUtf8Error"*)* @"_ZN4core3ptr49drop_in_place$LT$alloc..string..FromUtf8Error$GT$17h32f9c3a0ef2dca2fE" to i8*), [16 x i8] c"(\00\00\00\00\00\00\00\08\00\00\00\00\00\00\00", i8* bitcast (i1 (%"std::string::FromUtf8Error"*, %"std::fmt::Formatter"*)* @"_ZN65_$LT$alloc..string..FromUtf8Error$u20$as$u20$core..fmt..Debug$GT$3fmt17h09a766afb8f76460E" to i8*), [0 x i8] zeroinitializer }>, align 8, !dbg !158
@vtable.b = private unnamed_addr constant <{ i8*, [16 x i8], i8*, [0 x i8] }> <{ i8* bitcast (void (%"sha2::digest::InvalidOutputSize"*)* @"_ZN4core3ptr46drop_in_place$LT$digest..InvalidOutputSize$GT$17h0ef75393c6e2943eE" to i8*), [16 x i8] c"\00\00\00\00\00\00\00\00\01\00\00\00\00\00\00\00", i8* bitcast (i1 (%"sha2::digest::InvalidOutputSize"*, %"std::fmt::Formatter"*)* @"_ZN62_$LT$digest..InvalidOutputSize$u20$as$u20$core..fmt..Debug$GT$3fmt17h0cfe8433d55d04b6E" to i8*), [0 x i8] zeroinitializer }>, align 8, !dbg !183
@vtable.c = private unnamed_addr constant <{ i8*, [16 x i8], i8*, [0 x i8] }> <{ i8* bitcast (void (%"bs58::encode::Error::BufferTooSmall"*)* @"_ZN4core3ptr40drop_in_place$LT$bs58..encode..Error$GT$17h79025da556657608E" to i8*), [16 x i8] c"\00\00\00\00\00\00\00\00\01\00\00\00\00\00\00\00", i8* bitcast (i1 (%"bs58::encode::Error::BufferTooSmall"*, %"std::fmt::Formatter"*)* @"_ZN56_$LT$bs58..encode..Error$u20$as$u20$core..fmt..Debug$GT$3fmt17h2ec6e84362324d60E" to i8*), [0 x i8] zeroinitializer }>, align 8, !dbg !188
@alloc846 = private unnamed_addr constant <{ [53 x i8] }> <{ [53 x i8] c"attempt to join into collection with len > usize::MAX" }>, align 1
@alloc849 = private unnamed_addr constant <{ [71 x i8] }> <{ [71 x i8] c"/home/runner/work/bpf-tools/bpf-tools/out/rust/library/alloc/src/str.rs" }>, align 1
@alloc848 = private unnamed_addr constant <{ i8*, [16 x i8] }> <{ i8* getelementptr inbounds (<{ [71 x i8] }>, <{ [71 x i8] }>* @alloc849, i32 0, i32 0, i32 0), [16 x i8] c"G\00\00\00\00\00\00\00\AB\00\00\00\0A\00\00\00" }>, align 8
@alloc850 = private unnamed_addr constant <{ i8*, [16 x i8] }> <{ i8* getelementptr inbounds (<{ [71 x i8] }>, <{ [71 x i8] }>* @alloc849, i32 0, i32 0, i32 0), [16 x i8] c"G\00\00\00\00\00\00\00\C9\00\00\00\0A\00\00\00" }>, align 8
@0 = private unnamed_addr constant <{ [16 x i8] }> <{ [16 x i8] c"\01\00\00\00\00\00\00\00\00\00\00\00\00\00\00\00" }>, align 8
@1 = private unnamed_addr constant <{ [16 x i8] }> <{ [16 x i8] c"\08\00\00\00\00\00\00\00\00\00\00\00\00\00\00\00" }>, align 8
@alloc627 = private unnamed_addr constant <{ [0 x i8] }> zeroinitializer, align 8
@alloc851 = private unnamed_addr constant <{ [75 x i8] }> <{ [75 x i8] c"/home/runner/work/bpf-tools/bpf-tools/out/rust/library/alloc/src/raw_vec.rs" }>, align 1
@alloc852 = private unnamed_addr constant <{ i8*, [16 x i8] }> <{ i8* getelementptr inbounds (<{ [75 x i8] }>, <{ [75 x i8] }>* @alloc851, i32 0, i32 0, i32 0), [16 x i8] c"K\00\00\00\00\00\00\00\97\01\00\00\09\00\00\00" }>, align 8
@alloc858 = private unnamed_addr constant <{ [7 x i8] }> <{ [7 x i8] c"RefCell" }>, align 1
@alloc859 = private unnamed_addr constant <{ [5 x i8] }> <{ [5 x i8] c"value" }>, align 1
@vtable.d = private unnamed_addr constant <{ i8*, [16 x i8], i8*, [0 x i8] }> <{ i8* bitcast (void (%"<std::cell::RefCell<T> as std::fmt::Debug>::fmt::BorrowedPlaceholder"*)* @"_ZN4core3ptr111drop_in_place$LT$$LT$core..cell..RefCell$LT$T$GT$$u20$as$u20$core..fmt..Debug$GT$..fmt..BorrowedPlaceholder$GT$17h02f7c9aa98d8960eE" to i8*), [16 x i8] c"\00\00\00\00\00\00\00\00\01\00\00\00\00\00\00\00", i8* bitcast (i1 (%"<std::cell::RefCell<T> as std::fmt::Debug>::fmt::BorrowedPlaceholder"*, %"std::fmt::Formatter"*)* @"_ZN127_$LT$$LT$core..cell..RefCell$LT$T$GT$$u20$as$u20$core..fmt..Debug$GT$..fmt..BorrowedPlaceholder$u20$as$u20$core..fmt..Debug$GT$3fmt17h679940a94368e182E" to i8*), [0 x i8] zeroinitializer }>, align 8, !dbg !199
@vtable.e = private unnamed_addr constant <{ i8*, [16 x i8], i8*, [0 x i8] }> <{ i8* bitcast (void ({ i64*, i64* }*)* @"_ZN4core3ptr88drop_in_place$LT$core..cell..Ref$LT$alloc..vec..Vec$LT$alloc..string..String$GT$$GT$$GT$17h0d4ae18f6f0ac0e0E" to i8*), [16 x i8] c"\10\00\00\00\00\00\00\00\08\00\00\00\00\00\00\00", i8* bitcast (i1 ({ i64*, i64* }*, %"std::fmt::Formatter"*)* @"_ZN61_$LT$core..cell..Ref$LT$T$GT$$u20$as$u20$core..fmt..Debug$GT$3fmt17hb5bc540db1cbfb22E" to i8*), [0 x i8] zeroinitializer }>, align 8, !dbg !206
@alloc863 = private unnamed_addr constant <{ [4 x i8] }> <{ [4 x i8] c"Some" }>, align 1
@alloc864 = private unnamed_addr constant <{ [4 x i8] }> <{ [4 x i8] c"None" }>, align 1
@alloc866 = private unnamed_addr constant <{ i8*, [16 x i8] }> <{ i8* getelementptr inbounds (<{ [78 x i8] }>, <{ [78 x i8] }>* @alloc865, i32 0, i32 0, i32 0), [16 x i8] c"N\00\00\00\00\00\00\00Q\00\00\00+\00\00\00" }>, align 8
@alloc869 = private unnamed_addr constant <{ [87 x i8] }> <{ [87 x i8] c"/root/.cargo/registry/src/github.com-1ecc6299db9ec823/block-buffer-0.10.2/src/sealed.rs" }>, align 1
@alloc868 = private unnamed_addr constant <{ i8*, [16 x i8] }> <{ i8* getelementptr inbounds (<{ [87 x i8] }>, <{ [87 x i8] }>* @alloc869, i32 0, i32 0, i32 0), [16 x i8] c"W\00\00\00\00\00\00\00\17\00\00\00\1A\00\00\00" }>, align 8
@alloc870 = private unnamed_addr constant <{ i8*, [16 x i8] }> <{ i8* getelementptr inbounds (<{ [87 x i8] }>, <{ [87 x i8] }>* @alloc869, i32 0, i32 0, i32 0), [16 x i8] c"W\00\00\00\00\00\00\00\18\00\00\00\18\00\00\00" }>, align 8
@alloc871 = private unnamed_addr constant <{ [74 x i8] }> <{ [74 x i8] c"/home/runner/work/bpf-tools/bpf-tools/out/rust/library/alloc/src/string.rs" }>, align 1
@alloc872 = private unnamed_addr constant <{ i8*, [16 x i8] }> <{ i8* getelementptr inbounds (<{ [74 x i8] }>, <{ [74 x i8] }>* @alloc871, i32 0, i32 0, i32 0), [16 x i8] c"J\00\00\00\00\00\00\003\08\00\00\01\00\00\00" }>, align 8
@alloc881 = private unnamed_addr constant <{ [81 x i8] }> <{ [81 x i8] c"/root/.cargo/registry/src/github.com-1ecc6299db9ec823/sha2-0.10.2/src/core_api.rs" }>, align 1
@alloc874 = private unnamed_addr constant <{ i8*, [16 x i8] }> <{ i8* getelementptr inbounds (<{ [81 x i8] }>, <{ [81 x i8] }>* @alloc881, i32 0, i32 0, i32 0), [16 x i8] c"Q\00\00\00\00\00\00\00$\00\00\00\09\00\00\00" }>, align 8
@alloc875 = private unnamed_addr constant <{ [78 x i8] }> <{ [78 x i8] c"/home/runner/work/bpf-tools/bpf-tools/out/rust/library/core/src/str/pattern.rs" }>, align 1
@alloc876 = private unnamed_addr constant <{ i8*, [16 x i8] }> <{ i8* getelementptr inbounds (<{ [78 x i8] }>, <{ [78 x i8] }>* @alloc875, i32 0, i32 0, i32 0), [16 x i8] c"N\00\00\00\00\00\00\00\B0\01\00\00&\00\00\00" }>, align 8
@alloc878 = private unnamed_addr constant <{ i8*, [16 x i8] }> <{ i8* getelementptr inbounds (<{ [81 x i8] }>, <{ [81 x i8] }>* @alloc881, i32 0, i32 0, i32 0), [16 x i8] c"Q\00\00\00\00\00\00\00>\00\00\006\00\00\00" }>, align 8
@alloc880 = private unnamed_addr constant <{ i8*, [16 x i8] }> <{ i8* getelementptr inbounds (<{ [81 x i8] }>, <{ [81 x i8] }>* @alloc881, i32 0, i32 0, i32 0), [16 x i8] c"Q\00\00\00\00\00\00\00>\00\00\00\1B\00\00\00" }>, align 8
@alloc882 = private unnamed_addr constant <{ i8*, [16 x i8] }> <{ i8* getelementptr inbounds (<{ [81 x i8] }>, <{ [81 x i8] }>* @alloc881, i32 0, i32 0, i32 0), [16 x i8] c"Q\00\00\00\00\00\00\00>\00\00\00\17\00\00\00" }>, align 8
@2 = private unnamed_addr constant <{ [32 x i8] }> <{ [32 x i8] c"g\E6\09j\85\AEg\BBr\F3n<:\F5O\A5\7FR\0EQ\8Ch\05\9B\AB\D9\83\1F\19\CD\E0[" }>, align 4
@3 = private unnamed_addr constant <{ [32 x i8] }> <{ [32 x i8] c"\D8\9E\05\C1\07\D5|6\17\DDp09Y\0E\F71\0B\C0\FF\11\15Xh\A7\8F\F9d\A4O\FA\BE" }>, align 4
@alloc884 = private unnamed_addr constant <{ i8*, [16 x i8] }> <{ i8* getelementptr inbounds (<{ [77 x i8] }>, <{ [77 x i8] }>* @alloc883, i32 0, i32 0, i32 0), [16 x i8] c"M\00\00\00\00\00\00\00\85\00\00\00\01\00\00\00" }>, align 8
@alloc886 = private unnamed_addr constant <{ [83 x i8] }> <{ [83 x i8] c"/home/runner/work/bpf-tools/bpf-tools/out/rust/library/alloc/src/vec/spec_extend.rs" }>, align 1
@alloc887 = private unnamed_addr constant <{ i8*, [16 x i8] }> <{ i8* getelementptr inbounds (<{ [83 x i8] }>, <{ [83 x i8] }>* @alloc886, i32 0, i32 0, i32 0), [16 x i8] c"S\00\00\00\00\00\00\007\00\00\00\0D\00\00\00" }>, align 8
@alloc889 = private unnamed_addr constant <{ [15 x i8] }> <{ [15 x i8] c"__SerializeWith" }>, align 1
@alloc890 = private unnamed_addr constant <{ [1 x i8] }> <{ [1 x i8] c" " }>, align 1
@alloc363 = private unnamed_addr constant <{ i8*, [8 x i8] }> <{ i8* getelementptr inbounds (<{ [0 x i8] }>, <{ [0 x i8] }>* @alloc627, i32 0, i32 0, i32 0), [8 x i8] zeroinitializer }>, align 8
@alloc238 = private unnamed_addr constant <{ [1 x i8] }> <{ [1 x i8] c"\0A" }>, align 1
@alloc236 = private unnamed_addr constant <{ i8*, [8 x i8], i8*, [8 x i8], i8*, [8 x i8] }> <{ i8* getelementptr inbounds (<{ [0 x i8] }>, <{ [0 x i8] }>* @alloc627, i32 0, i32 0, i32 0), [8 x i8] zeroinitializer, i8* getelementptr inbounds (<{ [0 x i8] }>, <{ [0 x i8] }>* @alloc627, i32 0, i32 0, i32 0), [8 x i8] zeroinitializer, i8* getelementptr inbounds (<{ [1 x i8] }>, <{ [1 x i8] }>* @alloc238, i32 0, i32 0, i32 0), [8 x i8] c"\01\00\00\00\00\00\00\00" }>, align 8
@alloc250 = private unnamed_addr constant <{ [112 x i8] }> <{ [112 x i8] c"\00\00\00\00\00\00\00\00\02\00\00\00\00\00\00\00\00\00\00\00\00\00\00\00\01\00\00\00\00\00\00\00\02\00\00\00\00\00\00\00 \00\00\00\08\00\00\00\03\00\00\00\00\00\00\00\01\00\00\00\00\00\00\00\02\00\00\00\00\00\00\00\00\00\00\00\00\00\00\00\02\00\00\00\00\00\00\00\00\00\00\00\00\00\00\00 \00\00\00\00\00\00\00\03\00\00\00\00\00\00\00" }>, align 8
@alloc674 = private unnamed_addr constant <{ [8 x i8] }> <{ [8 x i8] c"\05\00\00\00\00\00\00\00" }>, align 8
@alloc254 = private unnamed_addr constant <{ [15 x i8] }> <{ [15 x i8] c"updating with: " }>, align 1
@alloc255 = private unnamed_addr constant <{ i8*, [8 x i8] }> <{ i8* getelementptr inbounds (<{ [15 x i8] }>, <{ [15 x i8] }>* @alloc254, i32 0, i32 0, i32 0), [8 x i8] c"\0F\00\00\00\00\00\00\00" }>, align 8
@alloc316 = private unnamed_addr constant <{ [31 x i8] }> <{ [31 x i8] c"solana_frozen_abi::abi_digester" }>, align 1
@alloc934 = private unnamed_addr constant <{ [98 x i8] }> <{ [98 x i8] c"/root/.cargo/registry/src/github.com-1ecc6299db9ec823/solana-frozen-abi-1.10.0/src/abi_digester.rs" }>, align 1
@alloc258 = private unnamed_addr constant <{ i8*, [8 x i8], i8*, [8 x i8], i8*, [16 x i8] }> <{ i8* getelementptr inbounds (<{ [31 x i8] }>, <{ [31 x i8] }>* @alloc316, i32 0, i32 0, i32 0), [8 x i8] c"\1F\00\00\00\00\00\00\00", i8* getelementptr inbounds (<{ [31 x i8] }>, <{ [31 x i8] }>* @alloc316, i32 0, i32 0, i32 0), [8 x i8] c"\1F\00\00\00\00\00\00\00", i8* getelementptr inbounds (<{ [98 x i8] }>, <{ [98 x i8] }>* @alloc934, i32 0, i32 0, i32 0), [16 x i8] c"b\00\00\00\00\00\00\00\9A\00\00\00\00\00\00\00" }>, align 8
@alloc892 = private unnamed_addr constant <{ i8*, [16 x i8] }> <{ i8* getelementptr inbounds (<{ [98 x i8] }>, <{ [98 x i8] }>* @alloc934, i32 0, i32 0, i32 0), [16 x i8] c"b\00\00\00\00\00\00\00\9B\00\00\00\1B\00\00\00" }>, align 8
@alloc908 = private unnamed_addr constant <{ [9 x i8] }> <{ [9 x i8] c"primitive" }>, align 1
@alloc293 = private unnamed_addr constant <{ [78 x i8] }> <{ [78 x i8] c"derive AbiEnumVisitor or implement it for the enum, which contains a variant (" }>, align 1
@alloc295 = private unnamed_addr constant <{ [8 x i8] }> <{ [8 x i8] c") named " }>, align 1
@alloc294 = private unnamed_addr constant <{ i8*, [8 x i8], i8*, [8 x i8] }> <{ i8* getelementptr inbounds (<{ [78 x i8] }>, <{ [78 x i8] }>* @alloc293, i32 0, i32 0, i32 0), [8 x i8] c"N\00\00\00\00\00\00\00", i8* getelementptr inbounds (<{ [8 x i8] }>, <{ [8 x i8] }>* @alloc295, i32 0, i32 0, i32 0), [8 x i8] c"\08\00\00\00\00\00\00\00" }>, align 8
@alloc910 = private unnamed_addr constant <{ i8*, [16 x i8] }> <{ i8* getelementptr inbounds (<{ [98 x i8] }>, <{ [98 x i8] }>* @alloc934, i32 0, i32 0, i32 0), [16 x i8] c"b\00\00\00\00\00\00\00\C9\00\00\00\09\00\00\00" }>, align 8
@alloc912 = private unnamed_addr constant <{ i8*, [16 x i8] }> <{ i8* getelementptr inbounds (<{ [98 x i8] }>, <{ [98 x i8] }>* @alloc934, i32 0, i32 0, i32 0), [16 x i8] c"b\00\00\00\00\00\00\00\D0\00\00\00&\00\00\00" }>, align 8
@alloc913 = private unnamed_addr constant <{ [19 x i8] }> <{ [19 x i8] c"SOLANA_ABI_DUMP_DIR" }>, align 1
@alloc914 = private unnamed_addr constant <{ [19 x i8] }> <{ [19 x i8] c"unknown-test-thread" }>, align 1
@alloc326 = private unnamed_addr constant <{ [1 x i8] }> <{ [1 x i8] c"_" }>, align 1
@alloc304 = private unnamed_addr constant <{ [4 x i8] }> <{ [4 x i8] c"main" }>, align 1
@alloc305 = private unnamed_addr constant <{ i8*, [8 x i8] }> <{ i8* getelementptr inbounds (<{ [4 x i8] }>, <{ [4 x i8] }>* @alloc304, i32 0, i32 0, i32 0), [8 x i8] c"\04\00\00\00\00\00\00\00" }>, align 8
@alloc311 = private unnamed_addr constant <{ [123 x i8] }> <{ [123 x i8] c"Bad thread name detected for dumping; Maybe, --test-threads=1? Sorry, SOLANA_ABI_DUMP_DIR doesn't work under 1; increase it" }>, align 1
@alloc312 = private unnamed_addr constant <{ i8*, [8 x i8] }> <{ i8* getelementptr inbounds (<{ [123 x i8] }>, <{ [123 x i8] }>* @alloc311, i32 0, i32 0, i32 0), [8 x i8] c"{\00\00\00\00\00\00\00" }>, align 8
@alloc315 = private unnamed_addr constant <{ i8*, [8 x i8], i8*, [8 x i8], i8*, [16 x i8] }> <{ i8* getelementptr inbounds (<{ [31 x i8] }>, <{ [31 x i8] }>* @alloc316, i32 0, i32 0, i32 0), [8 x i8] c"\1F\00\00\00\00\00\00\00", i8* getelementptr inbounds (<{ [31 x i8] }>, <{ [31 x i8] }>* @alloc316, i32 0, i32 0, i32 0), [8 x i8] c"\1F\00\00\00\00\00\00\00", i8* getelementptr inbounds (<{ [98 x i8] }>, <{ [98 x i8] }>* @alloc934, i32 0, i32 0, i32 0), [16 x i8] c"b\00\00\00\00\00\00\00\DC\00\00\00\00\00\00\00" }>, align 8
@alloc325 = private unnamed_addr constant <{ [1 x i8] }> <{ [1 x i8] c"/" }>, align 1
@alloc324 = private unnamed_addr constant <{ i8*, [8 x i8], i8*, [8 x i8], i8*, [8 x i8] }> <{ i8* getelementptr inbounds (<{ [0 x i8] }>, <{ [0 x i8] }>* @alloc627, i32 0, i32 0, i32 0), [8 x i8] zeroinitializer, i8* getelementptr inbounds (<{ [1 x i8] }>, <{ [1 x i8] }>* @alloc325, i32 0, i32 0, i32 0), [8 x i8] c"\01\00\00\00\00\00\00\00", i8* getelementptr inbounds (<{ [1 x i8] }>, <{ [1 x i8] }>* @alloc326, i32 0, i32 0, i32 0), [8 x i8] c"\01\00\00\00\00\00\00\00" }>, align 8
@alloc917 = private unnamed_addr constant <{ i8*, [16 x i8] }> <{ i8* getelementptr inbounds (<{ [98 x i8] }>, <{ [98 x i8] }>* @alloc934, i32 0, i32 0, i32 0), [16 x i8] c"b\00\00\00\00\00\00\00\E0\00\00\008\00\00\00" }>, align 8
@alloc919 = private unnamed_addr constant <{ i8*, [16 x i8] }> <{ i8* getelementptr inbounds (<{ [98 x i8] }>, <{ [98 x i8] }>* @alloc934, i32 0, i32 0, i32 0), [16 x i8] c"b\00\00\00\00\00\00\00\E1\00\00\00*\00\00\00" }>, align 8
@alloc921 = private unnamed_addr constant <{ i8*, [16 x i8] }> <{ i8* getelementptr inbounds (<{ [98 x i8] }>, <{ [98 x i8] }>* @alloc934, i32 0, i32 0, i32 0), [16 x i8] c"b\00\00\00\00\00\00\00\E2\00\00\000\00\00\00" }>, align 8
@alloc923 = private unnamed_addr constant <{ i8*, [16 x i8] }> <{ i8* getelementptr inbounds (<{ [98 x i8] }>, <{ [98 x i8] }>* @alloc934, i32 0, i32 0, i32 0), [16 x i8] c"b\00\00\00\00\00\00\00\E4\00\00\00\1E\00\00\00" }>, align 8
@alloc464 = private unnamed_addr constant <{ [18 x i8] }> <{ [18 x i8] c"bytes [u8] (len = " }>, align 1
@alloc572 = private unnamed_addr constant <{ [1 x i8] }> <{ [1 x i8] c")" }>, align 1
@alloc465 = private unnamed_addr constant <{ i8*, [8 x i8], i8*, [8 x i8] }> <{ i8* getelementptr inbounds (<{ [18 x i8] }>, <{ [18 x i8] }>* @alloc464, i32 0, i32 0, i32 0), [8 x i8] c"\12\00\00\00\00\00\00\00", i8* getelementptr inbounds (<{ [1 x i8] }>, <{ [1 x i8] }>* @alloc572, i32 0, i32 0, i32 0), [8 x i8] c"\01\00\00\00\00\00\00\00" }>, align 8
@alloc924 = private unnamed_addr constant <{ [6 x i8] }> <{ [6 x i8] c"struct" }>, align 1
@alloc925 = private unnamed_addr constant <{ [6 x i8] }> <{ [6 x i8] c"(unit)" }>, align 1
@alloc926 = private unnamed_addr constant <{ [12 x i8] }> <{ [12 x i8] c"unit_variant" }>, align 1
@alloc568 = private unnamed_addr constant <{ [8 x i8] }> <{ [8 x i8] c"variant(" }>, align 1
@alloc532 = private unnamed_addr constant <{ [2 x i8] }> <{ [2 x i8] c") " }>, align 1
@alloc488 = private unnamed_addr constant <{ [7 x i8] }> <{ [7 x i8] c" (unit)" }>, align 1
@alloc486 = private unnamed_addr constant <{ i8*, [8 x i8], i8*, [8 x i8], i8*, [8 x i8] }> <{ i8* getelementptr inbounds (<{ [8 x i8] }>, <{ [8 x i8] }>* @alloc568, i32 0, i32 0, i32 0), [8 x i8] c"\08\00\00\00\00\00\00\00", i8* getelementptr inbounds (<{ [2 x i8] }>, <{ [2 x i8] }>* @alloc532, i32 0, i32 0, i32 0), [8 x i8] c"\02\00\00\00\00\00\00\00", i8* getelementptr inbounds (<{ [7 x i8] }>, <{ [7 x i8] }>* @alloc488, i32 0, i32 0, i32 0), [8 x i8] c"\07\00\00\00\00\00\00\00" }>, align 8
@alloc928 = private unnamed_addr constant <{ i8*, [16 x i8] }> <{ i8* getelementptr inbounds (<{ [98 x i8] }>, <{ [98 x i8] }>* @alloc934, i32 0, i32 0, i32 0), [16 x i8] c"b\00\00\00\00\00\00\00y\01\00\00\17\00\00\00" }>, align 8
@alloc537 = private unnamed_addr constant <{ [8 x i8] }> <{ [8 x i8] c"\01\00\00\00\00\00\00\00" }>, align 8
@alloc500 = private unnamed_addr constant <{ [68 x i8] }> <{ [68 x i8] c"Exactly 1 seq element is needed to generate the ABI digest precisely" }>, align 1
@alloc501 = private unnamed_addr constant <{ i8*, [8 x i8] }> <{ i8* getelementptr inbounds (<{ [68 x i8] }>, <{ [68 x i8] }>* @alloc500, i32 0, i32 0, i32 0), [8 x i8] c"D\00\00\00\00\00\00\00" }>, align 8
@alloc930 = private unnamed_addr constant <{ i8*, [16 x i8] }> <{ i8* getelementptr inbounds (<{ [98 x i8] }>, <{ [98 x i8] }>* @alloc934, i32 0, i32 0, i32 0), [16 x i8] c"b\00\00\00\00\00\00\00z\01\00\00\09\00\00\00" }>, align 8
@alloc505 = private unnamed_addr constant <{ [16 x i8] }> <{ [16 x i8] c"seq (elements = " }>, align 1
@alloc506 = private unnamed_addr constant <{ i8*, [8 x i8], i8*, [8 x i8] }> <{ i8* getelementptr inbounds (<{ [16 x i8] }>, <{ [16 x i8] }>* @alloc505, i32 0, i32 0, i32 0), [8 x i8] c"\10\00\00\00\00\00\00\00", i8* getelementptr inbounds (<{ [1 x i8] }>, <{ [1 x i8] }>* @alloc572, i32 0, i32 0, i32 0), [8 x i8] c"\01\00\00\00\00\00\00\00" }>, align 8
@alloc511 = private unnamed_addr constant <{ [18 x i8] }> <{ [18 x i8] c"tuple (elements = " }>, align 1
@alloc512 = private unnamed_addr constant <{ i8*, [8 x i8], i8*, [8 x i8] }> <{ i8* getelementptr inbounds (<{ [18 x i8] }>, <{ [18 x i8] }>* @alloc511, i32 0, i32 0, i32 0), [8 x i8] c"\12\00\00\00\00\00\00\00", i8* getelementptr inbounds (<{ [1 x i8] }>, <{ [1 x i8] }>* @alloc572, i32 0, i32 0, i32 0), [8 x i8] c"\01\00\00\00\00\00\00\00" }>, align 8
@alloc557 = private unnamed_addr constant <{ [7 x i8] }> <{ [7 x i8] c"struct " }>, align 1
@alloc571 = private unnamed_addr constant <{ [11 x i8] }> <{ [11 x i8] c" (fields = " }>, align 1
@alloc522 = private unnamed_addr constant <{ [9 x i8] }> <{ [9 x i8] c") (tuple)" }>, align 1
@alloc520 = private unnamed_addr constant <{ i8*, [8 x i8], i8*, [8 x i8], i8*, [8 x i8] }> <{ i8* getelementptr inbounds (<{ [7 x i8] }>, <{ [7 x i8] }>* @alloc557, i32 0, i32 0, i32 0), [8 x i8] c"\07\00\00\00\00\00\00\00", i8* getelementptr inbounds (<{ [11 x i8] }>, <{ [11 x i8] }>* @alloc571, i32 0, i32 0, i32 0), [8 x i8] c"\0B\00\00\00\00\00\00\00", i8* getelementptr inbounds (<{ [9 x i8] }>, <{ [9 x i8] }>* @alloc522, i32 0, i32 0, i32 0), [8 x i8] c"\09\00\00\00\00\00\00\00" }>, align 8
@alloc931 = private unnamed_addr constant <{ [13 x i8] }> <{ [13 x i8] c"tuple_variant" }>, align 1
@alloc531 = private unnamed_addr constant <{ i8*, [8 x i8], i8*, [8 x i8], i8*, [8 x i8], i8*, [8 x i8] }> <{ i8* getelementptr inbounds (<{ [8 x i8] }>, <{ [8 x i8] }>* @alloc568, i32 0, i32 0, i32 0), [8 x i8] c"\08\00\00\00\00\00\00\00", i8* getelementptr inbounds (<{ [2 x i8] }>, <{ [2 x i8] }>* @alloc532, i32 0, i32 0, i32 0), [8 x i8] c"\02\00\00\00\00\00\00\00", i8* getelementptr inbounds (<{ [11 x i8] }>, <{ [11 x i8] }>* @alloc571, i32 0, i32 0, i32 0), [8 x i8] c"\0B\00\00\00\00\00\00\00", i8* getelementptr inbounds (<{ [1 x i8] }>, <{ [1 x i8] }>* @alloc572, i32 0, i32 0, i32 0), [8 x i8] c"\01\00\00\00\00\00\00\00" }>, align 8
@alloc933 = private unnamed_addr constant <{ i8*, [16 x i8] }> <{ i8* getelementptr inbounds (<{ [98 x i8] }>, <{ [98 x i8] }>* @alloc934, i32 0, i32 0, i32 0), [16 x i8] c"b\00\00\00\00\00\00\00\99\01\00\00\17\00\00\00" }>, align 8
@alloc544 = private unnamed_addr constant <{ [66 x i8] }> <{ [66 x i8] c"Exactly 1 map entry is needed to generate the ABI digest precisely" }>, align 1
@alloc545 = private unnamed_addr constant <{ i8*, [8 x i8] }> <{ i8* getelementptr inbounds (<{ [66 x i8] }>, <{ [66 x i8] }>* @alloc544, i32 0, i32 0, i32 0), [8 x i8] c"B\00\00\00\00\00\00\00" }>, align 8
@alloc935 = private unnamed_addr constant <{ i8*, [16 x i8] }> <{ i8* getelementptr inbounds (<{ [98 x i8] }>, <{ [98 x i8] }>* @alloc934, i32 0, i32 0, i32 0), [16 x i8] c"b\00\00\00\00\00\00\00\9A\01\00\00\09\00\00\00" }>, align 8
@alloc549 = private unnamed_addr constant <{ [15 x i8] }> <{ [15 x i8] c"map (entries = " }>, align 1
@alloc550 = private unnamed_addr constant <{ i8*, [8 x i8], i8*, [8 x i8] }> <{ i8* getelementptr inbounds (<{ [15 x i8] }>, <{ [15 x i8] }>* @alloc549, i32 0, i32 0, i32 0), [8 x i8] c"\0F\00\00\00\00\00\00\00", i8* getelementptr inbounds (<{ [1 x i8] }>, <{ [1 x i8] }>* @alloc572, i32 0, i32 0, i32 0), [8 x i8] c"\01\00\00\00\00\00\00\00" }>, align 8
@alloc558 = private unnamed_addr constant <{ i8*, [8 x i8], i8*, [8 x i8], i8*, [8 x i8] }> <{ i8* getelementptr inbounds (<{ [7 x i8] }>, <{ [7 x i8] }>* @alloc557, i32 0, i32 0, i32 0), [8 x i8] c"\07\00\00\00\00\00\00\00", i8* getelementptr inbounds (<{ [11 x i8] }>, <{ [11 x i8] }>* @alloc571, i32 0, i32 0, i32 0), [8 x i8] c"\0B\00\00\00\00\00\00\00", i8* getelementptr inbounds (<{ [1 x i8] }>, <{ [1 x i8] }>* @alloc572, i32 0, i32 0, i32 0), [8 x i8] c"\01\00\00\00\00\00\00\00" }>, align 8
@alloc936 = private unnamed_addr constant <{ [14 x i8] }> <{ [14 x i8] c"struct_variant" }>, align 1
@alloc570 = private unnamed_addr constant <{ [9 x i8] }> <{ [9 x i8] c") struct " }>, align 1
@alloc569 = private unnamed_addr constant <{ i8*, [8 x i8], i8*, [8 x i8], i8*, [8 x i8], i8*, [8 x i8] }> <{ i8* getelementptr inbounds (<{ [8 x i8] }>, <{ [8 x i8] }>* @alloc568, i32 0, i32 0, i32 0), [8 x i8] c"\08\00\00\00\00\00\00\00", i8* getelementptr inbounds (<{ [9 x i8] }>, <{ [9 x i8] }>* @alloc570, i32 0, i32 0, i32 0), [8 x i8] c"\09\00\00\00\00\00\00\00", i8* getelementptr inbounds (<{ [11 x i8] }>, <{ [11 x i8] }>* @alloc571, i32 0, i32 0, i32 0), [8 x i8] c"\0B\00\00\00\00\00\00\00", i8* getelementptr inbounds (<{ [1 x i8] }>, <{ [1 x i8] }>* @alloc572, i32 0, i32 0, i32 0), [8 x i8] c"\01\00\00\00\00\00\00\00" }>, align 8
@alloc684 = private unnamed_addr constant <{ [90 x i8] }> <{ [90 x i8] c"/root/.cargo/registry/src/github.com-1ecc6299db9ec823/solana-frozen-abi-1.10.0/src/hash.rs" }>, align 1
@alloc938 = private unnamed_addr constant <{ i8*, [16 x i8] }> <{ i8* getelementptr inbounds (<{ [90 x i8] }>, <{ [90 x i8] }>* @alloc684, i32 0, i32 0, i32 0), [16 x i8] c"Z\00\00\00\00\00\00\00\16\00\00\00N\00\00\00" }>, align 8
@alloc939 = private unnamed_addr constant <{ [11 x i8] }> <{ [11 x i8] c"AbiDigester" }>, align 1
@alloc940 = private unnamed_addr constant <{ [10 x i8] }> <{ [10 x i8] c"data_types" }>, align 1
@vtable.f = private unnamed_addr constant <{ i8*, [16 x i8], i8*, [0 x i8] }> <{ i8* bitcast (void (i64***)* @"_ZN4core3ptr117drop_in_place$LT$$RF$alloc..rc..Rc$LT$core..cell..RefCell$LT$alloc..vec..Vec$LT$alloc..string..String$GT$$GT$$GT$$GT$17h8f47616f3ffa183bE" to i8*), [16 x i8] c"\08\00\00\00\00\00\00\00\08\00\00\00\00\00\00\00", i8* bitcast (i1 (i64***, %"std::fmt::Formatter"*)* @"_ZN42_$LT$$RF$T$u20$as$u20$core..fmt..Debug$GT$3fmt17h6966e03dbfd2dcfdE" to i8*), [0 x i8] zeroinitializer }>, align 8, !dbg !247
@alloc944 = private unnamed_addr constant <{ [5 x i8] }> <{ [5 x i8] c"depth" }>, align 1
@vtable.g = private unnamed_addr constant <{ i8*, [16 x i8], i8*, [0 x i8] }> <{ i8* bitcast (void (i64**)* @"_ZN4core3ptr30drop_in_place$LT$$RF$usize$GT$17h59abe25df9eae4edE" to i8*), [16 x i8] c"\08\00\00\00\00\00\00\00\08\00\00\00\00\00\00\00", i8* bitcast (i1 (i64**, %"std::fmt::Formatter"*)* @"_ZN42_$LT$$RF$T$u20$as$u20$core..fmt..Debug$GT$3fmt17h3f266abbfae66ec3E" to i8*), [0 x i8] zeroinitializer }>, align 8, !dbg !286
@alloc948 = private unnamed_addr constant <{ [8 x i8] }> <{ [8 x i8] c"for_enum" }>, align 1
@vtable.h = private unnamed_addr constant <{ i8*, [16 x i8], i8*, [0 x i8] }> <{ i8* bitcast (void (i8**)* @"_ZN4core3ptr29drop_in_place$LT$$RF$bool$GT$17h1fcb1165d4700a82E" to i8*), [16 x i8] c"\08\00\00\00\00\00\00\00\08\00\00\00\00\00\00\00", i8* bitcast (i1 (i8**, %"std::fmt::Formatter"*)* @"_ZN42_$LT$$RF$T$u20$as$u20$core..fmt..Debug$GT$3fmt17hd8238b3cf1841a16E" to i8*), [0 x i8] zeroinitializer }>, align 8, !dbg !290
@alloc952 = private unnamed_addr constant <{ [12 x i8] }> <{ [12 x i8] c"opaque_scope" }>, align 1
@vtable.i = private unnamed_addr constant <{ i8*, [16 x i8], i8*, [0 x i8] }> <{ i8* bitcast (void (%"std::option::Option<std::string::String>"**)* @"_ZN4core3ptr74drop_in_place$LT$$RF$core..option..Option$LT$alloc..string..String$GT$$GT$17h98ef97b1045f531eE" to i8*), [16 x i8] c"\08\00\00\00\00\00\00\00\08\00\00\00\00\00\00\00", i8* bitcast (i1 (%"std::option::Option<std::string::String>"**, %"std::fmt::Formatter"*)* @"_ZN42_$LT$$RF$T$u20$as$u20$core..fmt..Debug$GT$3fmt17hf5da6e1c6d3c4597E" to i8*), [0 x i8] zeroinitializer }>, align 8, !dbg !295
@alloc956 = private unnamed_addr constant <{ [18 x i8] }> <{ [18 x i8] c"ArithmeticOverflow" }>, align 1
@alloc957 = private unnamed_addr constant <{ [4 x i8] }> <{ [4 x i8] c"Leaf" }>, align 1
@vtable.j = private unnamed_addr constant <{ i8*, [16 x i8], i8*, [0 x i8] }> <{ i8* bitcast (void ({ [0 x i8]*, i64 }**)* @"_ZN4core3ptr32drop_in_place$LT$$RF$$RF$str$GT$17h2549972cc8829affE" to i8*), [16 x i8] c"\08\00\00\00\00\00\00\00\08\00\00\00\00\00\00\00", i8* bitcast (i1 ({ [0 x i8]*, i64 }**, %"std::fmt::Formatter"*)* @"_ZN42_$LT$$RF$T$u20$as$u20$core..fmt..Debug$GT$3fmt17h2cde61016b58391eE" to i8*), [0 x i8] zeroinitializer }>, align 8, !dbg !311
@vtable.k = private unnamed_addr constant <{ i8*, [16 x i8], i8*, [0 x i8] }> <{ i8* bitcast (void (%"abi_digester::DigestError"***)* @"_ZN4core3ptr94drop_in_place$LT$$RF$alloc..boxed..Box$LT$solana_frozen_abi..abi_digester..DigestError$GT$$GT$17ha910f34dfbf25b7bE" to i8*), [16 x i8] c"\08\00\00\00\00\00\00\00\08\00\00\00\00\00\00\00", i8* bitcast (i1 (%"abi_digester::DigestError"***, %"std::fmt::Formatter"*)* @"_ZN42_$LT$$RF$T$u20$as$u20$core..fmt..Debug$GT$3fmt17hdf6c57b696069ba2E" to i8*), [0 x i8] zeroinitializer }>, align 8, !dbg !314
@alloc964 = private unnamed_addr constant <{ [4 x i8] }> <{ [4 x i8] c"Node" }>, align 1
@alloc965 = private unnamed_addr constant <{ [16 x i8] }> <{ [16 x i8] c"NoneIsSerialized" }>, align 1
@alloc624 = private unnamed_addr constant <{ [19 x i8] }> <{ [19 x i8] c"arithmetic overflow" }>, align 1
@alloc625 = private unnamed_addr constant <{ i8*, [8 x i8] }> <{ i8* getelementptr inbounds (<{ [19 x i8] }>, <{ [19 x i8] }>* @alloc624, i32 0, i32 0, i32 0), [8 x i8] c"\13\00\00\00\00\00\00\00" }>, align 8
@alloc639 = private unnamed_addr constant <{ [10 x i8] }> <{ [10 x i8] c"leaf error" }>, align 1
@alloc640 = private unnamed_addr constant <{ i8*, [8 x i8] }> <{ i8* getelementptr inbounds (<{ [10 x i8] }>, <{ [10 x i8] }>* @alloc639, i32 0, i32 0, i32 0), [8 x i8] c"\0A\00\00\00\00\00\00\00" }>, align 8
@alloc634 = private unnamed_addr constant <{ [12 x i8] }> <{ [12 x i8] c"nested error" }>, align 1
@alloc635 = private unnamed_addr constant <{ i8*, [8 x i8] }> <{ i8* getelementptr inbounds (<{ [12 x i8] }>, <{ [12 x i8] }>* @alloc634, i32 0, i32 0, i32 0), [8 x i8] c"\0C\00\00\00\00\00\00\00" }>, align 8
@alloc629 = private unnamed_addr constant <{ [58 x i8] }> <{ [58 x i8] c"Option::None is serialized; no ABI digest for Option::Some" }>, align 1
@alloc630 = private unnamed_addr constant <{ i8*, [8 x i8] }> <{ i8* getelementptr inbounds (<{ [58 x i8] }>, <{ [58 x i8] }>* @alloc629, i32 0, i32 0, i32 0), [8 x i8] c":\00\00\00\00\00\00\00" }>, align 8
@alloc678 = private unnamed_addr constant <{ [23 x i8] }> <{ [23 x i8] c"AbiExample for struct: " }>, align 1
@alloc679 = private unnamed_addr constant <{ i8*, [8 x i8] }> <{ i8* getelementptr inbounds (<{ [23 x i8] }>, <{ [23 x i8] }>* @alloc678, i32 0, i32 0, i32 0), [8 x i8] c"\17\00\00\00\00\00\00\00" }>, align 8
@alloc683 = private unnamed_addr constant <{ [23 x i8] }> <{ [23 x i8] c"solana_frozen_abi::hash" }>, align 1
@alloc682 = private unnamed_addr constant <{ i8*, [8 x i8], i8*, [8 x i8], i8*, [16 x i8] }> <{ i8* getelementptr inbounds (<{ [23 x i8] }>, <{ [23 x i8] }>* @alloc683, i32 0, i32 0, i32 0), [8 x i8] c"\17\00\00\00\00\00\00\00", i8* getelementptr inbounds (<{ [23 x i8] }>, <{ [23 x i8] }>* @alloc683, i32 0, i32 0, i32 0), [8 x i8] c"\17\00\00\00\00\00\00\00", i8* getelementptr inbounds (<{ [90 x i8] }>, <{ [90 x i8] }>* @alloc684, i32 0, i32 0, i32 0), [16 x i8] c"Z\00\00\00\00\00\00\00\07\00\00\00\00\00\00\00" }>, align 8

; <alloc::string::String as core::ops::index::Index<core::ops::range::RangeFull>>::index
; Function Attrs: inlinehint nounwind
define internal { [0 x i8]*, i64 } @"_ZN100_$LT$alloc..string..String$u20$as$u20$core..ops..index..Index$LT$core..ops..range..RangeFull$GT$$GT$5index17h12efb1744c60697aE"(%"std::string::String"* align 8 dereferenceable(24) %self, %"std::panic::Location"* align 8 dereferenceable(24) %0) unnamed_addr #0 !dbg !390 {
start:
  %_index.dbg.spill = alloca %"std::ops::RangeFull", align 1
  %self.dbg.spill = alloca %"std::string::String"*, align 8
  store %"std::string::String"* %self, %"std::string::String"** %self.dbg.spill, align 8
  call void @llvm.dbg.declare(metadata %"std::string::String"** %self.dbg.spill, metadata !408, metadata !DIExpression()), !dbg !410
  call void @llvm.dbg.declare(metadata %"std::ops::RangeFull"* %_index.dbg.spill, metadata !409, metadata !DIExpression()), !dbg !411
  %_6 = bitcast %"std::string::String"* %self to %"std::vec::Vec<u8>"*, !dbg !412
; call <alloc::vec::Vec<T,A> as core::ops::deref::Deref>::deref
  %1 = call { [0 x i8]*, i64 } @"_ZN72_$LT$alloc..vec..Vec$LT$T$C$A$GT$$u20$as$u20$core..ops..deref..Deref$GT$5deref17h212a485aed3e6058E"(%"std::vec::Vec<u8>"* align 8 dereferenceable(24) %_6), !dbg !412
  %_4.0 = extractvalue { [0 x i8]*, i64 } %1, 0, !dbg !412
  %_4.1 = extractvalue { [0 x i8]*, i64 } %1, 1, !dbg !412
  br label %bb1, !dbg !412

bb1:                                              ; preds = %start
; call core::str::converts::from_utf8_unchecked
  %2 = call { [0 x i8]*, i64 } @_ZN4core3str8converts19from_utf8_unchecked17h03028758699206cdE([0 x i8]* nonnull align 1 %_4.0, i64 %_4.1), !dbg !413
  %3 = extractvalue { [0 x i8]*, i64 } %2, 0, !dbg !413
  %4 = extractvalue { [0 x i8]*, i64 } %2, 1, !dbg !413
  br label %bb2, !dbg !413

bb2:                                              ; preds = %bb1
  %5 = insertvalue { [0 x i8]*, i64 } undef, [0 x i8]* %3, 0, !dbg !414
  %6 = insertvalue { [0 x i8]*, i64 } %5, i64 %4, 1, !dbg !414
  ret { [0 x i8]*, i64 } %6, !dbg !414
}

; <core::slice::iter::ChunksExactMut<T> as core::iter::traits::iterator::Iterator>::__iterator_get_unchecked
; Function Attrs: nounwind
define { [0 x i8]*, i64 } @"_ZN101_$LT$core..slice..iter..ChunksExactMut$LT$T$GT$$u20$as$u20$core..iter..traits..iterator..Iterator$GT$24__iterator_get_unchecked17h207c50f0d1f6190fE"(%"std::slice::ChunksExactMut<u8>"* align 8 dereferenceable(40) %self, i64 %idx) unnamed_addr #1 !dbg !415 {
start:
  %0 = alloca i8*, align 8
  %count.dbg.spill.i.i = alloca i64, align 8
  %self.dbg.spill.i.i = alloca i8*, align 8
  %count.dbg.spill.i = alloca i64, align 8
  %self.dbg.spill.i = alloca i8*, align 8
  %start.dbg.spill = alloca i64, align 8
  %idx.dbg.spill = alloca i64, align 8
  %self.dbg.spill = alloca %"std::slice::ChunksExactMut<u8>"*, align 8
  store %"std::slice::ChunksExactMut<u8>"* %self, %"std::slice::ChunksExactMut<u8>"** %self.dbg.spill, align 8
  call void @llvm.dbg.declare(metadata %"std::slice::ChunksExactMut<u8>"** %self.dbg.spill, metadata !433, metadata !DIExpression()), !dbg !437
  store i64 %idx, i64* %idx.dbg.spill, align 8
  call void @llvm.dbg.declare(metadata i64* %idx.dbg.spill, metadata !434, metadata !DIExpression()), !dbg !438
  %1 = getelementptr inbounds %"std::slice::ChunksExactMut<u8>", %"std::slice::ChunksExactMut<u8>"* %self, i32 0, i32 2, !dbg !439
  %_6 = load i64, i64* %1, align 8, !dbg !439
  %start1 = mul i64 %idx, %_6, !dbg !440
  store i64 %start1, i64* %start.dbg.spill, align 8, !dbg !440
  call void @llvm.dbg.declare(metadata i64* %start.dbg.spill, metadata !435, metadata !DIExpression()), !dbg !441
  %2 = bitcast %"std::slice::ChunksExactMut<u8>"* %self to { [0 x i8]*, i64 }*, !dbg !442
  %3 = getelementptr inbounds { [0 x i8]*, i64 }, { [0 x i8]*, i64 }* %2, i32 0, i32 0, !dbg !442
  %_11.0 = load [0 x i8]*, [0 x i8]** %3, align 8, !dbg !442, !nonnull !4
  %4 = getelementptr inbounds { [0 x i8]*, i64 }, { [0 x i8]*, i64 }* %2, i32 0, i32 1, !dbg !442
  %_11.1 = load i64, i64* %4, align 8, !dbg !442
; call core::slice::<impl [T]>::as_mut_ptr
  %_10 = call i8* @"_ZN4core5slice29_$LT$impl$u20$$u5b$T$u5d$$GT$10as_mut_ptr17h6e113aa66d3f0dcfE"([0 x i8]* nonnull align 1 %_11.0, i64 %_11.1), !dbg !442
  br label %bb1, !dbg !442

bb1:                                              ; preds = %start
  store i8* %_10, i8** %self.dbg.spill.i, align 8
  call void @llvm.dbg.declare(metadata i8** %self.dbg.spill.i, metadata !443, metadata !DIExpression()), !dbg !452
  store i64 %start1, i64* %count.dbg.spill.i, align 8
  call void @llvm.dbg.declare(metadata i64* %count.dbg.spill.i, metadata !451, metadata !DIExpression()), !dbg !454
  store i8* %_10, i8** %self.dbg.spill.i.i, align 8
  call void @llvm.dbg.declare(metadata i8** %self.dbg.spill.i.i, metadata !455, metadata !DIExpression()), !dbg !461
  store i64 %start1, i64* %count.dbg.spill.i.i, align 8
  call void @llvm.dbg.declare(metadata i64* %count.dbg.spill.i.i, metadata !460, metadata !DIExpression()), !dbg !463
  %5 = getelementptr inbounds i8, i8* %_10, i64 %start1, !dbg !464
  store i8* %5, i8** %0, align 8, !dbg !464
  %_3.i.i = load i8*, i8** %0, align 8, !dbg !464
  br label %bb2, !dbg !442

bb2:                                              ; preds = %bb1
  %6 = getelementptr inbounds %"std::slice::ChunksExactMut<u8>", %"std::slice::ChunksExactMut<u8>"* %self, i32 0, i32 2, !dbg !465
  %_13 = load i64, i64* %6, align 8, !dbg !465
; call core::slice::raw::from_raw_parts_mut
  %7 = call { [0 x i8]*, i64 } @_ZN4core5slice3raw18from_raw_parts_mut17h63baec866e40424bE(i8* %_3.i.i, i64 %_13), !dbg !466
  %_8.0 = extractvalue { [0 x i8]*, i64 } %7, 0, !dbg !466
  %_8.1 = extractvalue { [0 x i8]*, i64 } %7, 1, !dbg !466
  br label %bb3, !dbg !466

bb3:                                              ; preds = %bb2
  %8 = insertvalue { [0 x i8]*, i64 } undef, [0 x i8]* %_8.0, 0, !dbg !467
  %9 = insertvalue { [0 x i8]*, i64 } %8, i64 %_8.1, 1, !dbg !467
  ret { [0 x i8]*, i64 } %9, !dbg !467
}

; <core::slice::iter::ChunksExactMut<T> as core::iter::traits::iterator::Iterator>::size_hint
; Function Attrs: inlinehint nounwind
define void @"_ZN101_$LT$core..slice..iter..ChunksExactMut$LT$T$GT$$u20$as$u20$core..iter..traits..iterator..Iterator$GT$9size_hint17hcc6e1eec79d3217eE"({ i64, { i64, i64 } }* noalias nocapture sret({ i64, { i64, i64 } }) dereferenceable(24) %0, %"std::slice::ChunksExactMut<u8>"* align 8 dereferenceable(40) %self) unnamed_addr #0 !dbg !468 {
start:
  %n.dbg.spill = alloca i64, align 8
  %self.dbg.spill = alloca %"std::slice::ChunksExactMut<u8>"*, align 8
  %_8 = alloca { i64, i64 }, align 8
  store %"std::slice::ChunksExactMut<u8>"* %self, %"std::slice::ChunksExactMut<u8>"** %self.dbg.spill, align 8
  call void @llvm.dbg.declare(metadata %"std::slice::ChunksExactMut<u8>"** %self.dbg.spill, metadata !487, metadata !DIExpression()), !dbg !490
  %1 = bitcast %"std::slice::ChunksExactMut<u8>"* %self to { [0 x i8]*, i64 }*, !dbg !491
  %2 = getelementptr inbounds { [0 x i8]*, i64 }, { [0 x i8]*, i64 }* %1, i32 0, i32 0, !dbg !491
  %_4.0 = load [0 x i8]*, [0 x i8]** %2, align 8, !dbg !491, !nonnull !4
  %3 = getelementptr inbounds { [0 x i8]*, i64 }, { [0 x i8]*, i64 }* %1, i32 0, i32 1, !dbg !491
  %_4.1 = load i64, i64* %3, align 8, !dbg !491
  %4 = getelementptr inbounds %"std::slice::ChunksExactMut<u8>", %"std::slice::ChunksExactMut<u8>"* %self, i32 0, i32 2, !dbg !492
  %_5 = load i64, i64* %4, align 8, !dbg !492
  %_6 = icmp eq i64 %_5, 0, !dbg !491
  %5 = call i1 @llvm.expect.i1(i1 %_6, i1 false), !dbg !491
  br i1 %5, label %panic, label %bb1, !dbg !491

bb1:                                              ; preds = %start
  %n = udiv i64 %_4.1, %_5, !dbg !491
  store i64 %n, i64* %n.dbg.spill, align 8, !dbg !491
  call void @llvm.dbg.declare(metadata i64* %n.dbg.spill, metadata !488, metadata !DIExpression()), !dbg !493
  %6 = bitcast { i64, i64 }* %_8 to %"std::option::Option<usize>::Some"*, !dbg !494
  %7 = getelementptr inbounds %"std::option::Option<usize>::Some", %"std::option::Option<usize>::Some"* %6, i32 0, i32 1, !dbg !494
  store i64 %n, i64* %7, align 8, !dbg !494
  %8 = bitcast { i64, i64 }* %_8 to i64*, !dbg !494
  store i64 1, i64* %8, align 8, !dbg !494
  %9 = bitcast { i64, { i64, i64 } }* %0 to i64*, !dbg !495
  store i64 %n, i64* %9, align 8, !dbg !495
  %10 = getelementptr inbounds { i64, { i64, i64 } }, { i64, { i64, i64 } }* %0, i32 0, i32 1, !dbg !495
  %11 = getelementptr inbounds { i64, i64 }, { i64, i64 }* %_8, i32 0, i32 0, !dbg !495
  %12 = load i64, i64* %11, align 8, !dbg !495, !range !496
  %13 = getelementptr inbounds { i64, i64 }, { i64, i64 }* %_8, i32 0, i32 1, !dbg !495
  %14 = load i64, i64* %13, align 8, !dbg !495
  %15 = getelementptr inbounds { i64, i64 }, { i64, i64 }* %10, i32 0, i32 0, !dbg !495
  store i64 %12, i64* %15, align 8, !dbg !495
  %16 = getelementptr inbounds { i64, i64 }, { i64, i64 }* %10, i32 0, i32 1, !dbg !495
  store i64 %14, i64* %16, align 8, !dbg !495
  ret void, !dbg !497

panic:                                            ; preds = %start
; call core::panicking::panic
  call void @_ZN4core9panicking5panic17h560e3e4b7752857aE([0 x i8]* nonnull align 1 bitcast ([25 x i8]* @str.0 to [0 x i8]*), i64 25, %"std::panic::Location"* align 8 dereferenceable(24) bitcast (<{ i8*, [16 x i8] }>* @alloc692 to %"std::panic::Location"*)), !dbg !491
  unreachable, !dbg !491
}

; <core::iter::adapters::map::Map<I,F> as core::iter::traits::iterator::Iterator>::fold
; Function Attrs: nounwind
define void @"_ZN102_$LT$core..iter..adapters..map..Map$LT$I$C$F$GT$$u20$as$u20$core..iter..traits..iterator..Iterator$GT$4fold17h87f03ed68f78eccaE"(i64* nonnull %self.0, i64* %self.1, %"[closure@std::iter::Iterator::for_each::call<std::string::String, [closure@<std::vec::Vec<std::string::String> as std::vec::spec_extend::SpecExtend<std::string::String, std::iter::Map<std::slice::Iter<&str>, [closure@/root/.cargo/registry/src/github.com-1ecc6299db9ec823/solana-frozen-abi-1.10.0/src/abi_digester.rs:141:18: 145:14]>>>::spec_extend::{closure#0}]>::{closure#0}]"* noalias nocapture dereferenceable(24) %g) unnamed_addr #1 !dbg !498 {
start:
  %init.dbg.spill = alloca {}, align 1
  %self.dbg.spill = alloca { i64*, i64* }, align 8
  %_8 = alloca %"[closure@std::iter::Iterator::for_each::call<std::string::String, [closure@<std::vec::Vec<std::string::String> as std::vec::spec_extend::SpecExtend<std::string::String, std::iter::Map<std::slice::Iter<&str>, [closure@/root/.cargo/registry/src/github.com-1ecc6299db9ec823/solana-frozen-abi-1.10.0/src/abi_digester.rs:141:18: 145:14]>>>::spec_extend::{closure#0}]>::{closure#0}]", align 8
  %_6 = alloca %"[closure@std::iter::adapters::map::map_fold<&&str, std::string::String, (), [closure@/root/.cargo/registry/src/github.com-1ecc6299db9ec823/solana-frozen-abi-1.10.0/src/abi_digester.rs:141:18: 145:14], [closure@std::iter::Iterator::for_each::call<std::string::String, [closure@<std::vec::Vec<std::string::String> as std::vec::spec_extend::SpecExtend<std::string::String, std::iter::Map<std::slice::Iter<&str>, [closure@/root/.cargo/registry/src/github.com-1ecc6299db9ec823/solana-frozen-abi-1.10.0/src/abi_digester.rs:141:18: 145:14]>>>::spec_extend::{closure#0}]>::{closure#0}]>::{closure#0}]", align 8
  %0 = getelementptr inbounds { i64*, i64* }, { i64*, i64* }* %self.dbg.spill, i32 0, i32 0
  store i64* %self.0, i64** %0, align 8
  %1 = getelementptr inbounds { i64*, i64* }, { i64*, i64* }* %self.dbg.spill, i32 0, i32 1
  store i64* %self.1, i64** %1, align 8
  call void @llvm.dbg.declare(metadata { i64*, i64* }* %self.dbg.spill, metadata !553, metadata !DIExpression()), !dbg !560
  call void @llvm.dbg.declare(metadata {}* %init.dbg.spill, metadata !554, metadata !DIExpression()), !dbg !561
  call void @llvm.dbg.declare(metadata %"[closure@std::iter::Iterator::for_each::call<std::string::String, [closure@<std::vec::Vec<std::string::String> as std::vec::spec_extend::SpecExtend<std::string::String, std::iter::Map<std::slice::Iter<&str>, [closure@/root/.cargo/registry/src/github.com-1ecc6299db9ec823/solana-frozen-abi-1.10.0/src/abi_digester.rs:141:18: 145:14]>>>::spec_extend::{closure#0}]>::{closure#0}]"* %g, metadata !555, metadata !DIExpression()), !dbg !562
  %2 = bitcast %"[closure@std::iter::Iterator::for_each::call<std::string::String, [closure@<std::vec::Vec<std::string::String> as std::vec::spec_extend::SpecExtend<std::string::String, std::iter::Map<std::slice::Iter<&str>, [closure@/root/.cargo/registry/src/github.com-1ecc6299db9ec823/solana-frozen-abi-1.10.0/src/abi_digester.rs:141:18: 145:14]>>>::spec_extend::{closure#0}]>::{closure#0}]"* %_8 to i8*, !dbg !563
  %3 = bitcast %"[closure@std::iter::Iterator::for_each::call<std::string::String, [closure@<std::vec::Vec<std::string::String> as std::vec::spec_extend::SpecExtend<std::string::String, std::iter::Map<std::slice::Iter<&str>, [closure@/root/.cargo/registry/src/github.com-1ecc6299db9ec823/solana-frozen-abi-1.10.0/src/abi_digester.rs:141:18: 145:14]>>>::spec_extend::{closure#0}]>::{closure#0}]"* %g to i8*, !dbg !563
  call void @llvm.memcpy.p0i8.p0i8.i64(i8* align 8 %2, i8* align 8 %3, i64 24, i1 false), !dbg !563
; call core::iter::adapters::map::map_fold
  call void @_ZN4core4iter8adapters3map8map_fold17hb2c0b3230f9f899aE(%"[closure@std::iter::adapters::map::map_fold<&&str, std::string::String, (), [closure@/root/.cargo/registry/src/github.com-1ecc6299db9ec823/solana-frozen-abi-1.10.0/src/abi_digester.rs:141:18: 145:14], [closure@std::iter::Iterator::for_each::call<std::string::String, [closure@<std::vec::Vec<std::string::String> as std::vec::spec_extend::SpecExtend<std::string::String, std::iter::Map<std::slice::Iter<&str>, [closure@/root/.cargo/registry/src/github.com-1ecc6299db9ec823/solana-frozen-abi-1.10.0/src/abi_digester.rs:141:18: 145:14]>>>::spec_extend::{closure#0}]>::{closure#0}]>::{closure#0}]"* noalias nocapture sret(%"[closure@std::iter::adapters::map::map_fold<&&str, std::string::String, (), [closure@/root/.cargo/registry/src/github.com-1ecc6299db9ec823/solana-frozen-abi-1.10.0/src/abi_digester.rs:141:18: 145:14], [closure@std::iter::Iterator::for_each::call<std::string::String, [closure@<std::vec::Vec<std::string::String> as std::vec::spec_extend::SpecExtend<std::string::String, std::iter::Map<std::slice::Iter<&str>, [closure@/root/.cargo/registry/src/github.com-1ecc6299db9ec823/solana-frozen-abi-1.10.0/src/abi_digester.rs:141:18: 145:14]>>>::spec_extend::{closure#0}]>::{closure#0}]>::{closure#0}]") dereferenceable(24) %_6, %"[closure@std::iter::Iterator::for_each::call<std::string::String, [closure@<std::vec::Vec<std::string::String> as std::vec::spec_extend::SpecExtend<std::string::String, std::iter::Map<std::slice::Iter<&str>, [closure@/root/.cargo/registry/src/github.com-1ecc6299db9ec823/solana-frozen-abi-1.10.0/src/abi_digester.rs:141:18: 145:14]>>>::spec_extend::{closure#0}]>::{closure#0}]"* noalias nocapture dereferenceable(24) %_8), !dbg !564
  br label %bb1, !dbg !564

bb1:                                              ; preds = %start
; call core::iter::traits::iterator::Iterator::fold
  call void @_ZN4core4iter6traits8iterator8Iterator4fold17h06ae0bafb237280bE(i64* nonnull %self.0, i64* %self.1, %"[closure@std::iter::adapters::map::map_fold<&&str, std::string::String, (), [closure@/root/.cargo/registry/src/github.com-1ecc6299db9ec823/solana-frozen-abi-1.10.0/src/abi_digester.rs:141:18: 145:14], [closure@std::iter::Iterator::for_each::call<std::string::String, [closure@<std::vec::Vec<std::string::String> as std::vec::spec_extend::SpecExtend<std::string::String, std::iter::Map<std::slice::Iter<&str>, [closure@/root/.cargo/registry/src/github.com-1ecc6299db9ec823/solana-frozen-abi-1.10.0/src/abi_digester.rs:141:18: 145:14]>>>::spec_extend::{closure#0}]>::{closure#0}]>::{closure#0}]"* noalias nocapture dereferenceable(24) %_6), !dbg !565
  br label %bb2, !dbg !565

bb2:                                              ; preds = %bb1
  ret void, !dbg !566
}

; <core::iter::adapters::map::Map<I,F> as core::iter::traits::iterator::Iterator>::try_fold
; Function Attrs: nounwind
define { i64, i64 } @"_ZN102_$LT$core..iter..adapters..map..Map$LT$I$C$F$GT$$u20$as$u20$core..iter..traits..iterator..Iterator$GT$8try_fold17hd31be7faa52a21d0E"({ i64*, i64* }* align 8 dereferenceable(16) %self, i64 %init) unnamed_addr #1 !dbg !567 {
start:
  %g.dbg.spill = alloca {}, align 1
  %init.dbg.spill = alloca i64, align 8
  %self.dbg.spill = alloca { i64*, i64* }*, align 8
  store { i64*, i64* }* %self, { i64*, i64* }** %self.dbg.spill, align 8
  call void @llvm.dbg.declare(metadata { i64*, i64* }** %self.dbg.spill, metadata !597, metadata !DIExpression()), !dbg !605
  store i64 %init, i64* %init.dbg.spill, align 8
  call void @llvm.dbg.declare(metadata i64* %init.dbg.spill, metadata !598, metadata !DIExpression()), !dbg !606
  call void @llvm.dbg.declare(metadata {}* %g.dbg.spill, metadata !599, metadata !DIExpression()), !dbg !607
  %_8 = bitcast { i64*, i64* }* %self to %"[closure@std::str::join_generic_copy<str, u8, std::string::String>::{closure#0}::{closure#0}]"*, !dbg !608
; call core::iter::adapters::map::map_try_fold
  %_6 = call nonnull align 1 i8* @_ZN4core4iter8adapters3map12map_try_fold17hd6a62ba9be35de0aE(%"[closure@std::str::join_generic_copy<str, u8, std::string::String>::{closure#0}::{closure#0}]"* nonnull align 1 %_8), !dbg !609
  br label %bb1, !dbg !609

bb1:                                              ; preds = %start
; call core::iter::traits::iterator::Iterator::try_fold
  %0 = call { i64, i64 } @_ZN4core4iter6traits8iterator8Iterator8try_fold17hfe669567d95311b1E({ i64*, i64* }* align 8 dereferenceable(16) %self, i64 %init, i8* nonnull align 1 %_6), !dbg !610
  %1 = extractvalue { i64, i64 } %0, 0, !dbg !610
  %2 = extractvalue { i64, i64 } %0, 1, !dbg !610
  br label %bb2, !dbg !610

bb2:                                              ; preds = %bb1
  %3 = insertvalue { i64, i64 } undef, i64 %1, 0, !dbg !611
  %4 = insertvalue { i64, i64 } %3, i64 %2, 1, !dbg !611
  ret { i64, i64 } %4, !dbg !611
}

; <core::iter::adapters::map::Map<I,F> as core::iter::traits::iterator::Iterator>::size_hint
; Function Attrs: inlinehint nounwind
define void @"_ZN102_$LT$core..iter..adapters..map..Map$LT$I$C$F$GT$$u20$as$u20$core..iter..traits..iterator..Iterator$GT$9size_hint17h9368eeee8ed172dbE"({ i64, { i64, i64 } }* noalias nocapture sret({ i64, { i64, i64 } }) dereferenceable(24) %0, { i64*, i64* }* align 8 dereferenceable(16) %self) unnamed_addr #0 !dbg !612 {
start:
  %self.dbg.spill = alloca { i64*, i64* }*, align 8
  store { i64*, i64* }* %self, { i64*, i64* }** %self.dbg.spill, align 8
  call void @llvm.dbg.declare(metadata { i64*, i64* }** %self.dbg.spill, metadata !617, metadata !DIExpression()), !dbg !619
; call <core::slice::iter::Iter<T> as core::iter::traits::iterator::Iterator>::size_hint
  call void @"_ZN91_$LT$core..slice..iter..Iter$LT$T$GT$$u20$as$u20$core..iter..traits..iterator..Iterator$GT$9size_hint17h01f4f265ec189f96E"({ i64, { i64, i64 } }* noalias nocapture sret({ i64, { i64, i64 } }) dereferenceable(24) %0, { i64*, i64* }* align 8 dereferenceable(16) %self), !dbg !620
  br label %bb1, !dbg !620

bb1:                                              ; preds = %start
  ret void, !dbg !621
}

; <core::iter::adapters::zip::Zip<A,B> as core::iter::traits::iterator::Iterator>::next
; Function Attrs: inlinehint nounwind
define void @"_ZN102_$LT$core..iter..adapters..zip..Zip$LT$A$C$B$GT$$u20$as$u20$core..iter..traits..iterator..Iterator$GT$4next17h36b6462362c059cdE"(%"std::option::Option<(&mut [u8], &u32)>"* noalias nocapture sret(%"std::option::Option<(&mut [u8], &u32)>") dereferenceable(24) %0, %"std::iter::Zip<std::slice::ChunksExactMut<u8>, std::slice::Iter<u32>>"* align 8 dereferenceable(80) %self) unnamed_addr #0 !dbg !622 {
start:
  %self.dbg.spill = alloca %"std::iter::Zip<std::slice::ChunksExactMut<u8>, std::slice::Iter<u32>>"*, align 8
  store %"std::iter::Zip<std::slice::ChunksExactMut<u8>, std::slice::Iter<u32>>"* %self, %"std::iter::Zip<std::slice::ChunksExactMut<u8>, std::slice::Iter<u32>>"** %self.dbg.spill, align 8
  call void @llvm.dbg.declare(metadata %"std::iter::Zip<std::slice::ChunksExactMut<u8>, std::slice::Iter<u32>>"** %self.dbg.spill, metadata !671, metadata !DIExpression()), !dbg !672
; call <core::iter::adapters::zip::Zip<A,B> as core::iter::adapters::zip::ZipImpl<A,B>>::next
  call void @"_ZN111_$LT$core..iter..adapters..zip..Zip$LT$A$C$B$GT$$u20$as$u20$core..iter..adapters..zip..ZipImpl$LT$A$C$B$GT$$GT$4next17hf7a403f2fd737796E"(%"std::option::Option<(&mut [u8], &u32)>"* noalias nocapture sret(%"std::option::Option<(&mut [u8], &u32)>") dereferenceable(24) %0, %"std::iter::Zip<std::slice::ChunksExactMut<u8>, std::slice::Iter<u32>>"* align 8 dereferenceable(80) %self), !dbg !673
  br label %bb1, !dbg !673

bb1:                                              ; preds = %start
  ret void, !dbg !674
}

; <core::str::iter::CharIndices as core::iter::traits::double_ended::DoubleEndedIterator>::next_back
; Function Attrs: inlinehint nounwind
define internal { i64, i32 } @"_ZN102_$LT$core..str..iter..CharIndices$u20$as$u20$core..iter..traits..double_ended..DoubleEndedIterator$GT$9next_back17h972a2e68053b71a4E"(%"std::str::CharIndices"* align 8 dereferenceable(24) %0) unnamed_addr #0 !dbg !675 {
start:
  %_4 = alloca i64*, align 8
  %self = alloca %"std::str::CharIndices"*, align 8
  store %"std::str::CharIndices"* %0, %"std::str::CharIndices"** %self, align 8
  call void @llvm.dbg.declare(metadata %"std::str::CharIndices"** %self, metadata !720, metadata !DIExpression()), !dbg !721
  %1 = load %"std::str::CharIndices"*, %"std::str::CharIndices"** %self, align 8, !dbg !722, !nonnull !4
  %_3 = getelementptr inbounds %"std::str::CharIndices", %"std::str::CharIndices"* %1, i32 0, i32 1, !dbg !722
; call <core::str::iter::Chars as core::iter::traits::double_ended::DoubleEndedIterator>::next_back
  %_2 = call i32 @"_ZN96_$LT$core..str..iter..Chars$u20$as$u20$core..iter..traits..double_ended..DoubleEndedIterator$GT$9next_back17h1108e80b8b91b4adE"({ i8*, i8* }* align 8 dereferenceable(16) %_3), !dbg !722, !range !723
  br label %bb1, !dbg !722

bb1:                                              ; preds = %start
  %2 = bitcast i64** %_4 to %"std::str::CharIndices"***, !dbg !724
  store %"std::str::CharIndices"** %self, %"std::str::CharIndices"*** %2, align 8, !dbg !724
  %3 = load i64*, i64** %_4, align 8, !dbg !722, !nonnull !4
; call core::option::Option<T>::map
  %4 = call { i64, i32 } @"_ZN4core6option15Option$LT$T$GT$3map17hecde4cd18735aaceE"(i32 %_2, i64* align 8 dereferenceable(8) %3), !dbg !722
  %5 = extractvalue { i64, i32 } %4, 0, !dbg !722
  %6 = extractvalue { i64, i32 } %4, 1, !dbg !722
  br label %bb2, !dbg !722

bb2:                                              ; preds = %bb1
  %7 = insertvalue { i64, i32 } undef, i64 %5, 0, !dbg !725
  %8 = insertvalue { i64, i32 } %7, i32 %6, 1, !dbg !725
  ret { i64, i32 } %8, !dbg !725
}

; <core::str::iter::CharIndices as core::iter::traits::double_ended::DoubleEndedIterator>::next_back::{{closure}}
; Function Attrs: inlinehint nounwind
define { i64, i32 } @"_ZN102_$LT$core..str..iter..CharIndices$u20$as$u20$core..iter..traits..double_ended..DoubleEndedIterator$GT$9next_back28_$u7b$$u7b$closure$u7d$$u7d$17he5dac3227c88a637E"(i64* align 8 dereferenceable(8) %_1, i32 %ch) unnamed_addr #0 !dbg !726 {
start:
  %_1.dbg.spill.i.i = alloca i8*, align 8
  %diff.dbg.spill.i = alloca i64, align 8
  %0 = alloca i64, align 8
  %size.dbg.spill.i = alloca i64, align 8
  %start.dbg.spill.i = alloca i8*, align 8
  %self.dbg.spill.i = alloca { i8*, i8* }*, align 8
  %1 = alloca i64, align 8
  %index.dbg.spill = alloca i64, align 8
  %ch.dbg.spill = alloca i32, align 4
  %_1.dbg.spill = alloca i64*, align 8
  %2 = alloca { i64, i32 }, align 8
  store i64* %_1, i64** %_1.dbg.spill, align 8
  %3 = bitcast i64** %_1.dbg.spill to %"std::str::CharIndices"***
  %4 = load %"std::str::CharIndices"**, %"std::str::CharIndices"*** %3, align 8, !nonnull !4
  call void @llvm.dbg.declare(metadata i64** %_1.dbg.spill, metadata !736, metadata !DIExpression(DW_OP_deref)), !dbg !739
  store i32 %ch, i32* %ch.dbg.spill, align 4
  call void @llvm.dbg.declare(metadata i32* %ch.dbg.spill, metadata !735, metadata !DIExpression()), !dbg !740
  %5 = bitcast i64* %_1 to %"std::str::CharIndices"**, !dbg !741
  %6 = bitcast i64* %_1 to %"std::str::CharIndices"**, !dbg !741
  %7 = bitcast i64* %_1 to %"std::str::CharIndices"**, !dbg !741
  %8 = load %"std::str::CharIndices"*, %"std::str::CharIndices"** %7, align 8, !dbg !741, !nonnull !4
  %9 = bitcast %"std::str::CharIndices"* %8 to i64*, !dbg !741
  %_4 = load i64, i64* %9, align 8, !dbg !741
  %10 = bitcast i64* %_1 to %"std::str::CharIndices"**, !dbg !742
  %11 = bitcast i64* %_1 to %"std::str::CharIndices"**, !dbg !742
  %12 = load %"std::str::CharIndices"*, %"std::str::CharIndices"** %11, align 8, !dbg !742, !nonnull !4
  %_6 = getelementptr inbounds %"std::str::CharIndices", %"std::str::CharIndices"* %12, i32 0, i32 1, !dbg !742
  store { i8*, i8* }* %_6, { i8*, i8* }** %self.dbg.spill.i, align 8
  call void @llvm.dbg.declare(metadata { i8*, i8* }** %self.dbg.spill.i, metadata !743, metadata !DIExpression()) #14, !dbg !757
  %13 = bitcast { i8*, i8* }* %_6 to i8**, !dbg !759
  %start1.i = load i8*, i8** %13, align 8, !dbg !759, !nonnull !4
  store i8* %start1.i, i8** %start.dbg.spill.i, align 8, !dbg !759
  call void @llvm.dbg.declare(metadata i8** %start.dbg.spill.i, metadata !751, metadata !DIExpression()) #14, !dbg !760
; call core::ptr::non_null::NonNull<T>::as_ptr
  %_5.i = call i8* @"_ZN4core3ptr8non_null16NonNull$LT$T$GT$6as_ptr17h693be9d1aa38e18cE"(i8* nonnull %start1.i) #14, !dbg !760
  store i8* %_5.i, i8** %_1.dbg.spill.i.i, align 8
  call void @llvm.dbg.declare(metadata i8** %_1.dbg.spill.i.i, metadata !761, metadata !DIExpression()) #14, !dbg !766
  store i64 1, i64* %size.dbg.spill.i, align 8, !dbg !760
  call void @llvm.dbg.declare(metadata i64* %size.dbg.spill.i, metadata !753, metadata !DIExpression()) #14, !dbg !768
  %14 = getelementptr inbounds { i8*, i8* }, { i8*, i8* }* %_6, i32 0, i32 1, !dbg !768
  %_15.i = load i8*, i8** %14, align 8, !dbg !768
  %_14.i = ptrtoint i8* %_15.i to i64, !dbg !768
; call core::ptr::non_null::NonNull<T>::as_ptr
  %_17.i = call i8* @"_ZN4core3ptr8non_null16NonNull$LT$T$GT$6as_ptr17h693be9d1aa38e18cE"(i8* nonnull %start1.i) #14, !dbg !768
  %_16.i = ptrtoint i8* %_17.i to i64, !dbg !768
  %15 = sub nuw i64 %_14.i, %_16.i, !dbg !768
  store i64 %15, i64* %0, align 8, !dbg !768
  %diff.i = load i64, i64* %0, align 8, !dbg !768
  store i64 %diff.i, i64* %diff.dbg.spill.i, align 8, !dbg !768
  call void @llvm.dbg.declare(metadata i64* %diff.dbg.spill.i, metadata !755, metadata !DIExpression()) #14, !dbg !769
  store i64 %diff.i, i64* %1, align 8, !dbg !769
  %16 = load i64, i64* %1, align 8, !dbg !770
  br label %bb1, !dbg !742

bb1:                                              ; preds = %start
  %index = add i64 %_4, %16, !dbg !741
  store i64 %index, i64* %index.dbg.spill, align 8, !dbg !741
  call void @llvm.dbg.declare(metadata i64* %index.dbg.spill, metadata !737, metadata !DIExpression()), !dbg !771
  %17 = bitcast { i64, i32 }* %2 to i64*, !dbg !772
  store i64 %index, i64* %17, align 8, !dbg !772
  %18 = getelementptr inbounds { i64, i32 }, { i64, i32 }* %2, i32 0, i32 1, !dbg !772
  store i32 %ch, i32* %18, align 8, !dbg !772
  %19 = getelementptr inbounds { i64, i32 }, { i64, i32 }* %2, i32 0, i32 0, !dbg !773
  %20 = load i64, i64* %19, align 8, !dbg !773
  %21 = getelementptr inbounds { i64, i32 }, { i64, i32 }* %2, i32 0, i32 1, !dbg !773
  %22 = load i32, i32* %21, align 8, !dbg !773, !range !774
  %23 = insertvalue { i64, i32 } undef, i64 %20, 0, !dbg !773
  %24 = insertvalue { i64, i32 } %23, i32 %22, 1, !dbg !773
  ret { i64, i32 } %24, !dbg !773
}

; <core::str::pattern::MultiCharEqSearcher<C> as core::str::pattern::ReverseSearcher>::next_back
; Function Attrs: inlinehint nounwind
define void @"_ZN104_$LT$core..str..pattern..MultiCharEqSearcher$LT$C$GT$$u20$as$u20$core..str..pattern..ReverseSearcher$GT$9next_back17h6f71444071f4598aE"(%"std::str::pattern::SearchStep"* noalias nocapture sret(%"std::str::pattern::SearchStep") dereferenceable(24) %0, %"std::str::pattern::MultiCharEqSearcher<[closure@core::str::<impl str>::trim_end::{closure#0}]>"* align 8 dereferenceable(40) %self) unnamed_addr #0 !dbg !775 {
start:
  %_1.dbg.spill.i.i1 = alloca i8*, align 8
  %diff.dbg.spill.i2 = alloca i64, align 8
  %1 = alloca i64, align 8
  %size.dbg.spill.i3 = alloca i64, align 8
  %start.dbg.spill.i4 = alloca i8*, align 8
  %self.dbg.spill.i5 = alloca { i8*, i8* }*, align 8
  %2 = alloca i64, align 8
  %_1.dbg.spill.i.i = alloca i8*, align 8
  %diff.dbg.spill.i = alloca i64, align 8
  %3 = alloca i64, align 8
  %size.dbg.spill.i = alloca i64, align 8
  %start.dbg.spill.i = alloca i8*, align 8
  %self.dbg.spill.i = alloca { i8*, i8* }*, align 8
  %4 = alloca i64, align 8
  %char_len.dbg.spill = alloca i64, align 8
  %len.dbg.spill = alloca i64, align 8
  %c.dbg.spill = alloca i32, align 4
  %i.dbg.spill = alloca i64, align 8
  %pre_len.dbg.spill = alloca i64, align 8
  %s.dbg.spill = alloca %"std::str::CharIndices"*, align 8
  %self.dbg.spill = alloca %"std::str::pattern::MultiCharEqSearcher<[closure@core::str::<impl str>::trim_end::{closure#0}]>"*, align 8
  %_5 = alloca { i64, i32 }, align 8
  store %"std::str::pattern::MultiCharEqSearcher<[closure@core::str::<impl str>::trim_end::{closure#0}]>"* %self, %"std::str::pattern::MultiCharEqSearcher<[closure@core::str::<impl str>::trim_end::{closure#0}]>"** %self.dbg.spill, align 8
  call void @llvm.dbg.declare(metadata %"std::str::pattern::MultiCharEqSearcher<[closure@core::str::<impl str>::trim_end::{closure#0}]>"** %self.dbg.spill, metadata !810, metadata !DIExpression()), !dbg !822
  %s = getelementptr inbounds %"std::str::pattern::MultiCharEqSearcher<[closure@core::str::<impl str>::trim_end::{closure#0}]>", %"std::str::pattern::MultiCharEqSearcher<[closure@core::str::<impl str>::trim_end::{closure#0}]>"* %self, i32 0, i32 2, !dbg !823
  store %"std::str::CharIndices"* %s, %"std::str::CharIndices"** %s.dbg.spill, align 8, !dbg !823
  call void @llvm.dbg.declare(metadata %"std::str::CharIndices"** %s.dbg.spill, metadata !811, metadata !DIExpression()), !dbg !824
  %_4 = getelementptr inbounds %"std::str::CharIndices", %"std::str::CharIndices"* %s, i32 0, i32 1, !dbg !825
  store { i8*, i8* }* %_4, { i8*, i8* }** %self.dbg.spill.i, align 8
  call void @llvm.dbg.declare(metadata { i8*, i8* }** %self.dbg.spill.i, metadata !743, metadata !DIExpression()) #14, !dbg !826
  %5 = bitcast { i8*, i8* }* %_4 to i8**, !dbg !828
  %start1.i = load i8*, i8** %5, align 8, !dbg !828, !nonnull !4
  store i8* %start1.i, i8** %start.dbg.spill.i, align 8, !dbg !828
  call void @llvm.dbg.declare(metadata i8** %start.dbg.spill.i, metadata !751, metadata !DIExpression()) #14, !dbg !829
; call core::ptr::non_null::NonNull<T>::as_ptr
  %_5.i = call i8* @"_ZN4core3ptr8non_null16NonNull$LT$T$GT$6as_ptr17h693be9d1aa38e18cE"(i8* nonnull %start1.i) #14, !dbg !829
  store i8* %_5.i, i8** %_1.dbg.spill.i.i, align 8
  call void @llvm.dbg.declare(metadata i8** %_1.dbg.spill.i.i, metadata !761, metadata !DIExpression()) #14, !dbg !830
  store i64 1, i64* %size.dbg.spill.i, align 8, !dbg !829
  call void @llvm.dbg.declare(metadata i64* %size.dbg.spill.i, metadata !753, metadata !DIExpression()) #14, !dbg !832
  %6 = getelementptr inbounds { i8*, i8* }, { i8*, i8* }* %_4, i32 0, i32 1, !dbg !832
  %_15.i = load i8*, i8** %6, align 8, !dbg !832
  %_14.i = ptrtoint i8* %_15.i to i64, !dbg !832
; call core::ptr::non_null::NonNull<T>::as_ptr
  %_17.i = call i8* @"_ZN4core3ptr8non_null16NonNull$LT$T$GT$6as_ptr17h693be9d1aa38e18cE"(i8* nonnull %start1.i) #14, !dbg !832
  %_16.i = ptrtoint i8* %_17.i to i64, !dbg !832
  %7 = sub nuw i64 %_14.i, %_16.i, !dbg !832
  store i64 %7, i64* %3, align 8, !dbg !832
  %diff.i = load i64, i64* %3, align 8, !dbg !832
  store i64 %diff.i, i64* %diff.dbg.spill.i, align 8, !dbg !832
  call void @llvm.dbg.declare(metadata i64* %diff.dbg.spill.i, metadata !755, metadata !DIExpression()) #14, !dbg !833
  store i64 %diff.i, i64* %4, align 8, !dbg !833
  %8 = load i64, i64* %4, align 8, !dbg !834
  store i64 %8, i64* %pre_len.dbg.spill, align 8, !dbg !825
  call void @llvm.dbg.declare(metadata i64* %pre_len.dbg.spill, metadata !813, metadata !DIExpression()), !dbg !835
  br label %bb1, !dbg !825

bb1:                                              ; preds = %start
; call <core::str::iter::CharIndices as core::iter::traits::double_ended::DoubleEndedIterator>::next_back
  %9 = call { i64, i32 } @"_ZN102_$LT$core..str..iter..CharIndices$u20$as$u20$core..iter..traits..double_ended..DoubleEndedIterator$GT$9next_back17h972a2e68053b71a4E"(%"std::str::CharIndices"* align 8 dereferenceable(24) %s), !dbg !836
  store { i64, i32 } %9, { i64, i32 }* %_5, align 8, !dbg !836
  br label %bb2, !dbg !836

bb2:                                              ; preds = %bb1
  %10 = getelementptr inbounds { i64, i32 }, { i64, i32 }* %_5, i32 0, i32 1, !dbg !837
  %11 = load i32, i32* %10, align 8, !dbg !837, !range !723
  %12 = sub i32 %11, 1114112, !dbg !837
  %13 = icmp eq i32 %12, 0, !dbg !837
  %_7 = select i1 %13, i64 0, i64 1, !dbg !837
  %14 = icmp eq i64 %_7, 1, !dbg !837
  br i1 %14, label %bb3, label %bb8, !dbg !837

bb3:                                              ; preds = %bb2
  %15 = bitcast { i64, i32 }* %_5 to i64*, !dbg !838
  %i = load i64, i64* %15, align 8, !dbg !838
  store i64 %i, i64* %i.dbg.spill, align 8, !dbg !838
  call void @llvm.dbg.declare(metadata i64* %i.dbg.spill, metadata !815, metadata !DIExpression()), !dbg !839
  %16 = getelementptr inbounds { i64, i32 }, { i64, i32 }* %_5, i32 0, i32 1, !dbg !840
  %c = load i32, i32* %16, align 8, !dbg !840, !range !774
  store i32 %c, i32* %c.dbg.spill, align 4, !dbg !840
  call void @llvm.dbg.declare(metadata i32* %c.dbg.spill, metadata !817, metadata !DIExpression()), !dbg !841
  %_11 = getelementptr inbounds %"std::str::CharIndices", %"std::str::CharIndices"* %s, i32 0, i32 1, !dbg !842
  store { i8*, i8* }* %_11, { i8*, i8* }** %self.dbg.spill.i5, align 8
  call void @llvm.dbg.declare(metadata { i8*, i8* }** %self.dbg.spill.i5, metadata !743, metadata !DIExpression()) #14, !dbg !843
  %17 = bitcast { i8*, i8* }* %_11 to i8**, !dbg !845
  %start1.i6 = load i8*, i8** %17, align 8, !dbg !845, !nonnull !4
  store i8* %start1.i6, i8** %start.dbg.spill.i4, align 8, !dbg !845
  call void @llvm.dbg.declare(metadata i8** %start.dbg.spill.i4, metadata !751, metadata !DIExpression()) #14, !dbg !846
; call core::ptr::non_null::NonNull<T>::as_ptr
  %_5.i7 = call i8* @"_ZN4core3ptr8non_null16NonNull$LT$T$GT$6as_ptr17h693be9d1aa38e18cE"(i8* nonnull %start1.i6) #14, !dbg !846
  store i8* %_5.i7, i8** %_1.dbg.spill.i.i1, align 8
  call void @llvm.dbg.declare(metadata i8** %_1.dbg.spill.i.i1, metadata !761, metadata !DIExpression()) #14, !dbg !847
  store i64 1, i64* %size.dbg.spill.i3, align 8, !dbg !846
  call void @llvm.dbg.declare(metadata i64* %size.dbg.spill.i3, metadata !753, metadata !DIExpression()) #14, !dbg !849
  %18 = getelementptr inbounds { i8*, i8* }, { i8*, i8* }* %_11, i32 0, i32 1, !dbg !849
  %_15.i8 = load i8*, i8** %18, align 8, !dbg !849
  %_14.i9 = ptrtoint i8* %_15.i8 to i64, !dbg !849
; call core::ptr::non_null::NonNull<T>::as_ptr
  %_17.i10 = call i8* @"_ZN4core3ptr8non_null16NonNull$LT$T$GT$6as_ptr17h693be9d1aa38e18cE"(i8* nonnull %start1.i6) #14, !dbg !849
  %_16.i11 = ptrtoint i8* %_17.i10 to i64, !dbg !849
  %19 = sub nuw i64 %_14.i9, %_16.i11, !dbg !849
  store i64 %19, i64* %1, align 8, !dbg !849
  %diff.i12 = load i64, i64* %1, align 8, !dbg !849
  store i64 %diff.i12, i64* %diff.dbg.spill.i2, align 8, !dbg !849
  call void @llvm.dbg.declare(metadata i64* %diff.dbg.spill.i2, metadata !755, metadata !DIExpression()) #14, !dbg !850
  store i64 %diff.i12, i64* %2, align 8, !dbg !850
  %20 = load i64, i64* %2, align 8, !dbg !851
  store i64 %20, i64* %len.dbg.spill, align 8, !dbg !842
  call void @llvm.dbg.declare(metadata i64* %len.dbg.spill, metadata !818, metadata !DIExpression()), !dbg !852
  br label %bb4, !dbg !842

bb8:                                              ; preds = %bb2
  %21 = bitcast %"std::str::pattern::SearchStep"* %0 to i64*, !dbg !853
  store i64 2, i64* %21, align 8, !dbg !853
  br label %bb10, !dbg !854

bb10:                                             ; preds = %bb9, %bb8
  ret void, !dbg !854

bb4:                                              ; preds = %bb3
  %char_len = sub i64 %8, %20, !dbg !855
  store i64 %char_len, i64* %char_len.dbg.spill, align 8, !dbg !855
  call void @llvm.dbg.declare(metadata i64* %char_len.dbg.spill, metadata !820, metadata !DIExpression()), !dbg !856
  %_16 = bitcast %"std::str::pattern::MultiCharEqSearcher<[closure@core::str::<impl str>::trim_end::{closure#0}]>"* %self to %"[closure@core::str::<impl str>::trim_end::{closure#0}]"*, !dbg !857
; call <F as core::str::pattern::MultiCharEq>::matches
  %_15 = call zeroext i1 @"_ZN53_$LT$F$u20$as$u20$core..str..pattern..MultiCharEq$GT$7matches17h82896f4f2dd97934E"(%"[closure@core::str::<impl str>::trim_end::{closure#0}]"* nonnull align 1 %_16, i32 %c), !dbg !857
  br label %bb5, !dbg !857

bb5:                                              ; preds = %bb4
  br i1 %_15, label %bb6, label %bb7, !dbg !857

bb7:                                              ; preds = %bb5
  %_23 = add i64 %i, %char_len, !dbg !858
  %22 = bitcast %"std::str::pattern::SearchStep"* %0 to %"std::str::pattern::SearchStep::Reject"*, !dbg !859
  %23 = getelementptr inbounds %"std::str::pattern::SearchStep::Reject", %"std::str::pattern::SearchStep::Reject"* %22, i32 0, i32 1, !dbg !859
  store i64 %i, i64* %23, align 8, !dbg !859
  %24 = bitcast %"std::str::pattern::SearchStep"* %0 to %"std::str::pattern::SearchStep::Reject"*, !dbg !859
  %25 = getelementptr inbounds %"std::str::pattern::SearchStep::Reject", %"std::str::pattern::SearchStep::Reject"* %24, i32 0, i32 2, !dbg !859
  store i64 %_23, i64* %25, align 8, !dbg !859
  %26 = bitcast %"std::str::pattern::SearchStep"* %0 to i64*, !dbg !859
  store i64 1, i64* %26, align 8, !dbg !859
  br label %bb9, !dbg !860

bb6:                                              ; preds = %bb5
  %_19 = add i64 %i, %char_len, !dbg !861
  %27 = bitcast %"std::str::pattern::SearchStep"* %0 to %"std::str::pattern::SearchStep::Match"*, !dbg !862
  %28 = getelementptr inbounds %"std::str::pattern::SearchStep::Match", %"std::str::pattern::SearchStep::Match"* %27, i32 0, i32 1, !dbg !862
  store i64 %i, i64* %28, align 8, !dbg !862
  %29 = bitcast %"std::str::pattern::SearchStep"* %0 to %"std::str::pattern::SearchStep::Match"*, !dbg !862
  %30 = getelementptr inbounds %"std::str::pattern::SearchStep::Match", %"std::str::pattern::SearchStep::Match"* %29, i32 0, i32 2, !dbg !862
  store i64 %_19, i64* %30, align 8, !dbg !862
  %31 = bitcast %"std::str::pattern::SearchStep"* %0 to i64*, !dbg !862
  store i64 0, i64* %31, align 8, !dbg !862
  br label %bb9, !dbg !863

bb9:                                              ; preds = %bb7, %bb6
  br label %bb10, !dbg !854
}

; <core::ops::range::Range<usize> as core::slice::index::SliceIndex<[T]>>::get
; Function Attrs: inlinehint nounwind
define { i8*, i64 } @"_ZN106_$LT$core..ops..range..Range$LT$usize$GT$$u20$as$u20$core..slice..index..SliceIndex$LT$$u5b$T$u5d$$GT$$GT$3get17h267ebc9e204d604eE"(i64 %self.0, i64 %self.1, [0 x i8]* nonnull align 1 %slice.0, i64 %slice.1) unnamed_addr #0 !dbg !864 {
start:
  %slice.dbg.spill = alloca { [0 x i8]*, i64 }, align 8
  %self.dbg.spill = alloca { i64, i64 }, align 8
  %_3 = alloca i8, align 1
  %0 = alloca { i8*, i64 }, align 8
  %1 = getelementptr inbounds { i64, i64 }, { i64, i64 }* %self.dbg.spill, i32 0, i32 0
  store i64 %self.0, i64* %1, align 8
  %2 = getelementptr inbounds { i64, i64 }, { i64, i64 }* %self.dbg.spill, i32 0, i32 1
  store i64 %self.1, i64* %2, align 8
  call void @llvm.dbg.declare(metadata { i64, i64 }* %self.dbg.spill, metadata !893, metadata !DIExpression()), !dbg !895
  %3 = getelementptr inbounds { [0 x i8]*, i64 }, { [0 x i8]*, i64 }* %slice.dbg.spill, i32 0, i32 0
  store [0 x i8]* %slice.0, [0 x i8]** %3, align 8
  %4 = getelementptr inbounds { [0 x i8]*, i64 }, { [0 x i8]*, i64 }* %slice.dbg.spill, i32 0, i32 1
  store i64 %slice.1, i64* %4, align 8
  call void @llvm.dbg.declare(metadata { [0 x i8]*, i64 }* %slice.dbg.spill, metadata !894, metadata !DIExpression()), !dbg !896
  %_4 = icmp ugt i64 %self.0, %self.1, !dbg !897
  br i1 %_4, label %bb1, label %bb2, !dbg !897

bb2:                                              ; preds = %start
  %_7 = icmp ugt i64 %self.1, %slice.1, !dbg !898
  %5 = zext i1 %_7 to i8, !dbg !897
  store i8 %5, i8* %_3, align 1, !dbg !897
  br label %bb3, !dbg !897

bb1:                                              ; preds = %start
  store i8 1, i8* %_3, align 1, !dbg !897
  br label %bb3, !dbg !897

bb3:                                              ; preds = %bb2, %bb1
  %6 = load i8, i8* %_3, align 1, !dbg !897, !range !899
  %7 = trunc i8 %6 to i1, !dbg !897
  br i1 %7, label %bb4, label %bb5, !dbg !897

bb5:                                              ; preds = %bb3
; call <core::ops::range::Range<usize> as core::slice::index::SliceIndex<[T]>>::get_unchecked
  %8 = call { [0 x i8]*, i64 } @"_ZN106_$LT$core..ops..range..Range$LT$usize$GT$$u20$as$u20$core..slice..index..SliceIndex$LT$$u5b$T$u5d$$GT$$GT$13get_unchecked17h836b4846e0eda774E"(i64 %self.0, i64 %self.1, [0 x i8]* %slice.0, i64 %slice.1), !dbg !900
  %_13.0 = extractvalue { [0 x i8]*, i64 } %8, 0, !dbg !900
  %_13.1 = extractvalue { [0 x i8]*, i64 } %8, 1, !dbg !900
  br label %bb6, !dbg !900

bb4:                                              ; preds = %bb3
  %9 = bitcast { i8*, i64 }* %0 to {}**, !dbg !901
  store {}* null, {}** %9, align 8, !dbg !901
  br label %bb7, !dbg !902

bb7:                                              ; preds = %bb6, %bb4
  %10 = getelementptr inbounds { i8*, i64 }, { i8*, i64 }* %0, i32 0, i32 0, !dbg !903
  %11 = load i8*, i8** %10, align 8, !dbg !903
  %12 = getelementptr inbounds { i8*, i64 }, { i8*, i64 }* %0, i32 0, i32 1, !dbg !903
  %13 = load i64, i64* %12, align 8, !dbg !903
  %14 = insertvalue { i8*, i64 } undef, i8* %11, 0, !dbg !903
  %15 = insertvalue { i8*, i64 } %14, i64 %13, 1, !dbg !903
  ret { i8*, i64 } %15, !dbg !903

bb6:                                              ; preds = %bb5
  %16 = bitcast { i8*, i64 }* %0 to { [0 x i8]*, i64 }*, !dbg !904
  %17 = getelementptr inbounds { [0 x i8]*, i64 }, { [0 x i8]*, i64 }* %16, i32 0, i32 0, !dbg !904
  store [0 x i8]* %_13.0, [0 x i8]** %17, align 8, !dbg !904
  %18 = getelementptr inbounds { [0 x i8]*, i64 }, { [0 x i8]*, i64 }* %16, i32 0, i32 1, !dbg !904
  store i64 %_13.1, i64* %18, align 8, !dbg !904
  br label %bb7, !dbg !902
}

; <core::slice::iter::Iter<T> as core::iter::traits::double_ended::DoubleEndedIterator>::next_back
; Function Attrs: inlinehint nounwind
define align 1 dereferenceable_or_null(1) i8* @"_ZN106_$LT$core..slice..iter..Iter$LT$T$GT$$u20$as$u20$core..iter..traits..double_ended..DoubleEndedIterator$GT$9next_back17he8e957c89eb50a0aE"({ i8*, i8* }* align 8 dereferenceable(16) %self) unnamed_addr #0 !dbg !905 {
start:
  %0 = alloca i8*, align 8
  %count.dbg.spill.i.i = alloca i64, align 8
  %self.dbg.spill.i.i = alloca i8*, align 8
  %offset.dbg.spill.i = alloca i64, align 8
  %self.dbg.spill.i = alloca { i8*, i8* }*, align 8
  %1 = alloca i8*, align 8
  %self.dbg.spill = alloca { i8*, i8* }*, align 8
  %2 = alloca i8*, align 8
  store { i8*, i8* }* %self, { i8*, i8* }** %self.dbg.spill, align 8
  call void @llvm.dbg.declare(metadata { i8*, i8* }** %self.dbg.spill, metadata !921, metadata !DIExpression()), !dbg !922
  %3 = bitcast { i8*, i8* }* %self to i8**, !dbg !923
  %_6 = load i8*, i8** %3, align 8, !dbg !923, !nonnull !4
; call core::ptr::non_null::NonNull<T>::as_ptr
  %_5 = call i8* @"_ZN4core3ptr8non_null16NonNull$LT$T$GT$6as_ptr17h693be9d1aa38e18cE"(i8* nonnull %_6), !dbg !923
  br label %bb1, !dbg !923

bb1:                                              ; preds = %start
; call core::ptr::mut_ptr::<impl *mut T>::is_null
  %_4 = call zeroext i1 @"_ZN4core3ptr7mut_ptr31_$LT$impl$u20$$BP$mut$u20$T$GT$7is_null17h81f020dc74f116d2E"(i8* %_5), !dbg !923
  br label %bb2, !dbg !923

bb2:                                              ; preds = %bb1
  %_3 = xor i1 %_4, true, !dbg !924
  call void @llvm.assume(i1 %_3), !dbg !925
  br label %bb3, !dbg !925

bb3:                                              ; preds = %bb2
  br label %bb4, !dbg !926

bb4:                                              ; preds = %bb3
  %4 = icmp eq i64 1, 0, !dbg !926
  br i1 %4, label %bb8, label %bb5, !dbg !926

bb8:                                              ; preds = %bb4
  br label %bb9, !dbg !927

bb5:                                              ; preds = %bb4
  %5 = getelementptr inbounds { i8*, i8* }, { i8*, i8* }* %self, i32 0, i32 1, !dbg !928
  %_11 = load i8*, i8** %5, align 8, !dbg !928
; call core::ptr::const_ptr::<impl *const T>::is_null
  %_10 = call zeroext i1 @"_ZN4core3ptr9const_ptr33_$LT$impl$u20$$BP$const$u20$T$GT$7is_null17hf2eeacbe18ac206aE"(i8* %_11), !dbg !928
  br label %bb6, !dbg !928

bb6:                                              ; preds = %bb5
  %_9 = xor i1 %_10, true, !dbg !929
  call void @llvm.assume(i1 %_9), !dbg !930
  br label %bb7, !dbg !930

bb7:                                              ; preds = %bb6
  br label %bb9, !dbg !927

bb9:                                              ; preds = %bb8, %bb7
  %6 = bitcast { i8*, i8* }* %self to i8**, !dbg !931
  %_15 = load i8*, i8** %6, align 8, !dbg !931, !nonnull !4
; call core::ptr::non_null::NonNull<T>::as_ptr
  %_14 = call i8* @"_ZN4core3ptr8non_null16NonNull$LT$T$GT$6as_ptr17h693be9d1aa38e18cE"(i8* nonnull %_15), !dbg !931
  br label %bb10, !dbg !931

bb10:                                             ; preds = %bb9
  %7 = getelementptr inbounds { i8*, i8* }, { i8*, i8* }* %self, i32 0, i32 1, !dbg !931
  %_16 = load i8*, i8** %7, align 8, !dbg !931
  %_12 = icmp eq i8* %_14, %_16, !dbg !931
  br i1 %_12, label %bb11, label %bb12, !dbg !931

bb12:                                             ; preds = %bb10
  store { i8*, i8* }* %self, { i8*, i8* }** %self.dbg.spill.i, align 8
  call void @llvm.dbg.declare(metadata { i8*, i8* }** %self.dbg.spill.i, metadata !932, metadata !DIExpression()), !dbg !938
  store i64 1, i64* %offset.dbg.spill.i, align 8
  call void @llvm.dbg.declare(metadata i64* %offset.dbg.spill.i, metadata !937, metadata !DIExpression()), !dbg !940
  %8 = getelementptr inbounds { i8*, i8* }, { i8*, i8* }* %self, i32 0, i32 1, !dbg !941
  %_12.i = load i8*, i8** %8, align 8, !dbg !941
  store i8* %_12.i, i8** %self.dbg.spill.i.i, align 8
  call void @llvm.dbg.declare(metadata i8** %self.dbg.spill.i.i, metadata !942, metadata !DIExpression()), !dbg !951
  store i64 -1, i64* %count.dbg.spill.i.i, align 8
  call void @llvm.dbg.declare(metadata i64* %count.dbg.spill.i.i, metadata !950, metadata !DIExpression()), !dbg !953
  %9 = getelementptr inbounds i8, i8* %_12.i, i64 -1, !dbg !954
  store i8* %9, i8** %0, align 8, !dbg !954
  %10 = load i8*, i8** %0, align 8, !dbg !954
  %11 = getelementptr inbounds { i8*, i8* }, { i8*, i8* }* %self, i32 0, i32 1, !dbg !955
  store i8* %10, i8** %11, align 8, !dbg !955
  %12 = getelementptr inbounds { i8*, i8* }, { i8*, i8* }* %self, i32 0, i32 1, !dbg !956
  %13 = load i8*, i8** %12, align 8, !dbg !956
  store i8* %13, i8** %1, align 8, !dbg !956
  %14 = load i8*, i8** %1, align 8, !dbg !957
  br label %bb13, !dbg !958

bb11:                                             ; preds = %bb10
  %15 = bitcast i8** %2 to {}**, !dbg !959
  store {}* null, {}** %15, align 8, !dbg !959
  br label %bb14, !dbg !960

bb14:                                             ; preds = %bb13, %bb11
  %16 = load i8*, i8** %2, align 8, !dbg !961
  ret i8* %16, !dbg !961

bb13:                                             ; preds = %bb12
  store i8* %14, i8** %2, align 8, !dbg !962
  br label %bb14, !dbg !960
}

; <core::str::pattern::CharPredicateSearcher<F> as core::str::pattern::ReverseSearcher>::next_reject_back
; Function Attrs: inlinehint nounwind
define void @"_ZN106_$LT$core..str..pattern..CharPredicateSearcher$LT$F$GT$$u20$as$u20$core..str..pattern..ReverseSearcher$GT$16next_reject_back17h0236297f6420a1f4E"(%"std::option::Option<(usize, usize)>"* noalias nocapture sret(%"std::option::Option<(usize, usize)>") dereferenceable(24) %0, %"std::str::pattern::CharPredicateSearcher<[closure@core::str::<impl str>::trim_end::{closure#0}]>"* align 8 dereferenceable(40) %self) unnamed_addr #0 !dbg !963 {
start:
  %self.dbg.spill = alloca %"std::str::pattern::CharPredicateSearcher<[closure@core::str::<impl str>::trim_end::{closure#0}]>"*, align 8
  store %"std::str::pattern::CharPredicateSearcher<[closure@core::str::<impl str>::trim_end::{closure#0}]>"* %self, %"std::str::pattern::CharPredicateSearcher<[closure@core::str::<impl str>::trim_end::{closure#0}]>"** %self.dbg.spill, align 8
  call void @llvm.dbg.declare(metadata %"std::str::pattern::CharPredicateSearcher<[closure@core::str::<impl str>::trim_end::{closure#0}]>"** %self.dbg.spill, metadata !990, metadata !DIExpression()), !dbg !991
  %_2 = bitcast %"std::str::pattern::CharPredicateSearcher<[closure@core::str::<impl str>::trim_end::{closure#0}]>"* %self to %"std::str::pattern::MultiCharEqSearcher<[closure@core::str::<impl str>::trim_end::{closure#0}]>"*, !dbg !992
; call core::str::pattern::ReverseSearcher::next_reject_back
  call void @_ZN4core3str7pattern15ReverseSearcher16next_reject_back17h4f4478f0d4b52ea8E(%"std::option::Option<(usize, usize)>"* noalias nocapture sret(%"std::option::Option<(usize, usize)>") dereferenceable(24) %0, %"std::str::pattern::MultiCharEqSearcher<[closure@core::str::<impl str>::trim_end::{closure#0}]>"* align 8 dereferenceable(40) %_2), !dbg !992
  br label %bb1, !dbg !992

bb1:                                              ; preds = %start
  ret void, !dbg !993
}

; <core::iter::adapters::filter::Filter<I,P> as core::iter::traits::iterator::Iterator>::fold
; Function Attrs: inlinehint nounwind
define void @"_ZN108_$LT$core..iter..adapters..filter..Filter$LT$I$C$P$GT$$u20$as$u20$core..iter..traits..iterator..Iterator$GT$4fold17h3692029904f8ffbdE"(i8* nonnull %self.0, i8* %self.1, i64* align 8 dereferenceable(24) %fold) unnamed_addr #0 !dbg !994 {
start:
  %fold.dbg.spill = alloca i64*, align 8
  %init.dbg.spill = alloca {}, align 1
  %self.dbg.spill = alloca { i8*, i8* }, align 8
  %0 = getelementptr inbounds { i8*, i8* }, { i8*, i8* }* %self.dbg.spill, i32 0, i32 0
  store i8* %self.0, i8** %0, align 8
  %1 = getelementptr inbounds { i8*, i8* }, { i8*, i8* }* %self.dbg.spill, i32 0, i32 1
  store i8* %self.1, i8** %1, align 8
  call void @llvm.dbg.declare(metadata { i8*, i8* }* %self.dbg.spill, metadata !1020, metadata !DIExpression()), !dbg !1025
  call void @llvm.dbg.declare(metadata {}* %init.dbg.spill, metadata !1021, metadata !DIExpression()), !dbg !1026
  store i64* %fold, i64** %fold.dbg.spill, align 8
  call void @llvm.dbg.declare(metadata i64** %fold.dbg.spill, metadata !1022, metadata !DIExpression()), !dbg !1027
; call core::iter::adapters::filter::filter_fold
  %_6 = call align 8 dereferenceable(24) i64* @_ZN4core4iter8adapters6filter11filter_fold17ha590f47ca57ade5cE(i64* align 8 dereferenceable(24) %fold), !dbg !1028
  br label %bb1, !dbg !1028

bb1:                                              ; preds = %start
; call core::iter::traits::iterator::Iterator::fold
  call void @_ZN4core4iter6traits8iterator8Iterator4fold17h5f4d64cf5d5d3d2cE(i8* nonnull %self.0, i8* %self.1, i64* align 8 dereferenceable(24) %_6), !dbg !1029
  br label %bb2, !dbg !1029

bb2:                                              ; preds = %bb1
  ret void, !dbg !1030
}

; <core::iter::adapters::filter::Filter<I,P> as core::iter::traits::iterator::Iterator>::size_hint
; Function Attrs: inlinehint nounwind
define void @"_ZN108_$LT$core..iter..adapters..filter..Filter$LT$I$C$P$GT$$u20$as$u20$core..iter..traits..iterator..Iterator$GT$9size_hint17he6b87a85efc53755E"({ i64, { i64, i64 } }* noalias nocapture sret({ i64, { i64, i64 } }) dereferenceable(24) %0, { i8*, i8* }* align 8 dereferenceable(16) %self) unnamed_addr #0 !dbg !1031 {
start:
  %upper.dbg.spill = alloca { i64, i64 }, align 8
  %self.dbg.spill = alloca { i8*, i8* }*, align 8
  %_3 = alloca { i64, { i64, i64 } }, align 8
  store { i8*, i8* }* %self, { i8*, i8* }** %self.dbg.spill, align 8
  call void @llvm.dbg.declare(metadata { i8*, i8* }** %self.dbg.spill, metadata !1036, metadata !DIExpression()), !dbg !1039
; call <core::str::iter::Chars as core::iter::traits::iterator::Iterator>::size_hint
  call void @"_ZN81_$LT$core..str..iter..Chars$u20$as$u20$core..iter..traits..iterator..Iterator$GT$9size_hint17haffbe540567c97ffE"({ i64, { i64, i64 } }* noalias nocapture sret({ i64, { i64, i64 } }) dereferenceable(24) %_3, { i8*, i8* }* align 8 dereferenceable(16) %self), !dbg !1040
  br label %bb1, !dbg !1040

bb1:                                              ; preds = %start
  %1 = getelementptr inbounds { i64, { i64, i64 } }, { i64, { i64, i64 } }* %_3, i32 0, i32 1, !dbg !1041
  %2 = getelementptr inbounds { i64, i64 }, { i64, i64 }* %1, i32 0, i32 0, !dbg !1041
  %upper.0 = load i64, i64* %2, align 8, !dbg !1041, !range !496
  %3 = getelementptr inbounds { i64, i64 }, { i64, i64 }* %1, i32 0, i32 1, !dbg !1041
  %upper.1 = load i64, i64* %3, align 8, !dbg !1041
  %4 = getelementptr inbounds { i64, i64 }, { i64, i64 }* %upper.dbg.spill, i32 0, i32 0, !dbg !1041
  store i64 %upper.0, i64* %4, align 8, !dbg !1041
  %5 = getelementptr inbounds { i64, i64 }, { i64, i64 }* %upper.dbg.spill, i32 0, i32 1, !dbg !1041
  store i64 %upper.1, i64* %5, align 8, !dbg !1041
  call void @llvm.dbg.declare(metadata { i64, i64 }* %upper.dbg.spill, metadata !1037, metadata !DIExpression()), !dbg !1042
  %6 = bitcast { i64, { i64, i64 } }* %0 to i64*, !dbg !1043
  store i64 0, i64* %6, align 8, !dbg !1043
  %7 = getelementptr inbounds { i64, { i64, i64 } }, { i64, { i64, i64 } }* %0, i32 0, i32 1, !dbg !1043
  %8 = getelementptr inbounds { i64, i64 }, { i64, i64 }* %7, i32 0, i32 0, !dbg !1043
  store i64 %upper.0, i64* %8, align 8, !dbg !1043
  %9 = getelementptr inbounds { i64, i64 }, { i64, i64 }* %7, i32 0, i32 1, !dbg !1043
  store i64 %upper.1, i64* %9, align 8, !dbg !1043
  ret void, !dbg !1044
}

; <core::iter::adapters::enumerate::Enumerate<I> as core::iter::traits::iterator::Iterator>::fold
; Function Attrs: inlinehint nounwind
define void @"_ZN110_$LT$core..iter..adapters..enumerate..Enumerate$LT$I$GT$$u20$as$u20$core..iter..traits..iterator..Iterator$GT$4fold17hbacd650d7d715181E"(%"std::iter::Enumerate<std::slice::IterMut<u8>>"* noalias nocapture dereferenceable(24) %self, i8* nonnull align 1 %fold.0, i64* align 8 dereferenceable(8) %fold.1) unnamed_addr #0 !dbg !1045 {
start:
  %fold.dbg.spill = alloca { i8*, i64* }, align 8
  %init.dbg.spill = alloca {}, align 1
  %_6 = alloca %"[closure@<std::iter::Enumerate<I> as std::iter::Iterator>::fold::enumerate<&mut u8, (), [closure@std::iter::Iterator::for_each::call<(usize, &mut u8), [closure@<sha2::digest::generic_array::GenericArray<u8, sha2::digest::typenum::UInt<sha2::digest::typenum::UInt<sha2::digest::typenum::UInt<sha2::digest::typenum::UInt<sha2::digest::typenum::UInt<sha2::digest::typenum::UInt<sha2::digest::typenum::UTerm, sha2::digest::typenum::B1>, sha2::digest::typenum::B0>, sha2::digest::typenum::B0>, sha2::digest::typenum::B0>, sha2::digest::typenum::B0>, sha2::digest::typenum::B0>> as sha2::digest::generic_array::sequence::GenericSequence<u8>>::generate<[closure@sha2::digest::generic_array::impls::<impl std::default::Default for sha2::digest::generic_array::GenericArray<u8, sha2::digest::typenum::UInt<sha2::digest::typenum::UInt<sha2::digest::typenum::UInt<sha2::digest::typenum::UInt<sha2::digest::typenum::UInt<sha2::digest::typenum::UInt<sha2::digest::typenum::UTerm, sha2::digest::typenum::B1>, sha2::digest::typenum::B0>, sha2::digest::typenum::B0>, sha2::digest::typenum::B0>, sha2::digest::typenum::B0>, sha2::digest::typenum::B0>>>::default::{closure#0}]>::{closure#0}]>::{closure#0}]>::{closure#0}]", align 8
  call void @llvm.dbg.declare(metadata %"std::iter::Enumerate<std::slice::IterMut<u8>>"* %self, metadata !1083, metadata !DIExpression()), !dbg !1088
  call void @llvm.dbg.declare(metadata {}* %init.dbg.spill, metadata !1084, metadata !DIExpression()), !dbg !1089
  %0 = getelementptr inbounds { i8*, i64* }, { i8*, i64* }* %fold.dbg.spill, i32 0, i32 0
  store i8* %fold.0, i8** %0, align 8
  %1 = getelementptr inbounds { i8*, i64* }, { i8*, i64* }* %fold.dbg.spill, i32 0, i32 1
  store i64* %fold.1, i64** %1, align 8
  call void @llvm.dbg.declare(metadata { i8*, i64* }* %fold.dbg.spill, metadata !1085, metadata !DIExpression()), !dbg !1090
  %2 = bitcast %"std::iter::Enumerate<std::slice::IterMut<u8>>"* %self to { i8*, i8* }*, !dbg !1091
  %3 = getelementptr inbounds { i8*, i8* }, { i8*, i8* }* %2, i32 0, i32 0, !dbg !1091
  %_4.0 = load i8*, i8** %3, align 8, !dbg !1091, !nonnull !4
  %4 = getelementptr inbounds { i8*, i8* }, { i8*, i8* }* %2, i32 0, i32 1, !dbg !1091
  %_4.1 = load i8*, i8** %4, align 8, !dbg !1091
  %5 = getelementptr inbounds %"std::iter::Enumerate<std::slice::IterMut<u8>>", %"std::iter::Enumerate<std::slice::IterMut<u8>>"* %self, i32 0, i32 1, !dbg !1092
  %_7 = load i64, i64* %5, align 8, !dbg !1092
; call <core::iter::adapters::enumerate::Enumerate<I> as core::iter::traits::iterator::Iterator>::fold::enumerate
  call void @"_ZN110_$LT$core..iter..adapters..enumerate..Enumerate$LT$I$GT$$u20$as$u20$core..iter..traits..iterator..Iterator$GT$4fold9enumerate17hc671e87a399cd1deE"(%"[closure@<std::iter::Enumerate<I> as std::iter::Iterator>::fold::enumerate<&mut u8, (), [closure@std::iter::Iterator::for_each::call<(usize, &mut u8), [closure@<sha2::digest::generic_array::GenericArray<u8, sha2::digest::typenum::UInt<sha2::digest::typenum::UInt<sha2::digest::typenum::UInt<sha2::digest::typenum::UInt<sha2::digest::typenum::UInt<sha2::digest::typenum::UInt<sha2::digest::typenum::UTerm, sha2::digest::typenum::B1>, sha2::digest::typenum::B0>, sha2::digest::typenum::B0>, sha2::digest::typenum::B0>, sha2::digest::typenum::B0>, sha2::digest::typenum::B0>> as sha2::digest::generic_array::sequence::GenericSequence<u8>>::generate<[closure@sha2::digest::generic_array::impls::<impl std::default::Default for sha2::digest::generic_array::GenericArray<u8, sha2::digest::typenum::UInt<sha2::digest::typenum::UInt<sha2::digest::typenum::UInt<sha2::digest::typenum::UInt<sha2::digest::typenum::UInt<sha2::digest::typenum::UInt<sha2::digest::typenum::UTerm, sha2::digest::typenum::B1>, sha2::digest::typenum::B0>, sha2::digest::typenum::B0>, sha2::digest::typenum::B0>, sha2::digest::typenum::B0>, sha2::digest::typenum::B0>>>::default::{closure#0}]>::{closure#0}]>::{closure#0}]>::{closure#0}]"* noalias nocapture sret(%"[closure@<std::iter::Enumerate<I> as std::iter::Iterator>::fold::enumerate<&mut u8, (), [closure@std::iter::Iterator::for_each::call<(usize, &mut u8), [closure@<sha2::digest::generic_array::GenericArray<u8, sha2::digest::typenum::UInt<sha2::digest::typenum::UInt<sha2::digest::typenum::UInt<sha2::digest::typenum::UInt<sha2::digest::typenum::UInt<sha2::digest::typenum::UInt<sha2::digest::typenum::UTerm, sha2::digest::typenum::B1>, sha2::digest::typenum::B0>, sha2::digest::typenum::B0>, sha2::digest::typenum::B0>, sha2::digest::typenum::B0>, sha2::digest::typenum::B0>> as sha2::digest::generic_array::sequence::GenericSequence<u8>>::generate<[closure@sha2::digest::generic_array::impls::<impl std::default::Default for sha2::digest::generic_array::GenericArray<u8, sha2::digest::typenum::UInt<sha2::digest::typenum::UInt<sha2::digest::typenum::UInt<sha2::digest::typenum::UInt<sha2::digest::typenum::UInt<sha2::digest::typenum::UInt<sha2::digest::typenum::UTerm, sha2::digest::typenum::B1>, sha2::digest::typenum::B0>, sha2::digest::typenum::B0>, sha2::digest::typenum::B0>, sha2::digest::typenum::B0>, sha2::digest::typenum::B0>>>::default::{closure#0}]>::{closure#0}]>::{closure#0}]>::{closure#0}]") dereferenceable(24) %_6, i64 %_7, i8* nonnull align 1 %fold.0, i64* align 8 dereferenceable(8) %fold.1), !dbg !1093
  br label %bb1, !dbg !1093

bb1:                                              ; preds = %start
; call core::iter::traits::iterator::Iterator::fold
  call void @_ZN4core4iter6traits8iterator8Iterator4fold17h207e8da99064c136E(i8* nonnull %_4.0, i8* %_4.1, %"[closure@<std::iter::Enumerate<I> as std::iter::Iterator>::fold::enumerate<&mut u8, (), [closure@std::iter::Iterator::for_each::call<(usize, &mut u8), [closure@<sha2::digest::generic_array::GenericArray<u8, sha2::digest::typenum::UInt<sha2::digest::typenum::UInt<sha2::digest::typenum::UInt<sha2::digest::typenum::UInt<sha2::digest::typenum::UInt<sha2::digest::typenum::UInt<sha2::digest::typenum::UTerm, sha2::digest::typenum::B1>, sha2::digest::typenum::B0>, sha2::digest::typenum::B0>, sha2::digest::typenum::B0>, sha2::digest::typenum::B0>, sha2::digest::typenum::B0>> as sha2::digest::generic_array::sequence::GenericSequence<u8>>::generate<[closure@sha2::digest::generic_array::impls::<impl std::default::Default for sha2::digest::generic_array::GenericArray<u8, sha2::digest::typenum::UInt<sha2::digest::typenum::UInt<sha2::digest::typenum::UInt<sha2::digest::typenum::UInt<sha2::digest::typenum::UInt<sha2::digest::typenum::UInt<sha2::digest::typenum::UTerm, sha2::digest::typenum::B1>, sha2::digest::typenum::B0>, sha2::digest::typenum::B0>, sha2::digest::typenum::B0>, sha2::digest::typenum::B0>, sha2::digest::typenum::B0>>>::default::{closure#0}]>::{closure#0}]>::{closure#0}]>::{closure#0}]"* noalias nocapture dereferenceable(24) %_6), !dbg !1091
  br label %bb2, !dbg !1091

bb2:                                              ; preds = %bb1
  ret void, !dbg !1094
}

; <core::iter::adapters::enumerate::Enumerate<I> as core::iter::traits::iterator::Iterator>::fold
; Function Attrs: inlinehint nounwind
define void @"_ZN110_$LT$core..iter..adapters..enumerate..Enumerate$LT$I$GT$$u20$as$u20$core..iter..traits..iterator..Iterator$GT$4fold17hc6311a9fa57c5a6cE"(%"std::iter::Enumerate<std::slice::IterMut<u8>>"* noalias nocapture dereferenceable(24) %self, i8* nonnull align 1 %fold.0, i64* align 8 dereferenceable(8) %fold.1) unnamed_addr #0 !dbg !1095 {
start:
  %fold.dbg.spill = alloca { i8*, i64* }, align 8
  %init.dbg.spill = alloca {}, align 1
  %_6 = alloca %"[closure@<std::iter::Enumerate<I> as std::iter::Iterator>::fold::enumerate<&mut u8, (), [closure@std::iter::Iterator::for_each::call<(usize, &mut u8), [closure@<sha2::digest::generic_array::GenericArray<u8, sha2::digest::typenum::UInt<sha2::digest::typenum::UInt<sha2::digest::typenum::UInt<sha2::digest::typenum::UInt<sha2::digest::typenum::UInt<sha2::digest::typenum::UInt<sha2::digest::typenum::UInt<sha2::digest::typenum::UTerm, sha2::digest::typenum::B1>, sha2::digest::typenum::B0>, sha2::digest::typenum::B0>, sha2::digest::typenum::B0>, sha2::digest::typenum::B0>, sha2::digest::typenum::B0>, sha2::digest::typenum::B0>> as sha2::digest::generic_array::sequence::GenericSequence<u8>>::generate<[closure@sha2::digest::generic_array::impls::<impl std::default::Default for sha2::digest::generic_array::GenericArray<u8, sha2::digest::typenum::UInt<sha2::digest::typenum::UInt<sha2::digest::typenum::UInt<sha2::digest::typenum::UInt<sha2::digest::typenum::UInt<sha2::digest::typenum::UInt<sha2::digest::typenum::UInt<sha2::digest::typenum::UTerm, sha2::digest::typenum::B1>, sha2::digest::typenum::B0>, sha2::digest::typenum::B0>, sha2::digest::typenum::B0>, sha2::digest::typenum::B0>, sha2::digest::typenum::B0>, sha2::digest::typenum::B0>>>::default::{closure#0}]>::{closure#0}]>::{closure#0}]>::{closure#0}]", align 8
  call void @llvm.dbg.declare(metadata %"std::iter::Enumerate<std::slice::IterMut<u8>>"* %self, metadata !1108, metadata !DIExpression()), !dbg !1113
  call void @llvm.dbg.declare(metadata {}* %init.dbg.spill, metadata !1109, metadata !DIExpression()), !dbg !1114
  %0 = getelementptr inbounds { i8*, i64* }, { i8*, i64* }* %fold.dbg.spill, i32 0, i32 0
  store i8* %fold.0, i8** %0, align 8
  %1 = getelementptr inbounds { i8*, i64* }, { i8*, i64* }* %fold.dbg.spill, i32 0, i32 1
  store i64* %fold.1, i64** %1, align 8
  call void @llvm.dbg.declare(metadata { i8*, i64* }* %fold.dbg.spill, metadata !1110, metadata !DIExpression()), !dbg !1115
  %2 = bitcast %"std::iter::Enumerate<std::slice::IterMut<u8>>"* %self to { i8*, i8* }*, !dbg !1116
  %3 = getelementptr inbounds { i8*, i8* }, { i8*, i8* }* %2, i32 0, i32 0, !dbg !1116
  %_4.0 = load i8*, i8** %3, align 8, !dbg !1116, !nonnull !4
  %4 = getelementptr inbounds { i8*, i8* }, { i8*, i8* }* %2, i32 0, i32 1, !dbg !1116
  %_4.1 = load i8*, i8** %4, align 8, !dbg !1116
  %5 = getelementptr inbounds %"std::iter::Enumerate<std::slice::IterMut<u8>>", %"std::iter::Enumerate<std::slice::IterMut<u8>>"* %self, i32 0, i32 1, !dbg !1117
  %_7 = load i64, i64* %5, align 8, !dbg !1117
; call <core::iter::adapters::enumerate::Enumerate<I> as core::iter::traits::iterator::Iterator>::fold::enumerate
  call void @"_ZN110_$LT$core..iter..adapters..enumerate..Enumerate$LT$I$GT$$u20$as$u20$core..iter..traits..iterator..Iterator$GT$4fold9enumerate17h91bad3b3b59bab65E"(%"[closure@<std::iter::Enumerate<I> as std::iter::Iterator>::fold::enumerate<&mut u8, (), [closure@std::iter::Iterator::for_each::call<(usize, &mut u8), [closure@<sha2::digest::generic_array::GenericArray<u8, sha2::digest::typenum::UInt<sha2::digest::typenum::UInt<sha2::digest::typenum::UInt<sha2::digest::typenum::UInt<sha2::digest::typenum::UInt<sha2::digest::typenum::UInt<sha2::digest::typenum::UInt<sha2::digest::typenum::UTerm, sha2::digest::typenum::B1>, sha2::digest::typenum::B0>, sha2::digest::typenum::B0>, sha2::digest::typenum::B0>, sha2::digest::typenum::B0>, sha2::digest::typenum::B0>, sha2::digest::typenum::B0>> as sha2::digest::generic_array::sequence::GenericSequence<u8>>::generate<[closure@sha2::digest::generic_array::impls::<impl std::default::Default for sha2::digest::generic_array::GenericArray<u8, sha2::digest::typenum::UInt<sha2::digest::typenum::UInt<sha2::digest::typenum::UInt<sha2::digest::typenum::UInt<sha2::digest::typenum::UInt<sha2::digest::typenum::UInt<sha2::digest::typenum::UInt<sha2::digest::typenum::UTerm, sha2::digest::typenum::B1>, sha2::digest::typenum::B0>, sha2::digest::typenum::B0>, sha2::digest::typenum::B0>, sha2::digest::typenum::B0>, sha2::digest::typenum::B0>, sha2::digest::typenum::B0>>>::default::{closure#0}]>::{closure#0}]>::{closure#0}]>::{closure#0}]"* noalias nocapture sret(%"[closure@<std::iter::Enumerate<I> as std::iter::Iterator>::fold::enumerate<&mut u8, (), [closure@std::iter::Iterator::for_each::call<(usize, &mut u8), [closure@<sha2::digest::generic_array::GenericArray<u8, sha2::digest::typenum::UInt<sha2::digest::typenum::UInt<sha2::digest::typenum::UInt<sha2::digest::typenum::UInt<sha2::digest::typenum::UInt<sha2::digest::typenum::UInt<sha2::digest::typenum::UInt<sha2::digest::typenum::UTerm, sha2::digest::typenum::B1>, sha2::digest::typenum::B0>, sha2::digest::typenum::B0>, sha2::digest::typenum::B0>, sha2::digest::typenum::B0>, sha2::digest::typenum::B0>, sha2::digest::typenum::B0>> as sha2::digest::generic_array::sequence::GenericSequence<u8>>::generate<[closure@sha2::digest::generic_array::impls::<impl std::default::Default for sha2::digest::generic_array::GenericArray<u8, sha2::digest::typenum::UInt<sha2::digest::typenum::UInt<sha2::digest::typenum::UInt<sha2::digest::typenum::UInt<sha2::digest::typenum::UInt<sha2::digest::typenum::UInt<sha2::digest::typenum::UInt<sha2::digest::typenum::UTerm, sha2::digest::typenum::B1>, sha2::digest::typenum::B0>, sha2::digest::typenum::B0>, sha2::digest::typenum::B0>, sha2::digest::typenum::B0>, sha2::digest::typenum::B0>, sha2::digest::typenum::B0>>>::default::{closure#0}]>::{closure#0}]>::{closure#0}]>::{closure#0}]") dereferenceable(24) %_6, i64 %_7, i8* nonnull align 1 %fold.0, i64* align 8 dereferenceable(8) %fold.1), !dbg !1118
  br label %bb1, !dbg !1118

bb1:                                              ; preds = %start
; call core::iter::traits::iterator::Iterator::fold
  call void @_ZN4core4iter6traits8iterator8Iterator4fold17h87596adc1c338b86E(i8* nonnull %_4.0, i8* %_4.1, %"[closure@<std::iter::Enumerate<I> as std::iter::Iterator>::fold::enumerate<&mut u8, (), [closure@std::iter::Iterator::for_each::call<(usize, &mut u8), [closure@<sha2::digest::generic_array::GenericArray<u8, sha2::digest::typenum::UInt<sha2::digest::typenum::UInt<sha2::digest::typenum::UInt<sha2::digest::typenum::UInt<sha2::digest::typenum::UInt<sha2::digest::typenum::UInt<sha2::digest::typenum::UInt<sha2::digest::typenum::UTerm, sha2::digest::typenum::B1>, sha2::digest::typenum::B0>, sha2::digest::typenum::B0>, sha2::digest::typenum::B0>, sha2::digest::typenum::B0>, sha2::digest::typenum::B0>, sha2::digest::typenum::B0>> as sha2::digest::generic_array::sequence::GenericSequence<u8>>::generate<[closure@sha2::digest::generic_array::impls::<impl std::default::Default for sha2::digest::generic_array::GenericArray<u8, sha2::digest::typenum::UInt<sha2::digest::typenum::UInt<sha2::digest::typenum::UInt<sha2::digest::typenum::UInt<sha2::digest::typenum::UInt<sha2::digest::typenum::UInt<sha2::digest::typenum::UInt<sha2::digest::typenum::UTerm, sha2::digest::typenum::B1>, sha2::digest::typenum::B0>, sha2::digest::typenum::B0>, sha2::digest::typenum::B0>, sha2::digest::typenum::B0>, sha2::digest::typenum::B0>, sha2::digest::typenum::B0>>>::default::{closure#0}]>::{closure#0}]>::{closure#0}]>::{closure#0}]"* noalias nocapture dereferenceable(24) %_6), !dbg !1116
  br label %bb2, !dbg !1116

bb2:                                              ; preds = %bb1
  ret void, !dbg !1119
}

; <core::iter::adapters::enumerate::Enumerate<I> as core::iter::traits::iterator::Iterator>::fold::enumerate
; Function Attrs: inlinehint nounwind
define void @"_ZN110_$LT$core..iter..adapters..enumerate..Enumerate$LT$I$GT$$u20$as$u20$core..iter..traits..iterator..Iterator$GT$4fold9enumerate17h91bad3b3b59bab65E"(%"[closure@<std::iter::Enumerate<I> as std::iter::Iterator>::fold::enumerate<&mut u8, (), [closure@std::iter::Iterator::for_each::call<(usize, &mut u8), [closure@<sha2::digest::generic_array::GenericArray<u8, sha2::digest::typenum::UInt<sha2::digest::typenum::UInt<sha2::digest::typenum::UInt<sha2::digest::typenum::UInt<sha2::digest::typenum::UInt<sha2::digest::typenum::UInt<sha2::digest::typenum::UInt<sha2::digest::typenum::UTerm, sha2::digest::typenum::B1>, sha2::digest::typenum::B0>, sha2::digest::typenum::B0>, sha2::digest::typenum::B0>, sha2::digest::typenum::B0>, sha2::digest::typenum::B0>, sha2::digest::typenum::B0>> as sha2::digest::generic_array::sequence::GenericSequence<u8>>::generate<[closure@sha2::digest::generic_array::impls::<impl std::default::Default for sha2::digest::generic_array::GenericArray<u8, sha2::digest::typenum::UInt<sha2::digest::typenum::UInt<sha2::digest::typenum::UInt<sha2::digest::typenum::UInt<sha2::digest::typenum::UInt<sha2::digest::typenum::UInt<sha2::digest::typenum::UInt<sha2::digest::typenum::UTerm, sha2::digest::typenum::B1>, sha2::digest::typenum::B0>, sha2::digest::typenum::B0>, sha2::digest::typenum::B0>, sha2::digest::typenum::B0>, sha2::digest::typenum::B0>, sha2::digest::typenum::B0>>>::default::{closure#0}]>::{closure#0}]>::{closure#0}]>::{closure#0}]"* noalias nocapture sret(%"[closure@<std::iter::Enumerate<I> as std::iter::Iterator>::fold::enumerate<&mut u8, (), [closure@std::iter::Iterator::for_each::call<(usize, &mut u8), [closure@<sha2::digest::generic_array::GenericArray<u8, sha2::digest::typenum::UInt<sha2::digest::typenum::UInt<sha2::digest::typenum::UInt<sha2::digest::typenum::UInt<sha2::digest::typenum::UInt<sha2::digest::typenum::UInt<sha2::digest::typenum::UInt<sha2::digest::typenum::UTerm, sha2::digest::typenum::B1>, sha2::digest::typenum::B0>, sha2::digest::typenum::B0>, sha2::digest::typenum::B0>, sha2::digest::typenum::B0>, sha2::digest::typenum::B0>, sha2::digest::typenum::B0>> as sha2::digest::generic_array::sequence::GenericSequence<u8>>::generate<[closure@sha2::digest::generic_array::impls::<impl std::default::Default for sha2::digest::generic_array::GenericArray<u8, sha2::digest::typenum::UInt<sha2::digest::typenum::UInt<sha2::digest::typenum::UInt<sha2::digest::typenum::UInt<sha2::digest::typenum::UInt<sha2::digest::typenum::UInt<sha2::digest::typenum::UInt<sha2::digest::typenum::UTerm, sha2::digest::typenum::B1>, sha2::digest::typenum::B0>, sha2::digest::typenum::B0>, sha2::digest::typenum::B0>, sha2::digest::typenum::B0>, sha2::digest::typenum::B0>, sha2::digest::typenum::B0>>>::default::{closure#0}]>::{closure#0}]>::{closure#0}]>::{closure#0}]") dereferenceable(24) %0, i64 %count, i8* nonnull align 1 %fold.0, i64* align 8 dereferenceable(8) %fold.1) unnamed_addr #0 !dbg !1120 {
start:
  %fold.dbg.spill = alloca { i8*, i64* }, align 8
  %count.dbg.spill = alloca i64, align 8
  store i64 %count, i64* %count.dbg.spill, align 8
  call void @llvm.dbg.declare(metadata i64* %count.dbg.spill, metadata !1130, metadata !DIExpression()), !dbg !1134
  %1 = getelementptr inbounds { i8*, i64* }, { i8*, i64* }* %fold.dbg.spill, i32 0, i32 0
  store i8* %fold.0, i8** %1, align 8
  %2 = getelementptr inbounds { i8*, i64* }, { i8*, i64* }* %fold.dbg.spill, i32 0, i32 1
  store i64* %fold.1, i64** %2, align 8
  call void @llvm.dbg.declare(metadata { i8*, i64* }* %fold.dbg.spill, metadata !1131, metadata !DIExpression()), !dbg !1135
  %3 = bitcast %"[closure@<std::iter::Enumerate<I> as std::iter::Iterator>::fold::enumerate<&mut u8, (), [closure@std::iter::Iterator::for_each::call<(usize, &mut u8), [closure@<sha2::digest::generic_array::GenericArray<u8, sha2::digest::typenum::UInt<sha2::digest::typenum::UInt<sha2::digest::typenum::UInt<sha2::digest::typenum::UInt<sha2::digest::typenum::UInt<sha2::digest::typenum::UInt<sha2::digest::typenum::UInt<sha2::digest::typenum::UTerm, sha2::digest::typenum::B1>, sha2::digest::typenum::B0>, sha2::digest::typenum::B0>, sha2::digest::typenum::B0>, sha2::digest::typenum::B0>, sha2::digest::typenum::B0>, sha2::digest::typenum::B0>> as sha2::digest::generic_array::sequence::GenericSequence<u8>>::generate<[closure@sha2::digest::generic_array::impls::<impl std::default::Default for sha2::digest::generic_array::GenericArray<u8, sha2::digest::typenum::UInt<sha2::digest::typenum::UInt<sha2::digest::typenum::UInt<sha2::digest::typenum::UInt<sha2::digest::typenum::UInt<sha2::digest::typenum::UInt<sha2::digest::typenum::UInt<sha2::digest::typenum::UTerm, sha2::digest::typenum::B1>, sha2::digest::typenum::B0>, sha2::digest::typenum::B0>, sha2::digest::typenum::B0>, sha2::digest::typenum::B0>, sha2::digest::typenum::B0>, sha2::digest::typenum::B0>>>::default::{closure#0}]>::{closure#0}]>::{closure#0}]>::{closure#0}]"* %0 to { i8*, i64* }*, !dbg !1136
  %4 = getelementptr inbounds { i8*, i64* }, { i8*, i64* }* %3, i32 0, i32 0, !dbg !1136
  store i8* %fold.0, i8** %4, align 8, !dbg !1136
  %5 = getelementptr inbounds { i8*, i64* }, { i8*, i64* }* %3, i32 0, i32 1, !dbg !1136
  store i64* %fold.1, i64** %5, align 8, !dbg !1136
  %6 = getelementptr inbounds %"[closure@<std::iter::Enumerate<I> as std::iter::Iterator>::fold::enumerate<&mut u8, (), [closure@std::iter::Iterator::for_each::call<(usize, &mut u8), [closure@<sha2::digest::generic_array::GenericArray<u8, sha2::digest::typenum::UInt<sha2::digest::typenum::UInt<sha2::digest::typenum::UInt<sha2::digest::typenum::UInt<sha2::digest::typenum::UInt<sha2::digest::typenum::UInt<sha2::digest::typenum::UInt<sha2::digest::typenum::UTerm, sha2::digest::typenum::B1>, sha2::digest::typenum::B0>, sha2::digest::typenum::B0>, sha2::digest::typenum::B0>, sha2::digest::typenum::B0>, sha2::digest::typenum::B0>, sha2::digest::typenum::B0>> as sha2::digest::generic_array::sequence::GenericSequence<u8>>::generate<[closure@sha2::digest::generic_array::impls::<impl std::default::Default for sha2::digest::generic_array::GenericArray<u8, sha2::digest::typenum::UInt<sha2::digest::typenum::UInt<sha2::digest::typenum::UInt<sha2::digest::typenum::UInt<sha2::digest::typenum::UInt<sha2::digest::typenum::UInt<sha2::digest::typenum::UInt<sha2::digest::typenum::UTerm, sha2::digest::typenum::B1>, sha2::digest::typenum::B0>, sha2::digest::typenum::B0>, sha2::digest::typenum::B0>, sha2::digest::typenum::B0>, sha2::digest::typenum::B0>, sha2::digest::typenum::B0>>>::default::{closure#0}]>::{closure#0}]>::{closure#0}]>::{closure#0}]", %"[closure@<std::iter::Enumerate<I> as std::iter::Iterator>::fold::enumerate<&mut u8, (), [closure@std::iter::Iterator::for_each::call<(usize, &mut u8), [closure@<sha2::digest::generic_array::GenericArray<u8, sha2::digest::typenum::UInt<sha2::digest::typenum::UInt<sha2::digest::typenum::UInt<sha2::digest::typenum::UInt<sha2::digest::typenum::UInt<sha2::digest::typenum::UInt<sha2::digest::typenum::UInt<sha2::digest::typenum::UTerm, sha2::digest::typenum::B1>, sha2::digest::typenum::B0>, sha2::digest::typenum::B0>, sha2::digest::typenum::B0>, sha2::digest::typenum::B0>, sha2::digest::typenum::B0>, sha2::digest::typenum::B0>> as sha2::digest::generic_array::sequence::GenericSequence<u8>>::generate<[closure@sha2::digest::generic_array::impls::<impl std::default::Default for sha2::digest::generic_array::GenericArray<u8, sha2::digest::typenum::UInt<sha2::digest::typenum::UInt<sha2::digest::typenum::UInt<sha2::digest::typenum::UInt<sha2::digest::typenum::UInt<sha2::digest::typenum::UInt<sha2::digest::typenum::UInt<sha2::digest::typenum::UTerm, sha2::digest::typenum::B1>, sha2::digest::typenum::B0>, sha2::digest::typenum::B0>, sha2::digest::typenum::B0>, sha2::digest::typenum::B0>, sha2::digest::typenum::B0>, sha2::digest::typenum::B0>>>::default::{closure#0}]>::{closure#0}]>::{closure#0}]>::{closure#0}]"* %0, i32 0, i32 1, !dbg !1136
  store i64 %count, i64* %6, align 8, !dbg !1136
  ret void, !dbg !1137
}

; <core::iter::adapters::enumerate::Enumerate<I> as core::iter::traits::iterator::Iterator>::fold::enumerate
; Function Attrs: inlinehint nounwind
define void @"_ZN110_$LT$core..iter..adapters..enumerate..Enumerate$LT$I$GT$$u20$as$u20$core..iter..traits..iterator..Iterator$GT$4fold9enumerate17hc671e87a399cd1deE"(%"[closure@<std::iter::Enumerate<I> as std::iter::Iterator>::fold::enumerate<&mut u8, (), [closure@std::iter::Iterator::for_each::call<(usize, &mut u8), [closure@<sha2::digest::generic_array::GenericArray<u8, sha2::digest::typenum::UInt<sha2::digest::typenum::UInt<sha2::digest::typenum::UInt<sha2::digest::typenum::UInt<sha2::digest::typenum::UInt<sha2::digest::typenum::UInt<sha2::digest::typenum::UTerm, sha2::digest::typenum::B1>, sha2::digest::typenum::B0>, sha2::digest::typenum::B0>, sha2::digest::typenum::B0>, sha2::digest::typenum::B0>, sha2::digest::typenum::B0>> as sha2::digest::generic_array::sequence::GenericSequence<u8>>::generate<[closure@sha2::digest::generic_array::impls::<impl std::default::Default for sha2::digest::generic_array::GenericArray<u8, sha2::digest::typenum::UInt<sha2::digest::typenum::UInt<sha2::digest::typenum::UInt<sha2::digest::typenum::UInt<sha2::digest::typenum::UInt<sha2::digest::typenum::UInt<sha2::digest::typenum::UTerm, sha2::digest::typenum::B1>, sha2::digest::typenum::B0>, sha2::digest::typenum::B0>, sha2::digest::typenum::B0>, sha2::digest::typenum::B0>, sha2::digest::typenum::B0>>>::default::{closure#0}]>::{closure#0}]>::{closure#0}]>::{closure#0}]"* noalias nocapture sret(%"[closure@<std::iter::Enumerate<I> as std::iter::Iterator>::fold::enumerate<&mut u8, (), [closure@std::iter::Iterator::for_each::call<(usize, &mut u8), [closure@<sha2::digest::generic_array::GenericArray<u8, sha2::digest::typenum::UInt<sha2::digest::typenum::UInt<sha2::digest::typenum::UInt<sha2::digest::typenum::UInt<sha2::digest::typenum::UInt<sha2::digest::typenum::UInt<sha2::digest::typenum::UTerm, sha2::digest::typenum::B1>, sha2::digest::typenum::B0>, sha2::digest::typenum::B0>, sha2::digest::typenum::B0>, sha2::digest::typenum::B0>, sha2::digest::typenum::B0>> as sha2::digest::generic_array::sequence::GenericSequence<u8>>::generate<[closure@sha2::digest::generic_array::impls::<impl std::default::Default for sha2::digest::generic_array::GenericArray<u8, sha2::digest::typenum::UInt<sha2::digest::typenum::UInt<sha2::digest::typenum::UInt<sha2::digest::typenum::UInt<sha2::digest::typenum::UInt<sha2::digest::typenum::UInt<sha2::digest::typenum::UTerm, sha2::digest::typenum::B1>, sha2::digest::typenum::B0>, sha2::digest::typenum::B0>, sha2::digest::typenum::B0>, sha2::digest::typenum::B0>, sha2::digest::typenum::B0>>>::default::{closure#0}]>::{closure#0}]>::{closure#0}]>::{closure#0}]") dereferenceable(24) %0, i64 %count, i8* nonnull align 1 %fold.0, i64* align 8 dereferenceable(8) %fold.1) unnamed_addr #0 !dbg !1138 {
start:
  %fold.dbg.spill = alloca { i8*, i64* }, align 8
  %count.dbg.spill = alloca i64, align 8
  store i64 %count, i64* %count.dbg.spill, align 8
  call void @llvm.dbg.declare(metadata i64* %count.dbg.spill, metadata !1146, metadata !DIExpression()), !dbg !1150
  %1 = getelementptr inbounds { i8*, i64* }, { i8*, i64* }* %fold.dbg.spill, i32 0, i32 0
  store i8* %fold.0, i8** %1, align 8
  %2 = getelementptr inbounds { i8*, i64* }, { i8*, i64* }* %fold.dbg.spill, i32 0, i32 1
  store i64* %fold.1, i64** %2, align 8
  call void @llvm.dbg.declare(metadata { i8*, i64* }* %fold.dbg.spill, metadata !1147, metadata !DIExpression()), !dbg !1151
  %3 = bitcast %"[closure@<std::iter::Enumerate<I> as std::iter::Iterator>::fold::enumerate<&mut u8, (), [closure@std::iter::Iterator::for_each::call<(usize, &mut u8), [closure@<sha2::digest::generic_array::GenericArray<u8, sha2::digest::typenum::UInt<sha2::digest::typenum::UInt<sha2::digest::typenum::UInt<sha2::digest::typenum::UInt<sha2::digest::typenum::UInt<sha2::digest::typenum::UInt<sha2::digest::typenum::UTerm, sha2::digest::typenum::B1>, sha2::digest::typenum::B0>, sha2::digest::typenum::B0>, sha2::digest::typenum::B0>, sha2::digest::typenum::B0>, sha2::digest::typenum::B0>> as sha2::digest::generic_array::sequence::GenericSequence<u8>>::generate<[closure@sha2::digest::generic_array::impls::<impl std::default::Default for sha2::digest::generic_array::GenericArray<u8, sha2::digest::typenum::UInt<sha2::digest::typenum::UInt<sha2::digest::typenum::UInt<sha2::digest::typenum::UInt<sha2::digest::typenum::UInt<sha2::digest::typenum::UInt<sha2::digest::typenum::UTerm, sha2::digest::typenum::B1>, sha2::digest::typenum::B0>, sha2::digest::typenum::B0>, sha2::digest::typenum::B0>, sha2::digest::typenum::B0>, sha2::digest::typenum::B0>>>::default::{closure#0}]>::{closure#0}]>::{closure#0}]>::{closure#0}]"* %0 to { i8*, i64* }*, !dbg !1152
  %4 = getelementptr inbounds { i8*, i64* }, { i8*, i64* }* %3, i32 0, i32 0, !dbg !1152
  store i8* %fold.0, i8** %4, align 8, !dbg !1152
  %5 = getelementptr inbounds { i8*, i64* }, { i8*, i64* }* %3, i32 0, i32 1, !dbg !1152
  store i64* %fold.1, i64** %5, align 8, !dbg !1152
  %6 = getelementptr inbounds %"[closure@<std::iter::Enumerate<I> as std::iter::Iterator>::fold::enumerate<&mut u8, (), [closure@std::iter::Iterator::for_each::call<(usize, &mut u8), [closure@<sha2::digest::generic_array::GenericArray<u8, sha2::digest::typenum::UInt<sha2::digest::typenum::UInt<sha2::digest::typenum::UInt<sha2::digest::typenum::UInt<sha2::digest::typenum::UInt<sha2::digest::typenum::UInt<sha2::digest::typenum::UTerm, sha2::digest::typenum::B1>, sha2::digest::typenum::B0>, sha2::digest::typenum::B0>, sha2::digest::typenum::B0>, sha2::digest::typenum::B0>, sha2::digest::typenum::B0>> as sha2::digest::generic_array::sequence::GenericSequence<u8>>::generate<[closure@sha2::digest::generic_array::impls::<impl std::default::Default for sha2::digest::generic_array::GenericArray<u8, sha2::digest::typenum::UInt<sha2::digest::typenum::UInt<sha2::digest::typenum::UInt<sha2::digest::typenum::UInt<sha2::digest::typenum::UInt<sha2::digest::typenum::UInt<sha2::digest::typenum::UTerm, sha2::digest::typenum::B1>, sha2::digest::typenum::B0>, sha2::digest::typenum::B0>, sha2::digest::typenum::B0>, sha2::digest::typenum::B0>, sha2::digest::typenum::B0>>>::default::{closure#0}]>::{closure#0}]>::{closure#0}]>::{closure#0}]", %"[closure@<std::iter::Enumerate<I> as std::iter::Iterator>::fold::enumerate<&mut u8, (), [closure@std::iter::Iterator::for_each::call<(usize, &mut u8), [closure@<sha2::digest::generic_array::GenericArray<u8, sha2::digest::typenum::UInt<sha2::digest::typenum::UInt<sha2::digest::typenum::UInt<sha2::digest::typenum::UInt<sha2::digest::typenum::UInt<sha2::digest::typenum::UInt<sha2::digest::typenum::UTerm, sha2::digest::typenum::B1>, sha2::digest::typenum::B0>, sha2::digest::typenum::B0>, sha2::digest::typenum::B0>, sha2::digest::typenum::B0>, sha2::digest::typenum::B0>> as sha2::digest::generic_array::sequence::GenericSequence<u8>>::generate<[closure@sha2::digest::generic_array::impls::<impl std::default::Default for sha2::digest::generic_array::GenericArray<u8, sha2::digest::typenum::UInt<sha2::digest::typenum::UInt<sha2::digest::typenum::UInt<sha2::digest::typenum::UInt<sha2::digest::typenum::UInt<sha2::digest::typenum::UInt<sha2::digest::typenum::UTerm, sha2::digest::typenum::B1>, sha2::digest::typenum::B0>, sha2::digest::typenum::B0>, sha2::digest::typenum::B0>, sha2::digest::typenum::B0>, sha2::digest::typenum::B0>>>::default::{closure#0}]>::{closure#0}]>::{closure#0}]>::{closure#0}]"* %0, i32 0, i32 1, !dbg !1152
  store i64 %count, i64* %6, align 8, !dbg !1152
  ret void, !dbg !1153
}

; <core::iter::adapters::enumerate::Enumerate<I> as core::iter::traits::iterator::Iterator>::fold::enumerate::{{closure}}
; Function Attrs: inlinehint nounwind
define void @"_ZN110_$LT$core..iter..adapters..enumerate..Enumerate$LT$I$GT$$u20$as$u20$core..iter..traits..iterator..Iterator$GT$4fold9enumerate28_$u7b$$u7b$closure$u7d$$u7d$17h72327dfc02c795c3E"(%"[closure@<std::iter::Enumerate<I> as std::iter::Iterator>::fold::enumerate<&mut u8, (), [closure@std::iter::Iterator::for_each::call<(usize, &mut u8), [closure@<sha2::digest::generic_array::GenericArray<u8, sha2::digest::typenum::UInt<sha2::digest::typenum::UInt<sha2::digest::typenum::UInt<sha2::digest::typenum::UInt<sha2::digest::typenum::UInt<sha2::digest::typenum::UInt<sha2::digest::typenum::UInt<sha2::digest::typenum::UTerm, sha2::digest::typenum::B1>, sha2::digest::typenum::B0>, sha2::digest::typenum::B0>, sha2::digest::typenum::B0>, sha2::digest::typenum::B0>, sha2::digest::typenum::B0>, sha2::digest::typenum::B0>> as sha2::digest::generic_array::sequence::GenericSequence<u8>>::generate<[closure@sha2::digest::generic_array::impls::<impl std::default::Default for sha2::digest::generic_array::GenericArray<u8, sha2::digest::typenum::UInt<sha2::digest::typenum::UInt<sha2::digest::typenum::UInt<sha2::digest::typenum::UInt<sha2::digest::typenum::UInt<sha2::digest::typenum::UInt<sha2::digest::typenum::UInt<sha2::digest::typenum::UTerm, sha2::digest::typenum::B1>, sha2::digest::typenum::B0>, sha2::digest::typenum::B0>, sha2::digest::typenum::B0>, sha2::digest::typenum::B0>, sha2::digest::typenum::B0>, sha2::digest::typenum::B0>>>::default::{closure#0}]>::{closure#0}]>::{closure#0}]>::{closure#0}]"* align 8 dereferenceable(24) %_1, i8* align 1 dereferenceable(1) %item) unnamed_addr #0 !dbg !1154 {
start:
  %item.dbg.spill = alloca i8*, align 8
  %acc.dbg.spill1 = alloca {}, align 1
  %_1.dbg.spill = alloca %"[closure@<std::iter::Enumerate<I> as std::iter::Iterator>::fold::enumerate<&mut u8, (), [closure@std::iter::Iterator::for_each::call<(usize, &mut u8), [closure@<sha2::digest::generic_array::GenericArray<u8, sha2::digest::typenum::UInt<sha2::digest::typenum::UInt<sha2::digest::typenum::UInt<sha2::digest::typenum::UInt<sha2::digest::typenum::UInt<sha2::digest::typenum::UInt<sha2::digest::typenum::UInt<sha2::digest::typenum::UTerm, sha2::digest::typenum::B1>, sha2::digest::typenum::B0>, sha2::digest::typenum::B0>, sha2::digest::typenum::B0>, sha2::digest::typenum::B0>, sha2::digest::typenum::B0>, sha2::digest::typenum::B0>> as sha2::digest::generic_array::sequence::GenericSequence<u8>>::generate<[closure@sha2::digest::generic_array::impls::<impl std::default::Default for sha2::digest::generic_array::GenericArray<u8, sha2::digest::typenum::UInt<sha2::digest::typenum::UInt<sha2::digest::typenum::UInt<sha2::digest::typenum::UInt<sha2::digest::typenum::UInt<sha2::digest::typenum::UInt<sha2::digest::typenum::UInt<sha2::digest::typenum::UTerm, sha2::digest::typenum::B1>, sha2::digest::typenum::B0>, sha2::digest::typenum::B0>, sha2::digest::typenum::B0>, sha2::digest::typenum::B0>, sha2::digest::typenum::B0>, sha2::digest::typenum::B0>>>::default::{closure#0}]>::{closure#0}]>::{closure#0}]>::{closure#0}]"*, align 8
  %acc.dbg.spill = alloca {}, align 1
  %_7 = alloca { i64, i8* }, align 8
  %_5 = alloca { i64, i8* }, align 8
  call void @llvm.dbg.declare(metadata {}* %acc.dbg.spill, metadata !1163, metadata !DIExpression()), !dbg !1165
  store %"[closure@<std::iter::Enumerate<I> as std::iter::Iterator>::fold::enumerate<&mut u8, (), [closure@std::iter::Iterator::for_each::call<(usize, &mut u8), [closure@<sha2::digest::generic_array::GenericArray<u8, sha2::digest::typenum::UInt<sha2::digest::typenum::UInt<sha2::digest::typenum::UInt<sha2::digest::typenum::UInt<sha2::digest::typenum::UInt<sha2::digest::typenum::UInt<sha2::digest::typenum::UInt<sha2::digest::typenum::UTerm, sha2::digest::typenum::B1>, sha2::digest::typenum::B0>, sha2::digest::typenum::B0>, sha2::digest::typenum::B0>, sha2::digest::typenum::B0>, sha2::digest::typenum::B0>, sha2::digest::typenum::B0>> as sha2::digest::generic_array::sequence::GenericSequence<u8>>::generate<[closure@sha2::digest::generic_array::impls::<impl std::default::Default for sha2::digest::generic_array::GenericArray<u8, sha2::digest::typenum::UInt<sha2::digest::typenum::UInt<sha2::digest::typenum::UInt<sha2::digest::typenum::UInt<sha2::digest::typenum::UInt<sha2::digest::typenum::UInt<sha2::digest::typenum::UInt<sha2::digest::typenum::UTerm, sha2::digest::typenum::B1>, sha2::digest::typenum::B0>, sha2::digest::typenum::B0>, sha2::digest::typenum::B0>, sha2::digest::typenum::B0>, sha2::digest::typenum::B0>, sha2::digest::typenum::B0>>>::default::{closure#0}]>::{closure#0}]>::{closure#0}]>::{closure#0}]"* %_1, %"[closure@<std::iter::Enumerate<I> as std::iter::Iterator>::fold::enumerate<&mut u8, (), [closure@std::iter::Iterator::for_each::call<(usize, &mut u8), [closure@<sha2::digest::generic_array::GenericArray<u8, sha2::digest::typenum::UInt<sha2::digest::typenum::UInt<sha2::digest::typenum::UInt<sha2::digest::typenum::UInt<sha2::digest::typenum::UInt<sha2::digest::typenum::UInt<sha2::digest::typenum::UInt<sha2::digest::typenum::UTerm, sha2::digest::typenum::B1>, sha2::digest::typenum::B0>, sha2::digest::typenum::B0>, sha2::digest::typenum::B0>, sha2::digest::typenum::B0>, sha2::digest::typenum::B0>, sha2::digest::typenum::B0>> as sha2::digest::generic_array::sequence::GenericSequence<u8>>::generate<[closure@sha2::digest::generic_array::impls::<impl std::default::Default for sha2::digest::generic_array::GenericArray<u8, sha2::digest::typenum::UInt<sha2::digest::typenum::UInt<sha2::digest::typenum::UInt<sha2::digest::typenum::UInt<sha2::digest::typenum::UInt<sha2::digest::typenum::UInt<sha2::digest::typenum::UInt<sha2::digest::typenum::UTerm, sha2::digest::typenum::B1>, sha2::digest::typenum::B0>, sha2::digest::typenum::B0>, sha2::digest::typenum::B0>, sha2::digest::typenum::B0>, sha2::digest::typenum::B0>, sha2::digest::typenum::B0>>>::default::{closure#0}]>::{closure#0}]>::{closure#0}]>::{closure#0}]"** %_1.dbg.spill, align 8
  %0 = load %"[closure@<std::iter::Enumerate<I> as std::iter::Iterator>::fold::enumerate<&mut u8, (), [closure@std::iter::Iterator::for_each::call<(usize, &mut u8), [closure@<sha2::digest::generic_array::GenericArray<u8, sha2::digest::typenum::UInt<sha2::digest::typenum::UInt<sha2::digest::typenum::UInt<sha2::digest::typenum::UInt<sha2::digest::typenum::UInt<sha2::digest::typenum::UInt<sha2::digest::typenum::UInt<sha2::digest::typenum::UTerm, sha2::digest::typenum::B1>, sha2::digest::typenum::B0>, sha2::digest::typenum::B0>, sha2::digest::typenum::B0>, sha2::digest::typenum::B0>, sha2::digest::typenum::B0>, sha2::digest::typenum::B0>> as sha2::digest::generic_array::sequence::GenericSequence<u8>>::generate<[closure@sha2::digest::generic_array::impls::<impl std::default::Default for sha2::digest::generic_array::GenericArray<u8, sha2::digest::typenum::UInt<sha2::digest::typenum::UInt<sha2::digest::typenum::UInt<sha2::digest::typenum::UInt<sha2::digest::typenum::UInt<sha2::digest::typenum::UInt<sha2::digest::typenum::UInt<sha2::digest::typenum::UTerm, sha2::digest::typenum::B1>, sha2::digest::typenum::B0>, sha2::digest::typenum::B0>, sha2::digest::typenum::B0>, sha2::digest::typenum::B0>, sha2::digest::typenum::B0>, sha2::digest::typenum::B0>>>::default::{closure#0}]>::{closure#0}]>::{closure#0}]>::{closure#0}]"*, %"[closure@<std::iter::Enumerate<I> as std::iter::Iterator>::fold::enumerate<&mut u8, (), [closure@std::iter::Iterator::for_each::call<(usize, &mut u8), [closure@<sha2::digest::generic_array::GenericArray<u8, sha2::digest::typenum::UInt<sha2::digest::typenum::UInt<sha2::digest::typenum::UInt<sha2::digest::typenum::UInt<sha2::digest::typenum::UInt<sha2::digest::typenum::UInt<sha2::digest::typenum::UInt<sha2::digest::typenum::UTerm, sha2::digest::typenum::B1>, sha2::digest::typenum::B0>, sha2::digest::typenum::B0>, sha2::digest::typenum::B0>, sha2::digest::typenum::B0>, sha2::digest::typenum::B0>, sha2::digest::typenum::B0>> as sha2::digest::generic_array::sequence::GenericSequence<u8>>::generate<[closure@sha2::digest::generic_array::impls::<impl std::default::Default for sha2::digest::generic_array::GenericArray<u8, sha2::digest::typenum::UInt<sha2::digest::typenum::UInt<sha2::digest::typenum::UInt<sha2::digest::typenum::UInt<sha2::digest::typenum::UInt<sha2::digest::typenum::UInt<sha2::digest::typenum::UInt<sha2::digest::typenum::UTerm, sha2::digest::typenum::B1>, sha2::digest::typenum::B0>, sha2::digest::typenum::B0>, sha2::digest::typenum::B0>, sha2::digest::typenum::B0>, sha2::digest::typenum::B0>, sha2::digest::typenum::B0>>>::default::{closure#0}]>::{closure#0}]>::{closure#0}]>::{closure#0}]"** %_1.dbg.spill, align 8, !nonnull !4
  %1 = bitcast %"[closure@<std::iter::Enumerate<I> as std::iter::Iterator>::fold::enumerate<&mut u8, (), [closure@std::iter::Iterator::for_each::call<(usize, &mut u8), [closure@<sha2::digest::generic_array::GenericArray<u8, sha2::digest::typenum::UInt<sha2::digest::typenum::UInt<sha2::digest::typenum::UInt<sha2::digest::typenum::UInt<sha2::digest::typenum::UInt<sha2::digest::typenum::UInt<sha2::digest::typenum::UInt<sha2::digest::typenum::UTerm, sha2::digest::typenum::B1>, sha2::digest::typenum::B0>, sha2::digest::typenum::B0>, sha2::digest::typenum::B0>, sha2::digest::typenum::B0>, sha2::digest::typenum::B0>, sha2::digest::typenum::B0>> as sha2::digest::generic_array::sequence::GenericSequence<u8>>::generate<[closure@sha2::digest::generic_array::impls::<impl std::default::Default for sha2::digest::generic_array::GenericArray<u8, sha2::digest::typenum::UInt<sha2::digest::typenum::UInt<sha2::digest::typenum::UInt<sha2::digest::typenum::UInt<sha2::digest::typenum::UInt<sha2::digest::typenum::UInt<sha2::digest::typenum::UInt<sha2::digest::typenum::UTerm, sha2::digest::typenum::B1>, sha2::digest::typenum::B0>, sha2::digest::typenum::B0>, sha2::digest::typenum::B0>, sha2::digest::typenum::B0>, sha2::digest::typenum::B0>, sha2::digest::typenum::B0>>>::default::{closure#0}]>::{closure#0}]>::{closure#0}]>::{closure#0}]"* %0 to { i8*, i64* }*
  call void @llvm.dbg.declare(metadata %"[closure@<std::iter::Enumerate<I> as std::iter::Iterator>::fold::enumerate<&mut u8, (), [closure@std::iter::Iterator::for_each::call<(usize, &mut u8), [closure@<sha2::digest::generic_array::GenericArray<u8, sha2::digest::typenum::UInt<sha2::digest::typenum::UInt<sha2::digest::typenum::UInt<sha2::digest::typenum::UInt<sha2::digest::typenum::UInt<sha2::digest::typenum::UInt<sha2::digest::typenum::UInt<sha2::digest::typenum::UTerm, sha2::digest::typenum::B1>, sha2::digest::typenum::B0>, sha2::digest::typenum::B0>, sha2::digest::typenum::B0>, sha2::digest::typenum::B0>, sha2::digest::typenum::B0>, sha2::digest::typenum::B0>> as sha2::digest::generic_array::sequence::GenericSequence<u8>>::generate<[closure@sha2::digest::generic_array::impls::<impl std::default::Default for sha2::digest::generic_array::GenericArray<u8, sha2::digest::typenum::UInt<sha2::digest::typenum::UInt<sha2::digest::typenum::UInt<sha2::digest::typenum::UInt<sha2::digest::typenum::UInt<sha2::digest::typenum::UInt<sha2::digest::typenum::UInt<sha2::digest::typenum::UTerm, sha2::digest::typenum::B1>, sha2::digest::typenum::B0>, sha2::digest::typenum::B0>, sha2::digest::typenum::B0>, sha2::digest::typenum::B0>, sha2::digest::typenum::B0>, sha2::digest::typenum::B0>>>::default::{closure#0}]>::{closure#0}]>::{closure#0}]>::{closure#0}]"** %_1.dbg.spill, metadata !1161, metadata !DIExpression(DW_OP_deref)), !dbg !1166
  %2 = load %"[closure@<std::iter::Enumerate<I> as std::iter::Iterator>::fold::enumerate<&mut u8, (), [closure@std::iter::Iterator::for_each::call<(usize, &mut u8), [closure@<sha2::digest::generic_array::GenericArray<u8, sha2::digest::typenum::UInt<sha2::digest::typenum::UInt<sha2::digest::typenum::UInt<sha2::digest::typenum::UInt<sha2::digest::typenum::UInt<sha2::digest::typenum::UInt<sha2::digest::typenum::UInt<sha2::digest::typenum::UTerm, sha2::digest::typenum::B1>, sha2::digest::typenum::B0>, sha2::digest::typenum::B0>, sha2::digest::typenum::B0>, sha2::digest::typenum::B0>, sha2::digest::typenum::B0>, sha2::digest::typenum::B0>> as sha2::digest::generic_array::sequence::GenericSequence<u8>>::generate<[closure@sha2::digest::generic_array::impls::<impl std::default::Default for sha2::digest::generic_array::GenericArray<u8, sha2::digest::typenum::UInt<sha2::digest::typenum::UInt<sha2::digest::typenum::UInt<sha2::digest::typenum::UInt<sha2::digest::typenum::UInt<sha2::digest::typenum::UInt<sha2::digest::typenum::UInt<sha2::digest::typenum::UTerm, sha2::digest::typenum::B1>, sha2::digest::typenum::B0>, sha2::digest::typenum::B0>, sha2::digest::typenum::B0>, sha2::digest::typenum::B0>, sha2::digest::typenum::B0>, sha2::digest::typenum::B0>>>::default::{closure#0}]>::{closure#0}]>::{closure#0}]>::{closure#0}]"*, %"[closure@<std::iter::Enumerate<I> as std::iter::Iterator>::fold::enumerate<&mut u8, (), [closure@std::iter::Iterator::for_each::call<(usize, &mut u8), [closure@<sha2::digest::generic_array::GenericArray<u8, sha2::digest::typenum::UInt<sha2::digest::typenum::UInt<sha2::digest::typenum::UInt<sha2::digest::typenum::UInt<sha2::digest::typenum::UInt<sha2::digest::typenum::UInt<sha2::digest::typenum::UInt<sha2::digest::typenum::UTerm, sha2::digest::typenum::B1>, sha2::digest::typenum::B0>, sha2::digest::typenum::B0>, sha2::digest::typenum::B0>, sha2::digest::typenum::B0>, sha2::digest::typenum::B0>, sha2::digest::typenum::B0>> as sha2::digest::generic_array::sequence::GenericSequence<u8>>::generate<[closure@sha2::digest::generic_array::impls::<impl std::default::Default for sha2::digest::generic_array::GenericArray<u8, sha2::digest::typenum::UInt<sha2::digest::typenum::UInt<sha2::digest::typenum::UInt<sha2::digest::typenum::UInt<sha2::digest::typenum::UInt<sha2::digest::typenum::UInt<sha2::digest::typenum::UInt<sha2::digest::typenum::UTerm, sha2::digest::typenum::B1>, sha2::digest::typenum::B0>, sha2::digest::typenum::B0>, sha2::digest::typenum::B0>, sha2::digest::typenum::B0>, sha2::digest::typenum::B0>, sha2::digest::typenum::B0>>>::default::{closure#0}]>::{closure#0}]>::{closure#0}]>::{closure#0}]"** %_1.dbg.spill, align 8, !nonnull !4
  %3 = getelementptr inbounds %"[closure@<std::iter::Enumerate<I> as std::iter::Iterator>::fold::enumerate<&mut u8, (), [closure@std::iter::Iterator::for_each::call<(usize, &mut u8), [closure@<sha2::digest::generic_array::GenericArray<u8, sha2::digest::typenum::UInt<sha2::digest::typenum::UInt<sha2::digest::typenum::UInt<sha2::digest::typenum::UInt<sha2::digest::typenum::UInt<sha2::digest::typenum::UInt<sha2::digest::typenum::UInt<sha2::digest::typenum::UTerm, sha2::digest::typenum::B1>, sha2::digest::typenum::B0>, sha2::digest::typenum::B0>, sha2::digest::typenum::B0>, sha2::digest::typenum::B0>, sha2::digest::typenum::B0>, sha2::digest::typenum::B0>> as sha2::digest::generic_array::sequence::GenericSequence<u8>>::generate<[closure@sha2::digest::generic_array::impls::<impl std::default::Default for sha2::digest::generic_array::GenericArray<u8, sha2::digest::typenum::UInt<sha2::digest::typenum::UInt<sha2::digest::typenum::UInt<sha2::digest::typenum::UInt<sha2::digest::typenum::UInt<sha2::digest::typenum::UInt<sha2::digest::typenum::UInt<sha2::digest::typenum::UTerm, sha2::digest::typenum::B1>, sha2::digest::typenum::B0>, sha2::digest::typenum::B0>, sha2::digest::typenum::B0>, sha2::digest::typenum::B0>, sha2::digest::typenum::B0>, sha2::digest::typenum::B0>>>::default::{closure#0}]>::{closure#0}]>::{closure#0}]>::{closure#0}]", %"[closure@<std::iter::Enumerate<I> as std::iter::Iterator>::fold::enumerate<&mut u8, (), [closure@std::iter::Iterator::for_each::call<(usize, &mut u8), [closure@<sha2::digest::generic_array::GenericArray<u8, sha2::digest::typenum::UInt<sha2::digest::typenum::UInt<sha2::digest::typenum::UInt<sha2::digest::typenum::UInt<sha2::digest::typenum::UInt<sha2::digest::typenum::UInt<sha2::digest::typenum::UInt<sha2::digest::typenum::UTerm, sha2::digest::typenum::B1>, sha2::digest::typenum::B0>, sha2::digest::typenum::B0>, sha2::digest::typenum::B0>, sha2::digest::typenum::B0>, sha2::digest::typenum::B0>, sha2::digest::typenum::B0>> as sha2::digest::generic_array::sequence::GenericSequence<u8>>::generate<[closure@sha2::digest::generic_array::impls::<impl std::default::Default for sha2::digest::generic_array::GenericArray<u8, sha2::digest::typenum::UInt<sha2::digest::typenum::UInt<sha2::digest::typenum::UInt<sha2::digest::typenum::UInt<sha2::digest::typenum::UInt<sha2::digest::typenum::UInt<sha2::digest::typenum::UInt<sha2::digest::typenum::UTerm, sha2::digest::typenum::B1>, sha2::digest::typenum::B0>, sha2::digest::typenum::B0>, sha2::digest::typenum::B0>, sha2::digest::typenum::B0>, sha2::digest::typenum::B0>, sha2::digest::typenum::B0>>>::default::{closure#0}]>::{closure#0}]>::{closure#0}]>::{closure#0}]"* %2, i32 0, i32 1
  call void @llvm.dbg.declare(metadata %"[closure@<std::iter::Enumerate<I> as std::iter::Iterator>::fold::enumerate<&mut u8, (), [closure@std::iter::Iterator::for_each::call<(usize, &mut u8), [closure@<sha2::digest::generic_array::GenericArray<u8, sha2::digest::typenum::UInt<sha2::digest::typenum::UInt<sha2::digest::typenum::UInt<sha2::digest::typenum::UInt<sha2::digest::typenum::UInt<sha2::digest::typenum::UInt<sha2::digest::typenum::UInt<sha2::digest::typenum::UTerm, sha2::digest::typenum::B1>, sha2::digest::typenum::B0>, sha2::digest::typenum::B0>, sha2::digest::typenum::B0>, sha2::digest::typenum::B0>, sha2::digest::typenum::B0>, sha2::digest::typenum::B0>> as sha2::digest::generic_array::sequence::GenericSequence<u8>>::generate<[closure@sha2::digest::generic_array::impls::<impl std::default::Default for sha2::digest::generic_array::GenericArray<u8, sha2::digest::typenum::UInt<sha2::digest::typenum::UInt<sha2::digest::typenum::UInt<sha2::digest::typenum::UInt<sha2::digest::typenum::UInt<sha2::digest::typenum::UInt<sha2::digest::typenum::UInt<sha2::digest::typenum::UTerm, sha2::digest::typenum::B1>, sha2::digest::typenum::B0>, sha2::digest::typenum::B0>, sha2::digest::typenum::B0>, sha2::digest::typenum::B0>, sha2::digest::typenum::B0>, sha2::digest::typenum::B0>>>::default::{closure#0}]>::{closure#0}]>::{closure#0}]>::{closure#0}]"** %_1.dbg.spill, metadata !1162, metadata !DIExpression(DW_OP_deref, DW_OP_plus_uconst, 16)), !dbg !1167
  call void @llvm.dbg.declare(metadata {}* %acc.dbg.spill1, metadata !1159, metadata !DIExpression()), !dbg !1168
  store i8* %item, i8** %item.dbg.spill, align 8
  call void @llvm.dbg.declare(metadata i8** %item.dbg.spill, metadata !1160, metadata !DIExpression()), !dbg !1169
  %_4 = bitcast %"[closure@<std::iter::Enumerate<I> as std::iter::Iterator>::fold::enumerate<&mut u8, (), [closure@std::iter::Iterator::for_each::call<(usize, &mut u8), [closure@<sha2::digest::generic_array::GenericArray<u8, sha2::digest::typenum::UInt<sha2::digest::typenum::UInt<sha2::digest::typenum::UInt<sha2::digest::typenum::UInt<sha2::digest::typenum::UInt<sha2::digest::typenum::UInt<sha2::digest::typenum::UInt<sha2::digest::typenum::UTerm, sha2::digest::typenum::B1>, sha2::digest::typenum::B0>, sha2::digest::typenum::B0>, sha2::digest::typenum::B0>, sha2::digest::typenum::B0>, sha2::digest::typenum::B0>, sha2::digest::typenum::B0>> as sha2::digest::generic_array::sequence::GenericSequence<u8>>::generate<[closure@sha2::digest::generic_array::impls::<impl std::default::Default for sha2::digest::generic_array::GenericArray<u8, sha2::digest::typenum::UInt<sha2::digest::typenum::UInt<sha2::digest::typenum::UInt<sha2::digest::typenum::UInt<sha2::digest::typenum::UInt<sha2::digest::typenum::UInt<sha2::digest::typenum::UInt<sha2::digest::typenum::UTerm, sha2::digest::typenum::B1>, sha2::digest::typenum::B0>, sha2::digest::typenum::B0>, sha2::digest::typenum::B0>, sha2::digest::typenum::B0>, sha2::digest::typenum::B0>, sha2::digest::typenum::B0>>>::default::{closure#0}]>::{closure#0}]>::{closure#0}]>::{closure#0}]"* %_1 to { i8*, i64* }*, !dbg !1170
  %4 = getelementptr inbounds %"[closure@<std::iter::Enumerate<I> as std::iter::Iterator>::fold::enumerate<&mut u8, (), [closure@std::iter::Iterator::for_each::call<(usize, &mut u8), [closure@<sha2::digest::generic_array::GenericArray<u8, sha2::digest::typenum::UInt<sha2::digest::typenum::UInt<sha2::digest::typenum::UInt<sha2::digest::typenum::UInt<sha2::digest::typenum::UInt<sha2::digest::typenum::UInt<sha2::digest::typenum::UInt<sha2::digest::typenum::UTerm, sha2::digest::typenum::B1>, sha2::digest::typenum::B0>, sha2::digest::typenum::B0>, sha2::digest::typenum::B0>, sha2::digest::typenum::B0>, sha2::digest::typenum::B0>, sha2::digest::typenum::B0>> as sha2::digest::generic_array::sequence::GenericSequence<u8>>::generate<[closure@sha2::digest::generic_array::impls::<impl std::default::Default for sha2::digest::generic_array::GenericArray<u8, sha2::digest::typenum::UInt<sha2::digest::typenum::UInt<sha2::digest::typenum::UInt<sha2::digest::typenum::UInt<sha2::digest::typenum::UInt<sha2::digest::typenum::UInt<sha2::digest::typenum::UInt<sha2::digest::typenum::UTerm, sha2::digest::typenum::B1>, sha2::digest::typenum::B0>, sha2::digest::typenum::B0>, sha2::digest::typenum::B0>, sha2::digest::typenum::B0>, sha2::digest::typenum::B0>, sha2::digest::typenum::B0>>>::default::{closure#0}]>::{closure#0}]>::{closure#0}]>::{closure#0}]", %"[closure@<std::iter::Enumerate<I> as std::iter::Iterator>::fold::enumerate<&mut u8, (), [closure@std::iter::Iterator::for_each::call<(usize, &mut u8), [closure@<sha2::digest::generic_array::GenericArray<u8, sha2::digest::typenum::UInt<sha2::digest::typenum::UInt<sha2::digest::typenum::UInt<sha2::digest::typenum::UInt<sha2::digest::typenum::UInt<sha2::digest::typenum::UInt<sha2::digest::typenum::UInt<sha2::digest::typenum::UTerm, sha2::digest::typenum::B1>, sha2::digest::typenum::B0>, sha2::digest::typenum::B0>, sha2::digest::typenum::B0>, sha2::digest::typenum::B0>, sha2::digest::typenum::B0>, sha2::digest::typenum::B0>> as sha2::digest::generic_array::sequence::GenericSequence<u8>>::generate<[closure@sha2::digest::generic_array::impls::<impl std::default::Default for sha2::digest::generic_array::GenericArray<u8, sha2::digest::typenum::UInt<sha2::digest::typenum::UInt<sha2::digest::typenum::UInt<sha2::digest::typenum::UInt<sha2::digest::typenum::UInt<sha2::digest::typenum::UInt<sha2::digest::typenum::UInt<sha2::digest::typenum::UTerm, sha2::digest::typenum::B1>, sha2::digest::typenum::B0>, sha2::digest::typenum::B0>, sha2::digest::typenum::B0>, sha2::digest::typenum::B0>, sha2::digest::typenum::B0>, sha2::digest::typenum::B0>>>::default::{closure#0}]>::{closure#0}]>::{closure#0}]>::{closure#0}]"* %_1, i32 0, i32 1, !dbg !1171
  %_8 = load i64, i64* %4, align 8, !dbg !1171
  %5 = bitcast { i64, i8* }* %_7 to i64*, !dbg !1172
  store i64 %_8, i64* %5, align 8, !dbg !1172
  %6 = getelementptr inbounds { i64, i8* }, { i64, i8* }* %_7, i32 0, i32 1, !dbg !1172
  store i8* %item, i8** %6, align 8, !dbg !1172
  %7 = bitcast { i64, i8* }* %_5 to {}*, !dbg !1170
  %8 = getelementptr inbounds { i64, i8* }, { i64, i8* }* %_7, i32 0, i32 0, !dbg !1170
  %9 = load i64, i64* %8, align 8, !dbg !1170
  %10 = getelementptr inbounds { i64, i8* }, { i64, i8* }* %_7, i32 0, i32 1, !dbg !1170
  %11 = load i8*, i8** %10, align 8, !dbg !1170, !nonnull !4
  %12 = getelementptr inbounds { i64, i8* }, { i64, i8* }* %_5, i32 0, i32 0, !dbg !1170
  store i64 %9, i64* %12, align 8, !dbg !1170
  %13 = getelementptr inbounds { i64, i8* }, { i64, i8* }* %_5, i32 0, i32 1, !dbg !1170
  store i8* %11, i8** %13, align 8, !dbg !1170
  %14 = getelementptr inbounds { i64, i8* }, { i64, i8* }* %_5, i32 0, i32 0, !dbg !1170
  %15 = load i64, i64* %14, align 8, !dbg !1170
  %16 = getelementptr inbounds { i64, i8* }, { i64, i8* }* %_5, i32 0, i32 1, !dbg !1170
  %17 = load i8*, i8** %16, align 8, !dbg !1170, !nonnull !4
; call core::iter::traits::iterator::Iterator::for_each::call::{{closure}}
  call void @"_ZN4core4iter6traits8iterator8Iterator8for_each4call28_$u7b$$u7b$closure$u7d$$u7d$17h51edc609ca747f2cE"({ i8*, i64* }* align 8 dereferenceable(16) %_4, i64 %15, i8* align 1 dereferenceable(1) %17), !dbg !1170
  br label %bb1, !dbg !1170

bb1:                                              ; preds = %start
  %18 = getelementptr inbounds %"[closure@<std::iter::Enumerate<I> as std::iter::Iterator>::fold::enumerate<&mut u8, (), [closure@std::iter::Iterator::for_each::call<(usize, &mut u8), [closure@<sha2::digest::generic_array::GenericArray<u8, sha2::digest::typenum::UInt<sha2::digest::typenum::UInt<sha2::digest::typenum::UInt<sha2::digest::typenum::UInt<sha2::digest::typenum::UInt<sha2::digest::typenum::UInt<sha2::digest::typenum::UInt<sha2::digest::typenum::UTerm, sha2::digest::typenum::B1>, sha2::digest::typenum::B0>, sha2::digest::typenum::B0>, sha2::digest::typenum::B0>, sha2::digest::typenum::B0>, sha2::digest::typenum::B0>, sha2::digest::typenum::B0>> as sha2::digest::generic_array::sequence::GenericSequence<u8>>::generate<[closure@sha2::digest::generic_array::impls::<impl std::default::Default for sha2::digest::generic_array::GenericArray<u8, sha2::digest::typenum::UInt<sha2::digest::typenum::UInt<sha2::digest::typenum::UInt<sha2::digest::typenum::UInt<sha2::digest::typenum::UInt<sha2::digest::typenum::UInt<sha2::digest::typenum::UInt<sha2::digest::typenum::UTerm, sha2::digest::typenum::B1>, sha2::digest::typenum::B0>, sha2::digest::typenum::B0>, sha2::digest::typenum::B0>, sha2::digest::typenum::B0>, sha2::digest::typenum::B0>, sha2::digest::typenum::B0>>>::default::{closure#0}]>::{closure#0}]>::{closure#0}]>::{closure#0}]", %"[closure@<std::iter::Enumerate<I> as std::iter::Iterator>::fold::enumerate<&mut u8, (), [closure@std::iter::Iterator::for_each::call<(usize, &mut u8), [closure@<sha2::digest::generic_array::GenericArray<u8, sha2::digest::typenum::UInt<sha2::digest::typenum::UInt<sha2::digest::typenum::UInt<sha2::digest::typenum::UInt<sha2::digest::typenum::UInt<sha2::digest::typenum::UInt<sha2::digest::typenum::UInt<sha2::digest::typenum::UTerm, sha2::digest::typenum::B1>, sha2::digest::typenum::B0>, sha2::digest::typenum::B0>, sha2::digest::typenum::B0>, sha2::digest::typenum::B0>, sha2::digest::typenum::B0>, sha2::digest::typenum::B0>> as sha2::digest::generic_array::sequence::GenericSequence<u8>>::generate<[closure@sha2::digest::generic_array::impls::<impl std::default::Default for sha2::digest::generic_array::GenericArray<u8, sha2::digest::typenum::UInt<sha2::digest::typenum::UInt<sha2::digest::typenum::UInt<sha2::digest::typenum::UInt<sha2::digest::typenum::UInt<sha2::digest::typenum::UInt<sha2::digest::typenum::UInt<sha2::digest::typenum::UTerm, sha2::digest::typenum::B1>, sha2::digest::typenum::B0>, sha2::digest::typenum::B0>, sha2::digest::typenum::B0>, sha2::digest::typenum::B0>, sha2::digest::typenum::B0>, sha2::digest::typenum::B0>>>::default::{closure#0}]>::{closure#0}]>::{closure#0}]>::{closure#0}]"* %_1, i32 0, i32 1, !dbg !1173
  %19 = load i64, i64* %18, align 8, !dbg !1173
  %20 = call { i64, i1 } @llvm.uadd.with.overflow.i64(i64 %19, i64 1), !dbg !1173
  %_10.0 = extractvalue { i64, i1 } %20, 0, !dbg !1173
  %_10.1 = extractvalue { i64, i1 } %20, 1, !dbg !1173
  %21 = call i1 @llvm.expect.i1(i1 %_10.1, i1 false), !dbg !1173
  br i1 %21, label %panic, label %bb2, !dbg !1173

bb2:                                              ; preds = %bb1
  %22 = getelementptr inbounds %"[closure@<std::iter::Enumerate<I> as std::iter::Iterator>::fold::enumerate<&mut u8, (), [closure@std::iter::Iterator::for_each::call<(usize, &mut u8), [closure@<sha2::digest::generic_array::GenericArray<u8, sha2::digest::typenum::UInt<sha2::digest::typenum::UInt<sha2::digest::typenum::UInt<sha2::digest::typenum::UInt<sha2::digest::typenum::UInt<sha2::digest::typenum::UInt<sha2::digest::typenum::UInt<sha2::digest::typenum::UTerm, sha2::digest::typenum::B1>, sha2::digest::typenum::B0>, sha2::digest::typenum::B0>, sha2::digest::typenum::B0>, sha2::digest::typenum::B0>, sha2::digest::typenum::B0>, sha2::digest::typenum::B0>> as sha2::digest::generic_array::sequence::GenericSequence<u8>>::generate<[closure@sha2::digest::generic_array::impls::<impl std::default::Default for sha2::digest::generic_array::GenericArray<u8, sha2::digest::typenum::UInt<sha2::digest::typenum::UInt<sha2::digest::typenum::UInt<sha2::digest::typenum::UInt<sha2::digest::typenum::UInt<sha2::digest::typenum::UInt<sha2::digest::typenum::UInt<sha2::digest::typenum::UTerm, sha2::digest::typenum::B1>, sha2::digest::typenum::B0>, sha2::digest::typenum::B0>, sha2::digest::typenum::B0>, sha2::digest::typenum::B0>, sha2::digest::typenum::B0>, sha2::digest::typenum::B0>>>::default::{closure#0}]>::{closure#0}]>::{closure#0}]>::{closure#0}]", %"[closure@<std::iter::Enumerate<I> as std::iter::Iterator>::fold::enumerate<&mut u8, (), [closure@std::iter::Iterator::for_each::call<(usize, &mut u8), [closure@<sha2::digest::generic_array::GenericArray<u8, sha2::digest::typenum::UInt<sha2::digest::typenum::UInt<sha2::digest::typenum::UInt<sha2::digest::typenum::UInt<sha2::digest::typenum::UInt<sha2::digest::typenum::UInt<sha2::digest::typenum::UInt<sha2::digest::typenum::UTerm, sha2::digest::typenum::B1>, sha2::digest::typenum::B0>, sha2::digest::typenum::B0>, sha2::digest::typenum::B0>, sha2::digest::typenum::B0>, sha2::digest::typenum::B0>, sha2::digest::typenum::B0>> as sha2::digest::generic_array::sequence::GenericSequence<u8>>::generate<[closure@sha2::digest::generic_array::impls::<impl std::default::Default for sha2::digest::generic_array::GenericArray<u8, sha2::digest::typenum::UInt<sha2::digest::typenum::UInt<sha2::digest::typenum::UInt<sha2::digest::typenum::UInt<sha2::digest::typenum::UInt<sha2::digest::typenum::UInt<sha2::digest::typenum::UInt<sha2::digest::typenum::UTerm, sha2::digest::typenum::B1>, sha2::digest::typenum::B0>, sha2::digest::typenum::B0>, sha2::digest::typenum::B0>, sha2::digest::typenum::B0>, sha2::digest::typenum::B0>, sha2::digest::typenum::B0>>>::default::{closure#0}]>::{closure#0}]>::{closure#0}]>::{closure#0}]"* %_1, i32 0, i32 1, !dbg !1173
  store i64 %_10.0, i64* %22, align 8, !dbg !1173
  ret void, !dbg !1174

panic:                                            ; preds = %bb1
; call core::panicking::panic
  call void @_ZN4core9panicking5panic17h560e3e4b7752857aE([0 x i8]* nonnull align 1 bitcast ([28 x i8]* @str.1 to [0 x i8]*), i64 28, %"std::panic::Location"* align 8 dereferenceable(24) bitcast (<{ i8*, [16 x i8] }>* @alloc694 to %"std::panic::Location"*)), !dbg !1173
  unreachable, !dbg !1173
}

; <core::iter::adapters::enumerate::Enumerate<I> as core::iter::traits::iterator::Iterator>::fold::enumerate::{{closure}}
; Function Attrs: inlinehint nounwind
define void @"_ZN110_$LT$core..iter..adapters..enumerate..Enumerate$LT$I$GT$$u20$as$u20$core..iter..traits..iterator..Iterator$GT$4fold9enumerate28_$u7b$$u7b$closure$u7d$$u7d$17hb00bba440dfebafbE"(%"[closure@<std::iter::Enumerate<I> as std::iter::Iterator>::fold::enumerate<&mut u8, (), [closure@std::iter::Iterator::for_each::call<(usize, &mut u8), [closure@<sha2::digest::generic_array::GenericArray<u8, sha2::digest::typenum::UInt<sha2::digest::typenum::UInt<sha2::digest::typenum::UInt<sha2::digest::typenum::UInt<sha2::digest::typenum::UInt<sha2::digest::typenum::UInt<sha2::digest::typenum::UTerm, sha2::digest::typenum::B1>, sha2::digest::typenum::B0>, sha2::digest::typenum::B0>, sha2::digest::typenum::B0>, sha2::digest::typenum::B0>, sha2::digest::typenum::B0>> as sha2::digest::generic_array::sequence::GenericSequence<u8>>::generate<[closure@sha2::digest::generic_array::impls::<impl std::default::Default for sha2::digest::generic_array::GenericArray<u8, sha2::digest::typenum::UInt<sha2::digest::typenum::UInt<sha2::digest::typenum::UInt<sha2::digest::typenum::UInt<sha2::digest::typenum::UInt<sha2::digest::typenum::UInt<sha2::digest::typenum::UTerm, sha2::digest::typenum::B1>, sha2::digest::typenum::B0>, sha2::digest::typenum::B0>, sha2::digest::typenum::B0>, sha2::digest::typenum::B0>, sha2::digest::typenum::B0>>>::default::{closure#0}]>::{closure#0}]>::{closure#0}]>::{closure#0}]"* align 8 dereferenceable(24) %_1, i8* align 1 dereferenceable(1) %item) unnamed_addr #0 !dbg !1175 {
start:
  %item.dbg.spill = alloca i8*, align 8
  %acc.dbg.spill1 = alloca {}, align 1
  %_1.dbg.spill = alloca %"[closure@<std::iter::Enumerate<I> as std::iter::Iterator>::fold::enumerate<&mut u8, (), [closure@std::iter::Iterator::for_each::call<(usize, &mut u8), [closure@<sha2::digest::generic_array::GenericArray<u8, sha2::digest::typenum::UInt<sha2::digest::typenum::UInt<sha2::digest::typenum::UInt<sha2::digest::typenum::UInt<sha2::digest::typenum::UInt<sha2::digest::typenum::UInt<sha2::digest::typenum::UTerm, sha2::digest::typenum::B1>, sha2::digest::typenum::B0>, sha2::digest::typenum::B0>, sha2::digest::typenum::B0>, sha2::digest::typenum::B0>, sha2::digest::typenum::B0>> as sha2::digest::generic_array::sequence::GenericSequence<u8>>::generate<[closure@sha2::digest::generic_array::impls::<impl std::default::Default for sha2::digest::generic_array::GenericArray<u8, sha2::digest::typenum::UInt<sha2::digest::typenum::UInt<sha2::digest::typenum::UInt<sha2::digest::typenum::UInt<sha2::digest::typenum::UInt<sha2::digest::typenum::UInt<sha2::digest::typenum::UTerm, sha2::digest::typenum::B1>, sha2::digest::typenum::B0>, sha2::digest::typenum::B0>, sha2::digest::typenum::B0>, sha2::digest::typenum::B0>, sha2::digest::typenum::B0>>>::default::{closure#0}]>::{closure#0}]>::{closure#0}]>::{closure#0}]"*, align 8
  %acc.dbg.spill = alloca {}, align 1
  %_7 = alloca { i64, i8* }, align 8
  %_5 = alloca { i64, i8* }, align 8
  call void @llvm.dbg.declare(metadata {}* %acc.dbg.spill, metadata !1184, metadata !DIExpression()), !dbg !1186
  store %"[closure@<std::iter::Enumerate<I> as std::iter::Iterator>::fold::enumerate<&mut u8, (), [closure@std::iter::Iterator::for_each::call<(usize, &mut u8), [closure@<sha2::digest::generic_array::GenericArray<u8, sha2::digest::typenum::UInt<sha2::digest::typenum::UInt<sha2::digest::typenum::UInt<sha2::digest::typenum::UInt<sha2::digest::typenum::UInt<sha2::digest::typenum::UInt<sha2::digest::typenum::UTerm, sha2::digest::typenum::B1>, sha2::digest::typenum::B0>, sha2::digest::typenum::B0>, sha2::digest::typenum::B0>, sha2::digest::typenum::B0>, sha2::digest::typenum::B0>> as sha2::digest::generic_array::sequence::GenericSequence<u8>>::generate<[closure@sha2::digest::generic_array::impls::<impl std::default::Default for sha2::digest::generic_array::GenericArray<u8, sha2::digest::typenum::UInt<sha2::digest::typenum::UInt<sha2::digest::typenum::UInt<sha2::digest::typenum::UInt<sha2::digest::typenum::UInt<sha2::digest::typenum::UInt<sha2::digest::typenum::UTerm, sha2::digest::typenum::B1>, sha2::digest::typenum::B0>, sha2::digest::typenum::B0>, sha2::digest::typenum::B0>, sha2::digest::typenum::B0>, sha2::digest::typenum::B0>>>::default::{closure#0}]>::{closure#0}]>::{closure#0}]>::{closure#0}]"* %_1, %"[closure@<std::iter::Enumerate<I> as std::iter::Iterator>::fold::enumerate<&mut u8, (), [closure@std::iter::Iterator::for_each::call<(usize, &mut u8), [closure@<sha2::digest::generic_array::GenericArray<u8, sha2::digest::typenum::UInt<sha2::digest::typenum::UInt<sha2::digest::typenum::UInt<sha2::digest::typenum::UInt<sha2::digest::typenum::UInt<sha2::digest::typenum::UInt<sha2::digest::typenum::UTerm, sha2::digest::typenum::B1>, sha2::digest::typenum::B0>, sha2::digest::typenum::B0>, sha2::digest::typenum::B0>, sha2::digest::typenum::B0>, sha2::digest::typenum::B0>> as sha2::digest::generic_array::sequence::GenericSequence<u8>>::generate<[closure@sha2::digest::generic_array::impls::<impl std::default::Default for sha2::digest::generic_array::GenericArray<u8, sha2::digest::typenum::UInt<sha2::digest::typenum::UInt<sha2::digest::typenum::UInt<sha2::digest::typenum::UInt<sha2::digest::typenum::UInt<sha2::digest::typenum::UInt<sha2::digest::typenum::UTerm, sha2::digest::typenum::B1>, sha2::digest::typenum::B0>, sha2::digest::typenum::B0>, sha2::digest::typenum::B0>, sha2::digest::typenum::B0>, sha2::digest::typenum::B0>>>::default::{closure#0}]>::{closure#0}]>::{closure#0}]>::{closure#0}]"** %_1.dbg.spill, align 8
  %0 = load %"[closure@<std::iter::Enumerate<I> as std::iter::Iterator>::fold::enumerate<&mut u8, (), [closure@std::iter::Iterator::for_each::call<(usize, &mut u8), [closure@<sha2::digest::generic_array::GenericArray<u8, sha2::digest::typenum::UInt<sha2::digest::typenum::UInt<sha2::digest::typenum::UInt<sha2::digest::typenum::UInt<sha2::digest::typenum::UInt<sha2::digest::typenum::UInt<sha2::digest::typenum::UTerm, sha2::digest::typenum::B1>, sha2::digest::typenum::B0>, sha2::digest::typenum::B0>, sha2::digest::typenum::B0>, sha2::digest::typenum::B0>, sha2::digest::typenum::B0>> as sha2::digest::generic_array::sequence::GenericSequence<u8>>::generate<[closure@sha2::digest::generic_array::impls::<impl std::default::Default for sha2::digest::generic_array::GenericArray<u8, sha2::digest::typenum::UInt<sha2::digest::typenum::UInt<sha2::digest::typenum::UInt<sha2::digest::typenum::UInt<sha2::digest::typenum::UInt<sha2::digest::typenum::UInt<sha2::digest::typenum::UTerm, sha2::digest::typenum::B1>, sha2::digest::typenum::B0>, sha2::digest::typenum::B0>, sha2::digest::typenum::B0>, sha2::digest::typenum::B0>, sha2::digest::typenum::B0>>>::default::{closure#0}]>::{closure#0}]>::{closure#0}]>::{closure#0}]"*, %"[closure@<std::iter::Enumerate<I> as std::iter::Iterator>::fold::enumerate<&mut u8, (), [closure@std::iter::Iterator::for_each::call<(usize, &mut u8), [closure@<sha2::digest::generic_array::GenericArray<u8, sha2::digest::typenum::UInt<sha2::digest::typenum::UInt<sha2::digest::typenum::UInt<sha2::digest::typenum::UInt<sha2::digest::typenum::UInt<sha2::digest::typenum::UInt<sha2::digest::typenum::UTerm, sha2::digest::typenum::B1>, sha2::digest::typenum::B0>, sha2::digest::typenum::B0>, sha2::digest::typenum::B0>, sha2::digest::typenum::B0>, sha2::digest::typenum::B0>> as sha2::digest::generic_array::sequence::GenericSequence<u8>>::generate<[closure@sha2::digest::generic_array::impls::<impl std::default::Default for sha2::digest::generic_array::GenericArray<u8, sha2::digest::typenum::UInt<sha2::digest::typenum::UInt<sha2::digest::typenum::UInt<sha2::digest::typenum::UInt<sha2::digest::typenum::UInt<sha2::digest::typenum::UInt<sha2::digest::typenum::UTerm, sha2::digest::typenum::B1>, sha2::digest::typenum::B0>, sha2::digest::typenum::B0>, sha2::digest::typenum::B0>, sha2::digest::typenum::B0>, sha2::digest::typenum::B0>>>::default::{closure#0}]>::{closure#0}]>::{closure#0}]>::{closure#0}]"** %_1.dbg.spill, align 8, !nonnull !4
  %1 = bitcast %"[closure@<std::iter::Enumerate<I> as std::iter::Iterator>::fold::enumerate<&mut u8, (), [closure@std::iter::Iterator::for_each::call<(usize, &mut u8), [closure@<sha2::digest::generic_array::GenericArray<u8, sha2::digest::typenum::UInt<sha2::digest::typenum::UInt<sha2::digest::typenum::UInt<sha2::digest::typenum::UInt<sha2::digest::typenum::UInt<sha2::digest::typenum::UInt<sha2::digest::typenum::UTerm, sha2::digest::typenum::B1>, sha2::digest::typenum::B0>, sha2::digest::typenum::B0>, sha2::digest::typenum::B0>, sha2::digest::typenum::B0>, sha2::digest::typenum::B0>> as sha2::digest::generic_array::sequence::GenericSequence<u8>>::generate<[closure@sha2::digest::generic_array::impls::<impl std::default::Default for sha2::digest::generic_array::GenericArray<u8, sha2::digest::typenum::UInt<sha2::digest::typenum::UInt<sha2::digest::typenum::UInt<sha2::digest::typenum::UInt<sha2::digest::typenum::UInt<sha2::digest::typenum::UInt<sha2::digest::typenum::UTerm, sha2::digest::typenum::B1>, sha2::digest::typenum::B0>, sha2::digest::typenum::B0>, sha2::digest::typenum::B0>, sha2::digest::typenum::B0>, sha2::digest::typenum::B0>>>::default::{closure#0}]>::{closure#0}]>::{closure#0}]>::{closure#0}]"* %0 to { i8*, i64* }*
  call void @llvm.dbg.declare(metadata %"[closure@<std::iter::Enumerate<I> as std::iter::Iterator>::fold::enumerate<&mut u8, (), [closure@std::iter::Iterator::for_each::call<(usize, &mut u8), [closure@<sha2::digest::generic_array::GenericArray<u8, sha2::digest::typenum::UInt<sha2::digest::typenum::UInt<sha2::digest::typenum::UInt<sha2::digest::typenum::UInt<sha2::digest::typenum::UInt<sha2::digest::typenum::UInt<sha2::digest::typenum::UTerm, sha2::digest::typenum::B1>, sha2::digest::typenum::B0>, sha2::digest::typenum::B0>, sha2::digest::typenum::B0>, sha2::digest::typenum::B0>, sha2::digest::typenum::B0>> as sha2::digest::generic_array::sequence::GenericSequence<u8>>::generate<[closure@sha2::digest::generic_array::impls::<impl std::default::Default for sha2::digest::generic_array::GenericArray<u8, sha2::digest::typenum::UInt<sha2::digest::typenum::UInt<sha2::digest::typenum::UInt<sha2::digest::typenum::UInt<sha2::digest::typenum::UInt<sha2::digest::typenum::UInt<sha2::digest::typenum::UTerm, sha2::digest::typenum::B1>, sha2::digest::typenum::B0>, sha2::digest::typenum::B0>, sha2::digest::typenum::B0>, sha2::digest::typenum::B0>, sha2::digest::typenum::B0>>>::default::{closure#0}]>::{closure#0}]>::{closure#0}]>::{closure#0}]"** %_1.dbg.spill, metadata !1182, metadata !DIExpression(DW_OP_deref)), !dbg !1187
  %2 = load %"[closure@<std::iter::Enumerate<I> as std::iter::Iterator>::fold::enumerate<&mut u8, (), [closure@std::iter::Iterator::for_each::call<(usize, &mut u8), [closure@<sha2::digest::generic_array::GenericArray<u8, sha2::digest::typenum::UInt<sha2::digest::typenum::UInt<sha2::digest::typenum::UInt<sha2::digest::typenum::UInt<sha2::digest::typenum::UInt<sha2::digest::typenum::UInt<sha2::digest::typenum::UTerm, sha2::digest::typenum::B1>, sha2::digest::typenum::B0>, sha2::digest::typenum::B0>, sha2::digest::typenum::B0>, sha2::digest::typenum::B0>, sha2::digest::typenum::B0>> as sha2::digest::generic_array::sequence::GenericSequence<u8>>::generate<[closure@sha2::digest::generic_array::impls::<impl std::default::Default for sha2::digest::generic_array::GenericArray<u8, sha2::digest::typenum::UInt<sha2::digest::typenum::UInt<sha2::digest::typenum::UInt<sha2::digest::typenum::UInt<sha2::digest::typenum::UInt<sha2::digest::typenum::UInt<sha2::digest::typenum::UTerm, sha2::digest::typenum::B1>, sha2::digest::typenum::B0>, sha2::digest::typenum::B0>, sha2::digest::typenum::B0>, sha2::digest::typenum::B0>, sha2::digest::typenum::B0>>>::default::{closure#0}]>::{closure#0}]>::{closure#0}]>::{closure#0}]"*, %"[closure@<std::iter::Enumerate<I> as std::iter::Iterator>::fold::enumerate<&mut u8, (), [closure@std::iter::Iterator::for_each::call<(usize, &mut u8), [closure@<sha2::digest::generic_array::GenericArray<u8, sha2::digest::typenum::UInt<sha2::digest::typenum::UInt<sha2::digest::typenum::UInt<sha2::digest::typenum::UInt<sha2::digest::typenum::UInt<sha2::digest::typenum::UInt<sha2::digest::typenum::UTerm, sha2::digest::typenum::B1>, sha2::digest::typenum::B0>, sha2::digest::typenum::B0>, sha2::digest::typenum::B0>, sha2::digest::typenum::B0>, sha2::digest::typenum::B0>> as sha2::digest::generic_array::sequence::GenericSequence<u8>>::generate<[closure@sha2::digest::generic_array::impls::<impl std::default::Default for sha2::digest::generic_array::GenericArray<u8, sha2::digest::typenum::UInt<sha2::digest::typenum::UInt<sha2::digest::typenum::UInt<sha2::digest::typenum::UInt<sha2::digest::typenum::UInt<sha2::digest::typenum::UInt<sha2::digest::typenum::UTerm, sha2::digest::typenum::B1>, sha2::digest::typenum::B0>, sha2::digest::typenum::B0>, sha2::digest::typenum::B0>, sha2::digest::typenum::B0>, sha2::digest::typenum::B0>>>::default::{closure#0}]>::{closure#0}]>::{closure#0}]>::{closure#0}]"** %_1.dbg.spill, align 8, !nonnull !4
  %3 = getelementptr inbounds %"[closure@<std::iter::Enumerate<I> as std::iter::Iterator>::fold::enumerate<&mut u8, (), [closure@std::iter::Iterator::for_each::call<(usize, &mut u8), [closure@<sha2::digest::generic_array::GenericArray<u8, sha2::digest::typenum::UInt<sha2::digest::typenum::UInt<sha2::digest::typenum::UInt<sha2::digest::typenum::UInt<sha2::digest::typenum::UInt<sha2::digest::typenum::UInt<sha2::digest::typenum::UTerm, sha2::digest::typenum::B1>, sha2::digest::typenum::B0>, sha2::digest::typenum::B0>, sha2::digest::typenum::B0>, sha2::digest::typenum::B0>, sha2::digest::typenum::B0>> as sha2::digest::generic_array::sequence::GenericSequence<u8>>::generate<[closure@sha2::digest::generic_array::impls::<impl std::default::Default for sha2::digest::generic_array::GenericArray<u8, sha2::digest::typenum::UInt<sha2::digest::typenum::UInt<sha2::digest::typenum::UInt<sha2::digest::typenum::UInt<sha2::digest::typenum::UInt<sha2::digest::typenum::UInt<sha2::digest::typenum::UTerm, sha2::digest::typenum::B1>, sha2::digest::typenum::B0>, sha2::digest::typenum::B0>, sha2::digest::typenum::B0>, sha2::digest::typenum::B0>, sha2::digest::typenum::B0>>>::default::{closure#0}]>::{closure#0}]>::{closure#0}]>::{closure#0}]", %"[closure@<std::iter::Enumerate<I> as std::iter::Iterator>::fold::enumerate<&mut u8, (), [closure@std::iter::Iterator::for_each::call<(usize, &mut u8), [closure@<sha2::digest::generic_array::GenericArray<u8, sha2::digest::typenum::UInt<sha2::digest::typenum::UInt<sha2::digest::typenum::UInt<sha2::digest::typenum::UInt<sha2::digest::typenum::UInt<sha2::digest::typenum::UInt<sha2::digest::typenum::UTerm, sha2::digest::typenum::B1>, sha2::digest::typenum::B0>, sha2::digest::typenum::B0>, sha2::digest::typenum::B0>, sha2::digest::typenum::B0>, sha2::digest::typenum::B0>> as sha2::digest::generic_array::sequence::GenericSequence<u8>>::generate<[closure@sha2::digest::generic_array::impls::<impl std::default::Default for sha2::digest::generic_array::GenericArray<u8, sha2::digest::typenum::UInt<sha2::digest::typenum::UInt<sha2::digest::typenum::UInt<sha2::digest::typenum::UInt<sha2::digest::typenum::UInt<sha2::digest::typenum::UInt<sha2::digest::typenum::UTerm, sha2::digest::typenum::B1>, sha2::digest::typenum::B0>, sha2::digest::typenum::B0>, sha2::digest::typenum::B0>, sha2::digest::typenum::B0>, sha2::digest::typenum::B0>>>::default::{closure#0}]>::{closure#0}]>::{closure#0}]>::{closure#0}]"* %2, i32 0, i32 1
  call void @llvm.dbg.declare(metadata %"[closure@<std::iter::Enumerate<I> as std::iter::Iterator>::fold::enumerate<&mut u8, (), [closure@std::iter::Iterator::for_each::call<(usize, &mut u8), [closure@<sha2::digest::generic_array::GenericArray<u8, sha2::digest::typenum::UInt<sha2::digest::typenum::UInt<sha2::digest::typenum::UInt<sha2::digest::typenum::UInt<sha2::digest::typenum::UInt<sha2::digest::typenum::UInt<sha2::digest::typenum::UTerm, sha2::digest::typenum::B1>, sha2::digest::typenum::B0>, sha2::digest::typenum::B0>, sha2::digest::typenum::B0>, sha2::digest::typenum::B0>, sha2::digest::typenum::B0>> as sha2::digest::generic_array::sequence::GenericSequence<u8>>::generate<[closure@sha2::digest::generic_array::impls::<impl std::default::Default for sha2::digest::generic_array::GenericArray<u8, sha2::digest::typenum::UInt<sha2::digest::typenum::UInt<sha2::digest::typenum::UInt<sha2::digest::typenum::UInt<sha2::digest::typenum::UInt<sha2::digest::typenum::UInt<sha2::digest::typenum::UTerm, sha2::digest::typenum::B1>, sha2::digest::typenum::B0>, sha2::digest::typenum::B0>, sha2::digest::typenum::B0>, sha2::digest::typenum::B0>, sha2::digest::typenum::B0>>>::default::{closure#0}]>::{closure#0}]>::{closure#0}]>::{closure#0}]"** %_1.dbg.spill, metadata !1183, metadata !DIExpression(DW_OP_deref, DW_OP_plus_uconst, 16)), !dbg !1188
  call void @llvm.dbg.declare(metadata {}* %acc.dbg.spill1, metadata !1180, metadata !DIExpression()), !dbg !1189
  store i8* %item, i8** %item.dbg.spill, align 8
  call void @llvm.dbg.declare(metadata i8** %item.dbg.spill, metadata !1181, metadata !DIExpression()), !dbg !1190
  %_4 = bitcast %"[closure@<std::iter::Enumerate<I> as std::iter::Iterator>::fold::enumerate<&mut u8, (), [closure@std::iter::Iterator::for_each::call<(usize, &mut u8), [closure@<sha2::digest::generic_array::GenericArray<u8, sha2::digest::typenum::UInt<sha2::digest::typenum::UInt<sha2::digest::typenum::UInt<sha2::digest::typenum::UInt<sha2::digest::typenum::UInt<sha2::digest::typenum::UInt<sha2::digest::typenum::UTerm, sha2::digest::typenum::B1>, sha2::digest::typenum::B0>, sha2::digest::typenum::B0>, sha2::digest::typenum::B0>, sha2::digest::typenum::B0>, sha2::digest::typenum::B0>> as sha2::digest::generic_array::sequence::GenericSequence<u8>>::generate<[closure@sha2::digest::generic_array::impls::<impl std::default::Default for sha2::digest::generic_array::GenericArray<u8, sha2::digest::typenum::UInt<sha2::digest::typenum::UInt<sha2::digest::typenum::UInt<sha2::digest::typenum::UInt<sha2::digest::typenum::UInt<sha2::digest::typenum::UInt<sha2::digest::typenum::UTerm, sha2::digest::typenum::B1>, sha2::digest::typenum::B0>, sha2::digest::typenum::B0>, sha2::digest::typenum::B0>, sha2::digest::typenum::B0>, sha2::digest::typenum::B0>>>::default::{closure#0}]>::{closure#0}]>::{closure#0}]>::{closure#0}]"* %_1 to { i8*, i64* }*, !dbg !1191
  %4 = getelementptr inbounds %"[closure@<std::iter::Enumerate<I> as std::iter::Iterator>::fold::enumerate<&mut u8, (), [closure@std::iter::Iterator::for_each::call<(usize, &mut u8), [closure@<sha2::digest::generic_array::GenericArray<u8, sha2::digest::typenum::UInt<sha2::digest::typenum::UInt<sha2::digest::typenum::UInt<sha2::digest::typenum::UInt<sha2::digest::typenum::UInt<sha2::digest::typenum::UInt<sha2::digest::typenum::UTerm, sha2::digest::typenum::B1>, sha2::digest::typenum::B0>, sha2::digest::typenum::B0>, sha2::digest::typenum::B0>, sha2::digest::typenum::B0>, sha2::digest::typenum::B0>> as sha2::digest::generic_array::sequence::GenericSequence<u8>>::generate<[closure@sha2::digest::generic_array::impls::<impl std::default::Default for sha2::digest::generic_array::GenericArray<u8, sha2::digest::typenum::UInt<sha2::digest::typenum::UInt<sha2::digest::typenum::UInt<sha2::digest::typenum::UInt<sha2::digest::typenum::UInt<sha2::digest::typenum::UInt<sha2::digest::typenum::UTerm, sha2::digest::typenum::B1>, sha2::digest::typenum::B0>, sha2::digest::typenum::B0>, sha2::digest::typenum::B0>, sha2::digest::typenum::B0>, sha2::digest::typenum::B0>>>::default::{closure#0}]>::{closure#0}]>::{closure#0}]>::{closure#0}]", %"[closure@<std::iter::Enumerate<I> as std::iter::Iterator>::fold::enumerate<&mut u8, (), [closure@std::iter::Iterator::for_each::call<(usize, &mut u8), [closure@<sha2::digest::generic_array::GenericArray<u8, sha2::digest::typenum::UInt<sha2::digest::typenum::UInt<sha2::digest::typenum::UInt<sha2::digest::typenum::UInt<sha2::digest::typenum::UInt<sha2::digest::typenum::UInt<sha2::digest::typenum::UTerm, sha2::digest::typenum::B1>, sha2::digest::typenum::B0>, sha2::digest::typenum::B0>, sha2::digest::typenum::B0>, sha2::digest::typenum::B0>, sha2::digest::typenum::B0>> as sha2::digest::generic_array::sequence::GenericSequence<u8>>::generate<[closure@sha2::digest::generic_array::impls::<impl std::default::Default for sha2::digest::generic_array::GenericArray<u8, sha2::digest::typenum::UInt<sha2::digest::typenum::UInt<sha2::digest::typenum::UInt<sha2::digest::typenum::UInt<sha2::digest::typenum::UInt<sha2::digest::typenum::UInt<sha2::digest::typenum::UTerm, sha2::digest::typenum::B1>, sha2::digest::typenum::B0>, sha2::digest::typenum::B0>, sha2::digest::typenum::B0>, sha2::digest::typenum::B0>, sha2::digest::typenum::B0>>>::default::{closure#0}]>::{closure#0}]>::{closure#0}]>::{closure#0}]"* %_1, i32 0, i32 1, !dbg !1192
  %_8 = load i64, i64* %4, align 8, !dbg !1192
  %5 = bitcast { i64, i8* }* %_7 to i64*, !dbg !1193
  store i64 %_8, i64* %5, align 8, !dbg !1193
  %6 = getelementptr inbounds { i64, i8* }, { i64, i8* }* %_7, i32 0, i32 1, !dbg !1193
  store i8* %item, i8** %6, align 8, !dbg !1193
  %7 = bitcast { i64, i8* }* %_5 to {}*, !dbg !1191
  %8 = getelementptr inbounds { i64, i8* }, { i64, i8* }* %_7, i32 0, i32 0, !dbg !1191
  %9 = load i64, i64* %8, align 8, !dbg !1191
  %10 = getelementptr inbounds { i64, i8* }, { i64, i8* }* %_7, i32 0, i32 1, !dbg !1191
  %11 = load i8*, i8** %10, align 8, !dbg !1191, !nonnull !4
  %12 = getelementptr inbounds { i64, i8* }, { i64, i8* }* %_5, i32 0, i32 0, !dbg !1191
  store i64 %9, i64* %12, align 8, !dbg !1191
  %13 = getelementptr inbounds { i64, i8* }, { i64, i8* }* %_5, i32 0, i32 1, !dbg !1191
  store i8* %11, i8** %13, align 8, !dbg !1191
  %14 = getelementptr inbounds { i64, i8* }, { i64, i8* }* %_5, i32 0, i32 0, !dbg !1191
  %15 = load i64, i64* %14, align 8, !dbg !1191
  %16 = getelementptr inbounds { i64, i8* }, { i64, i8* }* %_5, i32 0, i32 1, !dbg !1191
  %17 = load i8*, i8** %16, align 8, !dbg !1191, !nonnull !4
; call core::iter::traits::iterator::Iterator::for_each::call::{{closure}}
  call void @"_ZN4core4iter6traits8iterator8Iterator8for_each4call28_$u7b$$u7b$closure$u7d$$u7d$17hbae1e60b0d3c9019E"({ i8*, i64* }* align 8 dereferenceable(16) %_4, i64 %15, i8* align 1 dereferenceable(1) %17), !dbg !1191
  br label %bb1, !dbg !1191

bb1:                                              ; preds = %start
  %18 = getelementptr inbounds %"[closure@<std::iter::Enumerate<I> as std::iter::Iterator>::fold::enumerate<&mut u8, (), [closure@std::iter::Iterator::for_each::call<(usize, &mut u8), [closure@<sha2::digest::generic_array::GenericArray<u8, sha2::digest::typenum::UInt<sha2::digest::typenum::UInt<sha2::digest::typenum::UInt<sha2::digest::typenum::UInt<sha2::digest::typenum::UInt<sha2::digest::typenum::UInt<sha2::digest::typenum::UTerm, sha2::digest::typenum::B1>, sha2::digest::typenum::B0>, sha2::digest::typenum::B0>, sha2::digest::typenum::B0>, sha2::digest::typenum::B0>, sha2::digest::typenum::B0>> as sha2::digest::generic_array::sequence::GenericSequence<u8>>::generate<[closure@sha2::digest::generic_array::impls::<impl std::default::Default for sha2::digest::generic_array::GenericArray<u8, sha2::digest::typenum::UInt<sha2::digest::typenum::UInt<sha2::digest::typenum::UInt<sha2::digest::typenum::UInt<sha2::digest::typenum::UInt<sha2::digest::typenum::UInt<sha2::digest::typenum::UTerm, sha2::digest::typenum::B1>, sha2::digest::typenum::B0>, sha2::digest::typenum::B0>, sha2::digest::typenum::B0>, sha2::digest::typenum::B0>, sha2::digest::typenum::B0>>>::default::{closure#0}]>::{closure#0}]>::{closure#0}]>::{closure#0}]", %"[closure@<std::iter::Enumerate<I> as std::iter::Iterator>::fold::enumerate<&mut u8, (), [closure@std::iter::Iterator::for_each::call<(usize, &mut u8), [closure@<sha2::digest::generic_array::GenericArray<u8, sha2::digest::typenum::UInt<sha2::digest::typenum::UInt<sha2::digest::typenum::UInt<sha2::digest::typenum::UInt<sha2::digest::typenum::UInt<sha2::digest::typenum::UInt<sha2::digest::typenum::UTerm, sha2::digest::typenum::B1>, sha2::digest::typenum::B0>, sha2::digest::typenum::B0>, sha2::digest::typenum::B0>, sha2::digest::typenum::B0>, sha2::digest::typenum::B0>> as sha2::digest::generic_array::sequence::GenericSequence<u8>>::generate<[closure@sha2::digest::generic_array::impls::<impl std::default::Default for sha2::digest::generic_array::GenericArray<u8, sha2::digest::typenum::UInt<sha2::digest::typenum::UInt<sha2::digest::typenum::UInt<sha2::digest::typenum::UInt<sha2::digest::typenum::UInt<sha2::digest::typenum::UInt<sha2::digest::typenum::UTerm, sha2::digest::typenum::B1>, sha2::digest::typenum::B0>, sha2::digest::typenum::B0>, sha2::digest::typenum::B0>, sha2::digest::typenum::B0>, sha2::digest::typenum::B0>>>::default::{closure#0}]>::{closure#0}]>::{closure#0}]>::{closure#0}]"* %_1, i32 0, i32 1, !dbg !1194
  %19 = load i64, i64* %18, align 8, !dbg !1194
  %20 = call { i64, i1 } @llvm.uadd.with.overflow.i64(i64 %19, i64 1), !dbg !1194
  %_10.0 = extractvalue { i64, i1 } %20, 0, !dbg !1194
  %_10.1 = extractvalue { i64, i1 } %20, 1, !dbg !1194
  %21 = call i1 @llvm.expect.i1(i1 %_10.1, i1 false), !dbg !1194
  br i1 %21, label %panic, label %bb2, !dbg !1194

bb2:                                              ; preds = %bb1
  %22 = getelementptr inbounds %"[closure@<std::iter::Enumerate<I> as std::iter::Iterator>::fold::enumerate<&mut u8, (), [closure@std::iter::Iterator::for_each::call<(usize, &mut u8), [closure@<sha2::digest::generic_array::GenericArray<u8, sha2::digest::typenum::UInt<sha2::digest::typenum::UInt<sha2::digest::typenum::UInt<sha2::digest::typenum::UInt<sha2::digest::typenum::UInt<sha2::digest::typenum::UInt<sha2::digest::typenum::UTerm, sha2::digest::typenum::B1>, sha2::digest::typenum::B0>, sha2::digest::typenum::B0>, sha2::digest::typenum::B0>, sha2::digest::typenum::B0>, sha2::digest::typenum::B0>> as sha2::digest::generic_array::sequence::GenericSequence<u8>>::generate<[closure@sha2::digest::generic_array::impls::<impl std::default::Default for sha2::digest::generic_array::GenericArray<u8, sha2::digest::typenum::UInt<sha2::digest::typenum::UInt<sha2::digest::typenum::UInt<sha2::digest::typenum::UInt<sha2::digest::typenum::UInt<sha2::digest::typenum::UInt<sha2::digest::typenum::UTerm, sha2::digest::typenum::B1>, sha2::digest::typenum::B0>, sha2::digest::typenum::B0>, sha2::digest::typenum::B0>, sha2::digest::typenum::B0>, sha2::digest::typenum::B0>>>::default::{closure#0}]>::{closure#0}]>::{closure#0}]>::{closure#0}]", %"[closure@<std::iter::Enumerate<I> as std::iter::Iterator>::fold::enumerate<&mut u8, (), [closure@std::iter::Iterator::for_each::call<(usize, &mut u8), [closure@<sha2::digest::generic_array::GenericArray<u8, sha2::digest::typenum::UInt<sha2::digest::typenum::UInt<sha2::digest::typenum::UInt<sha2::digest::typenum::UInt<sha2::digest::typenum::UInt<sha2::digest::typenum::UInt<sha2::digest::typenum::UTerm, sha2::digest::typenum::B1>, sha2::digest::typenum::B0>, sha2::digest::typenum::B0>, sha2::digest::typenum::B0>, sha2::digest::typenum::B0>, sha2::digest::typenum::B0>> as sha2::digest::generic_array::sequence::GenericSequence<u8>>::generate<[closure@sha2::digest::generic_array::impls::<impl std::default::Default for sha2::digest::generic_array::GenericArray<u8, sha2::digest::typenum::UInt<sha2::digest::typenum::UInt<sha2::digest::typenum::UInt<sha2::digest::typenum::UInt<sha2::digest::typenum::UInt<sha2::digest::typenum::UInt<sha2::digest::typenum::UTerm, sha2::digest::typenum::B1>, sha2::digest::typenum::B0>, sha2::digest::typenum::B0>, sha2::digest::typenum::B0>, sha2::digest::typenum::B0>, sha2::digest::typenum::B0>>>::default::{closure#0}]>::{closure#0}]>::{closure#0}]>::{closure#0}]"* %_1, i32 0, i32 1, !dbg !1194
  store i64 %_10.0, i64* %22, align 8, !dbg !1194
  ret void, !dbg !1195

panic:                                            ; preds = %bb1
; call core::panicking::panic
  call void @_ZN4core9panicking5panic17h560e3e4b7752857aE([0 x i8]* nonnull align 1 bitcast ([28 x i8]* @str.1 to [0 x i8]*), i64 28, %"std::panic::Location"* align 8 dereferenceable(24) bitcast (<{ i8*, [16 x i8] }>* @alloc694 to %"std::panic::Location"*)), !dbg !1194
  unreachable, !dbg !1194
}

; <generic_array::GenericArray<T,N> as generic_array::sequence::GenericSequence<T>>::generate
; Function Attrs: nounwind
define void @"_ZN110_$LT$generic_array..GenericArray$LT$T$C$N$GT$$u20$as$u20$generic_array..sequence..GenericSequence$LT$T$GT$$GT$8generate17h2447eb96681fa50cE"(%"sha2::digest::generic_array::GenericArray<u8, sha2::digest::typenum::UInt<sha2::digest::typenum::UInt<sha2::digest::typenum::UInt<sha2::digest::typenum::UInt<sha2::digest::typenum::UInt<sha2::digest::typenum::UInt<sha2::digest::typenum::UTerm, sha2::digest::typenum::B1>, sha2::digest::typenum::B0>, sha2::digest::typenum::B0>, sha2::digest::typenum::B0>, sha2::digest::typenum::B0>, sha2::digest::typenum::B0>>"* noalias nocapture sret(%"sha2::digest::generic_array::GenericArray<u8, sha2::digest::typenum::UInt<sha2::digest::typenum::UInt<sha2::digest::typenum::UInt<sha2::digest::typenum::UInt<sha2::digest::typenum::UInt<sha2::digest::typenum::UInt<sha2::digest::typenum::UTerm, sha2::digest::typenum::B1>, sha2::digest::typenum::B0>, sha2::digest::typenum::B0>, sha2::digest::typenum::B0>, sha2::digest::typenum::B0>, sha2::digest::typenum::B0>>") dereferenceable(32) %0) unnamed_addr #1 !dbg !1196 {
start:
  %destination_iter.dbg.spill = alloca { i8*, i8* }, align 8
  %_13 = alloca %"sha2::digest::generic_array::ArrayBuilder<u8, sha2::digest::typenum::UInt<sha2::digest::typenum::UInt<sha2::digest::typenum::UInt<sha2::digest::typenum::UInt<sha2::digest::typenum::UInt<sha2::digest::typenum::UInt<sha2::digest::typenum::UTerm, sha2::digest::typenum::B1>, sha2::digest::typenum::B0>, sha2::digest::typenum::B0>, sha2::digest::typenum::B0>, sha2::digest::typenum::B0>, sha2::digest::typenum::B0>>", align 8
  %_10 = alloca { i8*, i64* }, align 8
  %_8 = alloca %"std::iter::Enumerate<std::slice::IterMut<u8>>", align 8
  %_5 = alloca { { i8*, i8* }, i64* }, align 8
  %position = alloca i64*, align 8
  %destination = alloca %"sha2::digest::generic_array::ArrayBuilder<u8, sha2::digest::typenum::UInt<sha2::digest::typenum::UInt<sha2::digest::typenum::UInt<sha2::digest::typenum::UInt<sha2::digest::typenum::UInt<sha2::digest::typenum::UInt<sha2::digest::typenum::UTerm, sha2::digest::typenum::B1>, sha2::digest::typenum::B0>, sha2::digest::typenum::B0>, sha2::digest::typenum::B0>, sha2::digest::typenum::B0>, sha2::digest::typenum::B0>>", align 8
  %f = alloca %"[closure@sha2::digest::generic_array::impls::<impl std::default::Default for sha2::digest::generic_array::GenericArray<u8, sha2::digest::typenum::UInt<sha2::digest::typenum::UInt<sha2::digest::typenum::UInt<sha2::digest::typenum::UInt<sha2::digest::typenum::UInt<sha2::digest::typenum::UInt<sha2::digest::typenum::UTerm, sha2::digest::typenum::B1>, sha2::digest::typenum::B0>, sha2::digest::typenum::B0>, sha2::digest::typenum::B0>, sha2::digest::typenum::B0>, sha2::digest::typenum::B0>>>::default::{closure#0}]", align 1
  call void @llvm.dbg.declare(metadata %"[closure@sha2::digest::generic_array::impls::<impl std::default::Default for sha2::digest::generic_array::GenericArray<u8, sha2::digest::typenum::UInt<sha2::digest::typenum::UInt<sha2::digest::typenum::UInt<sha2::digest::typenum::UInt<sha2::digest::typenum::UInt<sha2::digest::typenum::UInt<sha2::digest::typenum::UTerm, sha2::digest::typenum::B1>, sha2::digest::typenum::B0>, sha2::digest::typenum::B0>, sha2::digest::typenum::B0>, sha2::digest::typenum::B0>, sha2::digest::typenum::B0>>>::default::{closure#0}]"* %f, metadata !1295, metadata !DIExpression()), !dbg !1321
  call void @llvm.dbg.declare(metadata %"sha2::digest::generic_array::ArrayBuilder<u8, sha2::digest::typenum::UInt<sha2::digest::typenum::UInt<sha2::digest::typenum::UInt<sha2::digest::typenum::UInt<sha2::digest::typenum::UInt<sha2::digest::typenum::UInt<sha2::digest::typenum::UTerm, sha2::digest::typenum::B1>, sha2::digest::typenum::B0>, sha2::digest::typenum::B0>, sha2::digest::typenum::B0>, sha2::digest::typenum::B0>, sha2::digest::typenum::B0>>"* %destination, metadata !1296, metadata !DIExpression()), !dbg !1322
  call void @llvm.dbg.declare(metadata i64** %position, metadata !1318, metadata !DIExpression()), !dbg !1323
; call generic_array::ArrayBuilder<T,N>::new
  call void @"_ZN13generic_array25ArrayBuilder$LT$T$C$N$GT$3new17h11c602a1014ae690E"(%"sha2::digest::generic_array::ArrayBuilder<u8, sha2::digest::typenum::UInt<sha2::digest::typenum::UInt<sha2::digest::typenum::UInt<sha2::digest::typenum::UInt<sha2::digest::typenum::UInt<sha2::digest::typenum::UInt<sha2::digest::typenum::UTerm, sha2::digest::typenum::B1>, sha2::digest::typenum::B0>, sha2::digest::typenum::B0>, sha2::digest::typenum::B0>, sha2::digest::typenum::B0>, sha2::digest::typenum::B0>>"* noalias nocapture sret(%"sha2::digest::generic_array::ArrayBuilder<u8, sha2::digest::typenum::UInt<sha2::digest::typenum::UInt<sha2::digest::typenum::UInt<sha2::digest::typenum::UInt<sha2::digest::typenum::UInt<sha2::digest::typenum::UInt<sha2::digest::typenum::UTerm, sha2::digest::typenum::B1>, sha2::digest::typenum::B0>, sha2::digest::typenum::B0>, sha2::digest::typenum::B0>, sha2::digest::typenum::B0>, sha2::digest::typenum::B0>>") dereferenceable(40) %destination), !dbg !1324
  br label %bb1, !dbg !1324

bb1:                                              ; preds = %start
; call generic_array::ArrayBuilder<T,N>::iter_position
  call void @"_ZN13generic_array25ArrayBuilder$LT$T$C$N$GT$13iter_position17hbc1f2b537cd07662E"({ { i8*, i8* }, i64* }* noalias nocapture sret({ { i8*, i8* }, i64* }) dereferenceable(24) %_5, %"sha2::digest::generic_array::ArrayBuilder<u8, sha2::digest::typenum::UInt<sha2::digest::typenum::UInt<sha2::digest::typenum::UInt<sha2::digest::typenum::UInt<sha2::digest::typenum::UInt<sha2::digest::typenum::UInt<sha2::digest::typenum::UTerm, sha2::digest::typenum::B1>, sha2::digest::typenum::B0>, sha2::digest::typenum::B0>, sha2::digest::typenum::B0>, sha2::digest::typenum::B0>, sha2::digest::typenum::B0>>"* align 8 dereferenceable(40) %destination), !dbg !1325
  br label %bb2, !dbg !1325

bb2:                                              ; preds = %bb1
  %1 = bitcast { { i8*, i8* }, i64* }* %_5 to { i8*, i8* }*, !dbg !1326
  %2 = getelementptr inbounds { i8*, i8* }, { i8*, i8* }* %1, i32 0, i32 0, !dbg !1326
  %destination_iter.0 = load i8*, i8** %2, align 8, !dbg !1326, !nonnull !4
  %3 = getelementptr inbounds { i8*, i8* }, { i8*, i8* }* %1, i32 0, i32 1, !dbg !1326
  %destination_iter.1 = load i8*, i8** %3, align 8, !dbg !1326
  %4 = getelementptr inbounds { i8*, i8* }, { i8*, i8* }* %destination_iter.dbg.spill, i32 0, i32 0, !dbg !1326
  store i8* %destination_iter.0, i8** %4, align 8, !dbg !1326
  %5 = getelementptr inbounds { i8*, i8* }, { i8*, i8* }* %destination_iter.dbg.spill, i32 0, i32 1, !dbg !1326
  store i8* %destination_iter.1, i8** %5, align 8, !dbg !1326
  call void @llvm.dbg.declare(metadata { i8*, i8* }* %destination_iter.dbg.spill, metadata !1316, metadata !DIExpression()), !dbg !1327
  %6 = getelementptr inbounds { { i8*, i8* }, i64* }, { { i8*, i8* }, i64* }* %_5, i32 0, i32 1, !dbg !1328
  %7 = load i64*, i64** %6, align 8, !dbg !1328, !nonnull !4
  store i64* %7, i64** %position, align 8, !dbg !1328
; call core::iter::traits::iterator::Iterator::enumerate
  call void @_ZN4core4iter6traits8iterator8Iterator9enumerate17h675191bd774ba137E(%"std::iter::Enumerate<std::slice::IterMut<u8>>"* noalias nocapture sret(%"std::iter::Enumerate<std::slice::IterMut<u8>>") dereferenceable(24) %_8, i8* nonnull %destination_iter.0, i8* %destination_iter.1), !dbg !1329
  br label %bb3, !dbg !1329

bb3:                                              ; preds = %bb2
  %8 = bitcast { i8*, i64* }* %_10 to %"[closure@sha2::digest::generic_array::impls::<impl std::default::Default for sha2::digest::generic_array::GenericArray<u8, sha2::digest::typenum::UInt<sha2::digest::typenum::UInt<sha2::digest::typenum::UInt<sha2::digest::typenum::UInt<sha2::digest::typenum::UInt<sha2::digest::typenum::UInt<sha2::digest::typenum::UTerm, sha2::digest::typenum::B1>, sha2::digest::typenum::B0>, sha2::digest::typenum::B0>, sha2::digest::typenum::B0>, sha2::digest::typenum::B0>, sha2::digest::typenum::B0>>>::default::{closure#0}]"**, !dbg !1330
  store %"[closure@sha2::digest::generic_array::impls::<impl std::default::Default for sha2::digest::generic_array::GenericArray<u8, sha2::digest::typenum::UInt<sha2::digest::typenum::UInt<sha2::digest::typenum::UInt<sha2::digest::typenum::UInt<sha2::digest::typenum::UInt<sha2::digest::typenum::UInt<sha2::digest::typenum::UTerm, sha2::digest::typenum::B1>, sha2::digest::typenum::B0>, sha2::digest::typenum::B0>, sha2::digest::typenum::B0>, sha2::digest::typenum::B0>, sha2::digest::typenum::B0>>>::default::{closure#0}]"* %f, %"[closure@sha2::digest::generic_array::impls::<impl std::default::Default for sha2::digest::generic_array::GenericArray<u8, sha2::digest::typenum::UInt<sha2::digest::typenum::UInt<sha2::digest::typenum::UInt<sha2::digest::typenum::UInt<sha2::digest::typenum::UInt<sha2::digest::typenum::UInt<sha2::digest::typenum::UTerm, sha2::digest::typenum::B1>, sha2::digest::typenum::B0>, sha2::digest::typenum::B0>, sha2::digest::typenum::B0>, sha2::digest::typenum::B0>, sha2::digest::typenum::B0>>>::default::{closure#0}]"** %8, align 8, !dbg !1330
  %9 = getelementptr inbounds { i8*, i64* }, { i8*, i64* }* %_10, i32 0, i32 1, !dbg !1330
  %10 = bitcast i64** %9 to i64***, !dbg !1330
  store i64** %position, i64*** %10, align 8, !dbg !1330
  %11 = getelementptr inbounds { i8*, i64* }, { i8*, i64* }* %_10, i32 0, i32 0, !dbg !1329
  %12 = load i8*, i8** %11, align 8, !dbg !1329, !nonnull !4
  %13 = getelementptr inbounds { i8*, i64* }, { i8*, i64* }* %_10, i32 0, i32 1, !dbg !1329
  %14 = load i64*, i64** %13, align 8, !dbg !1329, !nonnull !4
; call core::iter::traits::iterator::Iterator::for_each
  call void @_ZN4core4iter6traits8iterator8Iterator8for_each17h0bbf04afcc9ff47bE(%"std::iter::Enumerate<std::slice::IterMut<u8>>"* noalias nocapture dereferenceable(24) %_8, i8* nonnull align 1 %12, i64* align 8 dereferenceable(8) %14), !dbg !1329
  br label %bb4, !dbg !1329

bb4:                                              ; preds = %bb3
  %15 = bitcast %"sha2::digest::generic_array::ArrayBuilder<u8, sha2::digest::typenum::UInt<sha2::digest::typenum::UInt<sha2::digest::typenum::UInt<sha2::digest::typenum::UInt<sha2::digest::typenum::UInt<sha2::digest::typenum::UInt<sha2::digest::typenum::UTerm, sha2::digest::typenum::B1>, sha2::digest::typenum::B0>, sha2::digest::typenum::B0>, sha2::digest::typenum::B0>, sha2::digest::typenum::B0>, sha2::digest::typenum::B0>>"* %_13 to i8*, !dbg !1331
  %16 = bitcast %"sha2::digest::generic_array::ArrayBuilder<u8, sha2::digest::typenum::UInt<sha2::digest::typenum::UInt<sha2::digest::typenum::UInt<sha2::digest::typenum::UInt<sha2::digest::typenum::UInt<sha2::digest::typenum::UInt<sha2::digest::typenum::UTerm, sha2::digest::typenum::B1>, sha2::digest::typenum::B0>, sha2::digest::typenum::B0>, sha2::digest::typenum::B0>, sha2::digest::typenum::B0>, sha2::digest::typenum::B0>>"* %destination to i8*, !dbg !1331
