; ModuleID = 'vending_machine.2059432f-cgu.0'
source_filename = "vending_machine.2059432f-cgu.0"
target datalayout = "e-m:e-p:64:64-i64:64-n32:64-S128"
target triple = "bpfel"

%"anchor_lang::prelude::Pubkey" = type { [32 x i8] }
%"std::vec::IntoIter<u8>" = type { %"std::marker::PhantomData<u8>", %"std::alloc::Global", i8*, i64, i8*, i8* }
%"std::marker::PhantomData<u8>" = type {}
%"std::alloc::Global" = type {}
%"std::option::Option<usize>::Some" = type { [1 x i64], i64 }
%"anchor_lang::idl::IdlAccount" = type { %"std::vec::Vec<u8>", %"anchor_lang::prelude::Pubkey" }
%"std::vec::Vec<u8>" = type { { i8*, i64 }, i64 }
%"anchor_lang::accounts::program_account::Inner<anchor_lang::idl::IdlAccount>" = type { %"anchor_lang::prelude::AccountInfo", %"anchor_lang::idl::IdlAccount" }
%"anchor_lang::prelude::AccountInfo" = type { %"anchor_lang::prelude::Pubkey"*, i64*, i64*, %"anchor_lang::prelude::Pubkey"*, i64, i8, i8, i8, [5 x i8] }
%"anchor_lang::context::Context<VendingMachine>" = type { %"anchor_lang::prelude::Pubkey"*, %VendingMachine*, { [0 x %"anchor_lang::prelude::AccountInfo"]*, i64 } }
%VendingMachine = type { %"anchor_lang::prelude::Account<Vending>", %"anchor_lang::prelude::Signer", %"anchor_lang::prelude::Program<anchor_lang::System>" }
%"anchor_lang::prelude::Account<Vending>" = type { %Vending, %"anchor_lang::prelude::AccountInfo" }
%Vending = type { %"std::string::String", %"std::string::String", %"std::string::String" }
%"std::string::String" = type { %"std::vec::Vec<u8>" }
%"anchor_lang::prelude::Signer" = type { %"anchor_lang::prelude::AccountInfo" }
%"anchor_lang::prelude::Program<anchor_lang::System>" = type { %"std::marker::PhantomData<anchor_lang::System>", %"anchor_lang::prelude::AccountInfo", %"std::option::Option<anchor_lang::prelude::Pubkey>", [7 x i8] }
%"std::marker::PhantomData<anchor_lang::System>" = type {}
%"std::option::Option<anchor_lang::prelude::Pubkey>" = type { i8, [32 x i8] }
%"anchor_lang::context::Context<AddDrink>" = type { %"anchor_lang::prelude::Pubkey"*, %AddDrink*, { [0 x %"anchor_lang::prelude::AccountInfo"]*, i64 } }
%AddDrink = type { %"anchor_lang::prelude::Account<Vending>" }
%"std::result::Result<anchor_lang::prelude::Account<Vending>, anchor_lang::prelude::ProgramError>" = type { i64, [15 x i64] }
%"std::result::Result<std::convert::Infallible, anchor_lang::prelude::ProgramError>::Err" = type { %"anchor_lang::prelude::ProgramError" }
%"anchor_lang::prelude::ProgramError" = type { i32, [7 x i32] }
%"std::result::Result<Vending, anchor_lang::prelude::ProgramError>" = type { i64, [9 x i64] }
%"std::ops::ControlFlow<std::result::Result<std::convert::Infallible, anchor_lang::prelude::ProgramError>, Vending>" = type { i64, [9 x i64] }
%"std::result::Result<std::cell::Ref<&mut [u8]>, anchor_lang::prelude::ProgramError>" = type { i64, [4 x i64] }
%"std::ops::ControlFlow<std::result::Result<std::convert::Infallible, anchor_lang::prelude::ProgramError>, std::cell::Ref<&mut [u8]>>" = type { i64, [4 x i64] }
%"std::result::Result<anchor_lang::prelude::Account<Vending>, anchor_lang::prelude::ProgramError>::Err" = type { [1 x i64], %"anchor_lang::prelude::ProgramError" }
%"std::ops::ControlFlow<std::result::Result<std::convert::Infallible, anchor_lang::prelude::ProgramError>, std::cell::Ref<&mut [u8]>>::Continue" = type { [1 x i64], { i64*, i64* } }
%"std::ops::ControlFlow<std::result::Result<std::convert::Infallible, anchor_lang::prelude::ProgramError>, std::cell::Ref<&mut [u8]>>::Break" = type { [1 x i64], %"std::result::Result<std::convert::Infallible, anchor_lang::prelude::ProgramError>::Err" }
%"std::ops::ControlFlow<std::result::Result<std::convert::Infallible, anchor_lang::prelude::ProgramError>, Vending>::Continue" = type { [1 x i64], %Vending }
%"std::ops::ControlFlow<std::result::Result<std::convert::Infallible, anchor_lang::prelude::ProgramError>, Vending>::Break" = type { [1 x i64], %"std::result::Result<std::convert::Infallible, anchor_lang::prelude::ProgramError>::Err" }
%"std::result::Result<anchor_lang::prelude::Account<Vending>, anchor_lang::prelude::ProgramError>::Ok" = type { [1 x i64], %"anchor_lang::prelude::Account<Vending>" }
%"std::result::Result<anchor_lang::prelude::Program<anchor_lang::System>, anchor_lang::prelude::ProgramError>" = type { i64, [11 x i64] }
%"anchor_lang::prelude::UpgradeableLoaderState" = type { i8, [47 x i8] }
%"std::result::Result<anchor_lang::prelude::UpgradeableLoaderState, anchor_lang::prelude::ProgramError>" = type { i64, [6 x i64] }
%"std::ops::ControlFlow<std::result::Result<std::convert::Infallible, anchor_lang::prelude::ProgramError>, anchor_lang::prelude::UpgradeableLoaderState>" = type { i64, [6 x i64] }
%"std::result::Result<anchor_lang::prelude::Program<anchor_lang::System>, anchor_lang::prelude::ProgramError>::Err" = type { [1 x i64], %"anchor_lang::prelude::ProgramError" }
%"std::ops::ControlFlow<std::result::Result<std::convert::Infallible, anchor_lang::prelude::ProgramError>, anchor_lang::prelude::UpgradeableLoaderState>::Continue" = type { [1 x i64], %"anchor_lang::prelude::UpgradeableLoaderState" }
%"std::ops::ControlFlow<std::result::Result<std::convert::Infallible, anchor_lang::prelude::ProgramError>, anchor_lang::prelude::UpgradeableLoaderState>::Break" = type { [1 x i64], %"std::result::Result<std::convert::Infallible, anchor_lang::prelude::ProgramError>::Err" }
%"std::panic::Location" = type { { [0 x i8]*, i64 }, i32, i32 }
%"anchor_lang::prelude::UpgradeableLoaderState::Program" = type { [1 x i8], %"anchor_lang::prelude::Pubkey" }
%"std::option::Option<anchor_lang::prelude::Pubkey>::Some" = type { [1 x i8], %"anchor_lang::prelude::Pubkey" }
%"std::result::Result<anchor_lang::prelude::Program<anchor_lang::System>, anchor_lang::prelude::ProgramError>::Ok" = type { [1 x i64], %"anchor_lang::prelude::Program<anchor_lang::System>" }
%"std::result::Result<AddDrink, anchor_lang::prelude::ProgramError>" = type { i64, [15 x i64] }
%"std::result::Result<AddDrink, anchor_lang::prelude::ProgramError>::Err" = type { [1 x i64], %"anchor_lang::prelude::ProgramError" }
%"std::result::Result<VendingMachine, anchor_lang::prelude::ProgramError>" = type { i64, [32 x i64] }
%"std::result::Result<VendingMachine, anchor_lang::prelude::ProgramError>::Err" = type { [1 x i64], %"anchor_lang::prelude::ProgramError" }
%"std::result::Result<instruction::AddDrink, std::io::Error>" = type { i64, [9 x i64] }
%"std::io::Error" = type { %"std::io::error::Repr" }
%"std::io::error::Repr" = type { i8, [15 x i8] }
%"std::result::Result<std::convert::Infallible, std::io::Error>::Err" = type { %"std::io::Error" }
%"std::result::Result<instruction::AddDrink, std::io::Error>::Err" = type { [1 x i64], %"std::io::Error" }
%"std::result::Result<Vending, std::io::Error>" = type { i64, [9 x i64] }
%"std::result::Result<Vending, std::io::Error>::Err" = type { [1 x i64], %"std::io::Error" }
%"std::panic::PanicInfo" = type { { {}*, [3 x i64]* }, i64*, %"std::panic::Location"* }
%"std::fmt::Formatter" = type { { i64, i64 }, { i64, i64 }, { {}*, [3 x i64]* }, i32, i32, i8, [7 x i8] }
%"std::result::Result<(), std::io::Error>" = type { i8, [15 x i8] }
%"core::fmt::Opaque" = type {}
%"std::fmt::Arguments" = type { { [0 x { [0 x i8]*, i64 }]*, i64 }, { i64*, i64 }, { [0 x { i8*, i64* }]*, i64 } }
%"anchor_lang::__private::Ctor" = type { %"anchor_lang::prelude::AccountInfo", %"anchor_lang::prelude::AccountInfo", %"anchor_lang::prelude::AccountInfo", %"anchor_lang::prelude::AccountInfo", %"anchor_lang::prelude::AccountInfo" }
%"anchor_lang::idl::IdlAccounts" = type { i64*, %"anchor_lang::prelude::AccountInfo" }
%"anchor_lang::idl::IdlSetBuffer" = type { i64*, i64*, %"anchor_lang::prelude::AccountInfo" }
%"anchor_lang::idl::IdlCreateBuffer" = type { i64*, %"anchor_lang::prelude::AccountInfo" }
%"std::vec::Vec<anchor_lang::prelude::AccountInfo>" = type { { i64*, i64 }, i64 }
%"std::option::Option<std::fmt::Arguments>" = type { {}*, [5 x i64] }
%"std::ops::RangeFull" = type {}
%"std::result::Result<std::vec::Vec<u8>, std::io::Error>" = type { i64, [3 x i64] }
%"std::result::Result<std::vec::Vec<u8>, std::io::Error>::Ok" = type { [1 x i64], %"std::vec::Vec<u8>" }
%"std::result::Result<std::vec::Vec<u8>, std::io::Error>::Err" = type { [1 x i64], %"std::io::Error" }
%"std::result::Result<(), anchor_lang::prelude::ProgramError>" = type { i32, [7 x i32] }
%"[closure@src/lib.rs:9:1: 9:11]" = type {}
%"std::result::Result<(), anchor_lang::prelude::ProgramError>::Ok" = type { {} }
%"std::result::Result<(), anchor_lang::prelude::ProgramError>::Err" = type { %"anchor_lang::prelude::ProgramError" }
%"[closure@src/lib.rs:52:1: 52:11]" = type {}
%"std::result::Result<Vending, std::io::Error>::Ok" = type { [1 x i64], %Vending }
%"std::result::Result<Vending, anchor_lang::prelude::ProgramError>::Ok" = type { [1 x i64], %Vending }
%"std::result::Result<Vending, anchor_lang::prelude::ProgramError>::Err" = type { [1 x i64], %"anchor_lang::prelude::ProgramError" }
%"std::result::Result<anchor_lang::idl::IdlInstruction, anchor_lang::__private::ErrorCode>" = type { i32, [11 x i32] }
%"std::result::Result<anchor_lang::idl::IdlInstruction, std::io::Error>" = type { i64, [5 x i64] }
%"[closure@src/lib.rs:9:1: 9:11].0" = type {}
%"anchor_lang::idl::IdlInstruction" = type { i8, [39 x i8] }
%"std::result::Result<anchor_lang::idl::IdlInstruction, std::io::Error>::Ok" = type { [1 x i64], %"anchor_lang::idl::IdlInstruction" }
%"std::result::Result<anchor_lang::idl::IdlInstruction, anchor_lang::__private::ErrorCode>::Ok" = type { [1 x i64], %"anchor_lang::idl::IdlInstruction" }
%"std::result::Result<anchor_lang::idl::IdlInstruction, std::io::Error>::Err" = type { [1 x i64], %"std::io::Error" }
%"std::result::Result<anchor_lang::idl::IdlInstruction, anchor_lang::__private::ErrorCode>::Err" = type { [1 x i32], i32 }
%"instruction::SetupPlatform" = type {}
%"[closure@src/lib.rs:9:1: 9:11].1" = type {}
%"std::result::Result<instruction::SetupPlatform, std::io::Error>" = type { i8, [15 x i8] }
%"std::result::Result<instruction::SetupPlatform, anchor_lang::__private::ErrorCode>::Ok" = type { %"instruction::SetupPlatform" }
%"std::result::Result<instruction::SetupPlatform, std::io::Error>::Err" = type { %"std::io::Error" }
%"std::result::Result<instruction::AddDrink, anchor_lang::__private::ErrorCode>" = type { i32, [19 x i32] }
%"[closure@src/lib.rs:9:1: 9:11].2" = type {}
%"instruction::AddDrink" = type { %"std::string::String", %"std::string::String", %"std::string::String" }
%"std::result::Result<instruction::AddDrink, std::io::Error>::Ok" = type { [1 x i64], %"instruction::AddDrink" }
%"std::result::Result<instruction::AddDrink, anchor_lang::__private::ErrorCode>::Ok" = type { [1 x i64], %"instruction::AddDrink" }
%"std::result::Result<instruction::AddDrink, anchor_lang::__private::ErrorCode>::Err" = type { [1 x i32], i32 }
%"std::num::TryFromIntError" = type { {} }
%"[closure@<[u8] as anchor_lang::AnchorSerialize>::serialize<std::vec::Vec<u8>>::{closure#0}]" = type {}
%"std::result::Result<u32, std::io::ErrorKind>" = type { i8, [7 x i8] }
%"std::result::Result<u32, std::num::TryFromIntError>::Ok" = type { [1 x i32], i32 }
%"std::result::Result<u32, std::io::ErrorKind>::Ok" = type { [1 x i32], i32 }
%"std::result::Result<u32, std::io::ErrorKind>::Err" = type { [1 x i8], i8 }
%"[closure@src/lib.rs:52:1: 52:11].3" = type {}
%"std::result::Result<(), anchor_lang::__private::ErrorCode>::Ok" = type { {} }
%"std::result::Result<(), std::io::Error>::Err" = type { %"std::io::Error" }
%"[closure@src/lib.rs:52:1: 52:11].4" = type {}
%"std::ops::ControlFlow<std::result::Result<std::convert::Infallible, std::io::ErrorKind>, u32>" = type { i8, [7 x i8] }
%"std::ops::ControlFlow<std::result::Result<std::convert::Infallible, std::io::Error>>" = type { i8, [15 x i8] }
%"std::ops::ControlFlow<std::result::Result<std::convert::Infallible, std::io::ErrorKind>, u32>::Continue" = type { [1 x i32], i32 }
%"std::ops::ControlFlow<std::result::Result<std::convert::Infallible, std::io::ErrorKind>, u32>::Break" = type { [1 x i8], i8 }
%"std::ops::ControlFlow<std::result::Result<std::convert::Infallible, std::io::Error>>::Break" = type { %"std::result::Result<std::convert::Infallible, std::io::Error>::Err" }
%"std::result::Result<std::convert::Infallible, std::alloc::AllocError>::Err" = type { %"std::alloc::AllocError" }
%"std::alloc::AllocError" = type {}
%"std::result::Result<std::string::String, std::string::FromUtf8Error>" = type { i64, [5 x i64] }
%"std::str::Utf8Error" = type { i64, { i8, i8 }, [6 x i8] }
%"std::string::FromUtf8Error" = type { %"std::vec::Vec<u8>", %"std::str::Utf8Error" }
%"std::result::Result<&str, std::str::Utf8Error>" = type { i64, [2 x i64] }
%"std::result::Result<std::string::String, std::string::FromUtf8Error>::Ok" = type { [1 x i64], %"std::string::String" }
%"std::result::Result<&str, std::str::Utf8Error>::Err" = type { [1 x i64], %"std::str::Utf8Error" }
%"std::result::Result<std::string::String, std::string::FromUtf8Error>::Err" = type { [1 x i64], %"std::string::FromUtf8Error" }
%"std::io::Cursor<&mut [u8]>" = type { { [0 x i8]*, i64 }, i64 }
%"std::result::Result<std::string::String, std::io::Error>" = type { i64, [3 x i64] }
%"std::ops::ControlFlow<std::result::Result<std::convert::Infallible, std::io::Error>, std::vec::Vec<u8>>" = type { i64, [3 x i64] }
%"std::ops::ControlFlow<std::result::Result<std::convert::Infallible, std::io::Error>, std::vec::Vec<u8>>::Continue" = type { [1 x i64], %"std::vec::Vec<u8>" }
%"std::ops::ControlFlow<std::result::Result<std::convert::Infallible, std::io::Error>, std::vec::Vec<u8>>::Break" = type { [1 x i64], %"std::result::Result<std::convert::Infallible, std::io::Error>::Err" }
%"std::ops::ControlFlow<std::result::Result<std::convert::Infallible, anchor_lang::prelude::ProgramError>, anchor_lang::prelude::Signer>" = type { i64, [6 x i64] }
%"std::result::Result<anchor_lang::prelude::Signer, anchor_lang::prelude::ProgramError>" = type { i64, [6 x i64] }
%"std::result::Result<anchor_lang::prelude::Signer, anchor_lang::prelude::ProgramError>::Ok" = type { [1 x i64], %"anchor_lang::prelude::Signer" }
%"std::ops::ControlFlow<std::result::Result<std::convert::Infallible, anchor_lang::prelude::ProgramError>, anchor_lang::prelude::Signer>::Continue" = type { [1 x i64], %"anchor_lang::prelude::Signer" }
%"std::result::Result<anchor_lang::prelude::Signer, anchor_lang::prelude::ProgramError>::Err" = type { [1 x i64], %"anchor_lang::prelude::ProgramError" }
%"std::ops::ControlFlow<std::result::Result<std::convert::Infallible, anchor_lang::prelude::ProgramError>, anchor_lang::prelude::Signer>::Break" = type { [1 x i64], %"std::result::Result<std::convert::Infallible, anchor_lang::prelude::ProgramError>::Err" }
%"std::ops::ControlFlow<std::result::Result<std::convert::Infallible, anchor_lang::prelude::ProgramError>, anchor_lang::prelude::Account<Vending>>" = type { i64, [15 x i64] }
%"std::ops::ControlFlow<std::result::Result<std::convert::Infallible, anchor_lang::prelude::ProgramError>, anchor_lang::prelude::Account<Vending>>::Continue" = type { [1 x i64], %"anchor_lang::prelude::Account<Vending>" }
%"std::ops::ControlFlow<std::result::Result<std::convert::Infallible, anchor_lang::prelude::ProgramError>, anchor_lang::prelude::Account<Vending>>::Break" = type { [1 x i64], %"std::result::Result<std::convert::Infallible, anchor_lang::prelude::ProgramError>::Err" }
%"std::ops::ControlFlow<std::result::Result<std::convert::Infallible, anchor_lang::prelude::ProgramError>, AddDrink>" = type { i64, [15 x i64] }
%"std::result::Result<AddDrink, anchor_lang::prelude::ProgramError>::Ok" = type { [1 x i64], %AddDrink }
%"std::ops::ControlFlow<std::result::Result<std::convert::Infallible, anchor_lang::prelude::ProgramError>, AddDrink>::Continue" = type { [1 x i64], %AddDrink }
%"std::ops::ControlFlow<std::result::Result<std::convert::Infallible, anchor_lang::prelude::ProgramError>, AddDrink>::Break" = type { [1 x i64], %"std::result::Result<std::convert::Infallible, anchor_lang::prelude::ProgramError>::Err" }
%"std::ops::ControlFlow<std::result::Result<std::convert::Infallible, anchor_lang::prelude::ProgramError>, anchor_lang::idl::IdlSetBuffer>" = type { i64, [8 x i64] }
%"std::result::Result<anchor_lang::idl::IdlSetBuffer, anchor_lang::prelude::ProgramError>" = type { i64, [8 x i64] }
%"std::result::Result<anchor_lang::idl::IdlSetBuffer, anchor_lang::prelude::ProgramError>::Ok" = type { [1 x i64], %"anchor_lang::idl::IdlSetBuffer" }
%"std::ops::ControlFlow<std::result::Result<std::convert::Infallible, anchor_lang::prelude::ProgramError>, anchor_lang::idl::IdlSetBuffer>::Continue" = type { [1 x i64], %"anchor_lang::idl::IdlSetBuffer" }
%"std::result::Result<anchor_lang::idl::IdlSetBuffer, anchor_lang::prelude::ProgramError>::Err" = type { [1 x i64], %"anchor_lang::prelude::ProgramError" }
%"std::ops::ControlFlow<std::result::Result<std::convert::Infallible, anchor_lang::prelude::ProgramError>, anchor_lang::idl::IdlSetBuffer>::Break" = type { [1 x i64], %"std::result::Result<std::convert::Infallible, anchor_lang::prelude::ProgramError>::Err" }
%"std::ops::ControlFlow<std::result::Result<std::convert::Infallible, anchor_lang::prelude::ProgramError>, anchor_lang::prelude::Program<anchor_lang::System>>" = type { i64, [11 x i64] }
%"std::ops::ControlFlow<std::result::Result<std::convert::Infallible, anchor_lang::prelude::ProgramError>, anchor_lang::prelude::Program<anchor_lang::System>>::Continue" = type { [1 x i64], %"anchor_lang::prelude::Program<anchor_lang::System>" }
%"std::ops::ControlFlow<std::result::Result<std::convert::Infallible, anchor_lang::prelude::ProgramError>, anchor_lang::prelude::Program<anchor_lang::System>>::Break" = type { [1 x i64], %"std::result::Result<std::convert::Infallible, anchor_lang::prelude::ProgramError>::Err" }
%"std::ops::ControlFlow<std::result::Result<std::convert::Infallible, anchor_lang::__private::ErrorCode>, anchor_lang::idl::IdlInstruction>" = type { i32, [11 x i32] }
%"std::ops::ControlFlow<std::result::Result<std::convert::Infallible, anchor_lang::__private::ErrorCode>, anchor_lang::idl::IdlInstruction>::Continue" = type { [1 x i64], %"anchor_lang::idl::IdlInstruction" }
%"std::ops::ControlFlow<std::result::Result<std::convert::Infallible, anchor_lang::__private::ErrorCode>, anchor_lang::idl::IdlInstruction>::Break" = type { [1 x i32], i32 }
%"std::ops::ControlFlow<std::result::Result<std::convert::Infallible, anchor_lang::prelude::ProgramError>, anchor_lang::__private::Ctor>" = type { i64, [30 x i64] }
%"std::result::Result<anchor_lang::__private::Ctor, anchor_lang::prelude::ProgramError>" = type { i64, [30 x i64] }
%"std::result::Result<anchor_lang::__private::Ctor, anchor_lang::prelude::ProgramError>::Ok" = type { [1 x i64], %"anchor_lang::__private::Ctor" }
%"std::ops::ControlFlow<std::result::Result<std::convert::Infallible, anchor_lang::prelude::ProgramError>, anchor_lang::__private::Ctor>::Continue" = type { [1 x i64], %"anchor_lang::__private::Ctor" }
%"std::result::Result<anchor_lang::__private::Ctor, anchor_lang::prelude::ProgramError>::Err" = type { [1 x i64], %"anchor_lang::prelude::ProgramError" }
%"std::ops::ControlFlow<std::result::Result<std::convert::Infallible, anchor_lang::prelude::ProgramError>, anchor_lang::__private::Ctor>::Break" = type { [1 x i64], %"std::result::Result<std::convert::Infallible, anchor_lang::prelude::ProgramError>::Err" }
%"std::ops::ControlFlow<std::result::Result<std::convert::Infallible, anchor_lang::prelude::ProgramError>, VendingMachine>" = type { i64, [32 x i64] }
%"std::result::Result<VendingMachine, anchor_lang::prelude::ProgramError>::Ok" = type { [1 x i64], %VendingMachine }
%"std::ops::ControlFlow<std::result::Result<std::convert::Infallible, anchor_lang::prelude::ProgramError>, VendingMachine>::Continue" = type { [1 x i64], %VendingMachine }
%"std::ops::ControlFlow<std::result::Result<std::convert::Infallible, anchor_lang::prelude::ProgramError>, VendingMachine>::Break" = type { [1 x i64], %"std::result::Result<std::convert::Infallible, anchor_lang::prelude::ProgramError>::Err" }
%"std::ops::ControlFlow<std::result::Result<std::convert::Infallible, anchor_lang::__private::ErrorCode>, instruction::SetupPlatform>::Continue" = type { %"instruction::SetupPlatform" }
%"std::ops::ControlFlow<std::result::Result<std::convert::Infallible, anchor_lang::prelude::ProgramError>, anchor_lang::idl::IdlCreateBuffer>" = type { i64, [7 x i64] }
%"std::result::Result<anchor_lang::idl::IdlCreateBuffer, anchor_lang::prelude::ProgramError>" = type { i64, [7 x i64] }
%"std::result::Result<anchor_lang::idl::IdlCreateBuffer, anchor_lang::prelude::ProgramError>::Ok" = type { [1 x i64], %"anchor_lang::idl::IdlCreateBuffer" }
%"std::ops::ControlFlow<std::result::Result<std::convert::Infallible, anchor_lang::prelude::ProgramError>, anchor_lang::idl::IdlCreateBuffer>::Continue" = type { [1 x i64], %"anchor_lang::idl::IdlCreateBuffer" }
%"std::result::Result<anchor_lang::idl::IdlCreateBuffer, anchor_lang::prelude::ProgramError>::Err" = type { [1 x i64], %"anchor_lang::prelude::ProgramError" }
%"std::ops::ControlFlow<std::result::Result<std::convert::Infallible, anchor_lang::prelude::ProgramError>, anchor_lang::idl::IdlCreateBuffer>::Break" = type { [1 x i64], %"std::result::Result<std::convert::Infallible, anchor_lang::prelude::ProgramError>::Err" }
%"std::ops::ControlFlow<std::result::Result<std::convert::Infallible, anchor_lang::__private::ErrorCode>, instruction::AddDrink>" = type { i32, [19 x i32] }
%"std::ops::ControlFlow<std::result::Result<std::convert::Infallible, anchor_lang::__private::ErrorCode>, instruction::AddDrink>::Continue" = type { [1 x i64], %"instruction::AddDrink" }
%"std::ops::ControlFlow<std::result::Result<std::convert::Infallible, anchor_lang::__private::ErrorCode>, instruction::AddDrink>::Break" = type { [1 x i32], i32 }
%"std::ops::ControlFlow<std::result::Result<std::convert::Infallible, anchor_lang::prelude::ProgramError>, anchor_lang::idl::IdlAccounts>" = type { i64, [7 x i64] }
%"std::result::Result<anchor_lang::idl::IdlAccounts, anchor_lang::prelude::ProgramError>" = type { i64, [7 x i64] }
%"std::result::Result<anchor_lang::idl::IdlAccounts, anchor_lang::prelude::ProgramError>::Ok" = type { [1 x i64], %"anchor_lang::idl::IdlAccounts" }
%"std::ops::ControlFlow<std::result::Result<std::convert::Infallible, anchor_lang::prelude::ProgramError>, anchor_lang::idl::IdlAccounts>::Continue" = type { [1 x i64], %"anchor_lang::idl::IdlAccounts" }
%"std::result::Result<anchor_lang::idl::IdlAccounts, anchor_lang::prelude::ProgramError>::Err" = type { [1 x i64], %"anchor_lang::prelude::ProgramError" }
%"std::ops::ControlFlow<std::result::Result<std::convert::Infallible, anchor_lang::prelude::ProgramError>, anchor_lang::idl::IdlAccounts>::Break" = type { [1 x i64], %"std::result::Result<std::convert::Infallible, anchor_lang::prelude::ProgramError>::Err" }
%"std::ops::ControlFlow<std::result::Result<std::convert::Infallible, anchor_lang::prelude::ProgramError>>" = type { i32, [7 x i32] }
%"std::result::Result<std::cell::RefMut<&mut [u8]>, anchor_lang::prelude::ProgramError>" = type { i64, [4 x i64] }
%"std::ops::ControlFlow<std::result::Result<std::convert::Infallible, anchor_lang::prelude::ProgramError>, std::cell::RefMut<&mut [u8]>>" = type { i64, [4 x i64] }
%"std::ops::ControlFlow<std::result::Result<std::convert::Infallible, anchor_lang::prelude::ProgramError>, std::cell::RefMut<&mut [u8]>>::Continue" = type { [1 x i64], { i64*, i64* } }
%"std::ops::ControlFlow<std::result::Result<std::convert::Infallible, anchor_lang::prelude::ProgramError>, std::cell::RefMut<&mut [u8]>>::Break" = type { [1 x i64], %"std::result::Result<std::convert::Infallible, anchor_lang::prelude::ProgramError>::Err" }
%"std::ops::ControlFlow<std::result::Result<std::convert::Infallible, anchor_lang::prelude::ProgramError>>::Break" = type { %"std::result::Result<std::convert::Infallible, anchor_lang::prelude::ProgramError>::Err" }
%"std::vec::Vec<anchor_lang::prelude::AccountMeta>" = type { { i8*, i64 }, i64 }
%"anchor_lang::prelude::AccountMeta" = type { %"anchor_lang::prelude::Pubkey", i8, i8 }
%"anchor_lang::idl::IdlInstruction::Create" = type { [1 x i64], i64 }
%"anchor_lang::idl::IdlInstruction::Write" = type { [1 x i64], %"std::vec::Vec<u8>" }
%"anchor_lang::idl::IdlInstruction::SetAuthority" = type { [1 x i8], %"anchor_lang::prelude::Pubkey" }
%"std::result::Result<anchor_lang::idl::IdlAccount, anchor_lang::prelude::ProgramError>" = type { i64, [7 x i64] }
%"std::ops::ControlFlow<std::result::Result<std::convert::Infallible, anchor_lang::prelude::ProgramError>, anchor_lang::idl::IdlAccount>" = type { i64, [7 x i64] }
%"anchor_lang::solana_program::instruction::Instruction" = type { %"std::vec::Vec<anchor_lang::prelude::AccountMeta>", %"std::vec::Vec<u8>", %"anchor_lang::prelude::Pubkey" }
%"anchor_lang::prelude::Rent" = type { i64, double, i8, [7 x i8] }
%"std::result::Result<anchor_lang::prelude::Rent, anchor_lang::prelude::ProgramError>" = type { i64, [4 x i64] }
%"std::ops::ControlFlow<std::result::Result<std::convert::Infallible, anchor_lang::prelude::ProgramError>, anchor_lang::prelude::Rent>" = type { i64, [4 x i64] }
%"std::result::Result<anchor_lang::prelude::Pubkey, anchor_lang::solana_program::pubkey::PubkeyError>" = type { i8, [32 x i8] }
%"std::ops::ControlFlow<std::result::Result<std::convert::Infallible, anchor_lang::prelude::ProgramError>, anchor_lang::prelude::Rent>::Continue" = type { [1 x i64], %"anchor_lang::prelude::Rent" }
%"std::ops::ControlFlow<std::result::Result<std::convert::Infallible, anchor_lang::prelude::ProgramError>, anchor_lang::prelude::Rent>::Break" = type { [1 x i64], %"std::result::Result<std::convert::Infallible, anchor_lang::prelude::ProgramError>::Err" }
%"std::ops::ControlFlow<std::result::Result<std::convert::Infallible, anchor_lang::prelude::ProgramError>, anchor_lang::idl::IdlAccount>::Continue" = type { [1 x i64], %"anchor_lang::idl::IdlAccount" }
%"std::ops::ControlFlow<std::result::Result<std::convert::Infallible, anchor_lang::prelude::ProgramError>, anchor_lang::idl::IdlAccount>::Break" = type { [1 x i64], %"std::result::Result<std::convert::Infallible, anchor_lang::prelude::ProgramError>::Err" }
%"std::result::Result<usize, anchor_lang::prelude::ProgramError>" = type { i64, [4 x i64] }
%"std::ops::ControlFlow<std::result::Result<std::convert::Infallible, anchor_lang::prelude::ProgramError>, usize>" = type { i64, [4 x i64] }
%"std::ops::ControlFlow<std::result::Result<std::convert::Infallible, anchor_lang::prelude::ProgramError>, usize>::Continue" = type { [1 x i64], i64 }
%"std::ops::ControlFlow<std::result::Result<std::convert::Infallible, anchor_lang::prelude::ProgramError>, usize>::Break" = type { [1 x i64], %"std::result::Result<std::convert::Infallible, anchor_lang::prelude::ProgramError>::Err" }
%"__client_accounts_vending_machine::VendingMachine" = type { %"anchor_lang::prelude::Pubkey", %"anchor_lang::prelude::Pubkey", %"anchor_lang::prelude::Pubkey" }
%"__cpi_client_accounts_vending_machine::VendingMachine" = type { %"anchor_lang::prelude::AccountInfo", %"anchor_lang::prelude::AccountInfo", %"anchor_lang::prelude::AccountInfo" }
%"__client_accounts_add_drink::AddDrink" = type { %"anchor_lang::prelude::Pubkey" }
%"__cpi_client_accounts_add_drink::AddDrink" = type { %"anchor_lang::prelude::AccountInfo" }
%"std::ops::ControlFlow<std::result::Result<std::convert::Infallible, std::io::Error>, std::string::String>" = type { i64, [3 x i64] }
%"std::ops::ControlFlow<std::result::Result<std::convert::Infallible, std::io::Error>, std::string::String>::Continue" = type { [1 x i64], %"std::string::String" }
%"std::ops::ControlFlow<std::result::Result<std::convert::Infallible, std::io::Error>, std::string::String>::Break" = type { [1 x i64], %"std::result::Result<std::convert::Infallible, std::io::Error>::Err" }

@_ZN14solana_program14system_program2ID17h5cfa1b916bb74456E = external global %"anchor_lang::prelude::Pubkey"
@_ZN14solana_program22bpf_loader_upgradeable2ID17ha8b0bc8d262dd46bE = external global %"anchor_lang::prelude::Pubkey"
@alloc266 = private unnamed_addr constant <{ [40 x i8] }> <{ [40 x i8] c"internal error: entered unreachable code" }>, align 1
@alloc300 = private unnamed_addr constant <{ [96 x i8] }> <{ [96 x i8] c"/root/.cargo/registry/src/github.com-1ecc6299db9ec823/anchor-lang-0.20.1/src/accounts/program.rs" }>, align 1
@alloc268 = private unnamed_addr constant <{ i8*, [16 x i8] }> <{ i8* getelementptr inbounds (<{ [96 x i8] }>, <{ [96 x i8] }>* @alloc300, i32 0, i32 0, i32 0), [16 x i8] c"`\00\00\00\00\00\00\00o\00\00\00\15\00\00\00" }>, align 8
@vtable.0 = private unnamed_addr constant <{ i8*, [16 x i8], i8*, i8*, i8*, [0 x i8] }> <{ i8* bitcast (void (%"std::string::String"*)* @"_ZN4core3ptr42drop_in_place$LT$alloc..string..String$GT$17h0ec070b4dee5c9c3E" to i8*), [16 x i8] c"\18\00\00\00\00\00\00\00\08\00\00\00\00\00\00\00", i8* bitcast (i1 (%"std::string::String"*, [0 x i8]*, i64)* @"_ZN58_$LT$alloc..string..String$u20$as$u20$core..fmt..Write$GT$9write_str17hc826936607edfa33E" to i8*), i8* bitcast (i1 (%"std::string::String"*, i32)* @"_ZN58_$LT$alloc..string..String$u20$as$u20$core..fmt..Write$GT$10write_char17h0bb7ff6cf4bee1aaE" to i8*), i8* bitcast (i1 (%"std::string::String"*, %"std::fmt::Arguments"*)* @_ZN4core3fmt5Write9write_fmt17hbf1e5641c180229fE to i8*), [0 x i8] zeroinitializer }>, align 8, !dbg !0
@alloc274 = private unnamed_addr constant <{ [55 x i8] }> <{ [55 x i8] c"a Display implementation returned an error unexpectedly" }>, align 1
@alloc275 = private unnamed_addr constant <{ [74 x i8] }> <{ [74 x i8] c"/home/runner/work/bpf-tools/bpf-tools/out/rust/library/alloc/src/string.rs" }>, align 1
@alloc276 = private unnamed_addr constant <{ i8*, [16 x i8] }> <{ i8* getelementptr inbounds (<{ [74 x i8] }>, <{ [74 x i8] }>* @alloc275, i32 0, i32 0, i32 0), [16 x i8] c"J\00\00\00\00\00\00\00O\09\00\00\0E\00\00\00" }>, align 8
@alloc277 = private unnamed_addr constant <{ [12 x i8] }> <{ [12 x i8] c"invalid args" }>, align 1
@alloc278 = private unnamed_addr constant <{ [74 x i8] }> <{ [74 x i8] c"/home/runner/work/bpf-tools/bpf-tools/out/rust/library/core/src/fmt/mod.rs" }>, align 1
@alloc279 = private unnamed_addr constant <{ i8*, [16 x i8] }> <{ i8* getelementptr inbounds (<{ [74 x i8] }>, <{ [74 x i8] }>* @alloc278, i32 0, i32 0, i32 0), [16 x i8] c"J\00\00\00\00\00\00\00c\01\00\00\0D\00\00\00" }>, align 8
@alloc280 = private unnamed_addr constant <{ [73 x i8] }> <{ [73 x i8] c"assertion failed: 0 < pointee_size && pointee_size <= isize::MAX as usize" }>, align 1
@alloc281 = private unnamed_addr constant <{ [80 x i8] }> <{ [80 x i8] c"/home/runner/work/bpf-tools/bpf-tools/out/rust/library/core/src/ptr/const_ptr.rs" }>, align 1
@alloc282 = private unnamed_addr constant <{ i8*, [16 x i8] }> <{ i8* getelementptr inbounds (<{ [80 x i8] }>, <{ [80 x i8] }>* @alloc281, i32 0, i32 0, i32 0), [16 x i8] c"P\00\00\00\00\00\00\00\85\01\00\00\09\00\00\00" }>, align 8
@alloc287 = private unnamed_addr constant <{ [79 x i8] }> <{ [79 x i8] c"/home/runner/work/bpf-tools/bpf-tools/out/rust/library/core/src/char/methods.rs" }>, align 1
@alloc284 = private unnamed_addr constant <{ i8*, [16 x i8] }> <{ i8* getelementptr inbounds (<{ [79 x i8] }>, <{ [79 x i8] }>* @alloc287, i32 0, i32 0, i32 0), [16 x i8] c"O\00\00\00\00\00\00\00P\06\00\00\16\00\00\00" }>, align 8
@alloc286 = private unnamed_addr constant <{ i8*, [16 x i8] }> <{ i8* getelementptr inbounds (<{ [79 x i8] }>, <{ [79 x i8] }>* @alloc287, i32 0, i32 0, i32 0), [16 x i8] c"O\00\00\00\00\00\00\00j\06\00\00\0A\00\00\00" }>, align 8
@alloc217 = private unnamed_addr constant <{ [18 x i8] }> <{ [18 x i8] c"encode_utf8: need " }>, align 1
@alloc219 = private unnamed_addr constant <{ [19 x i8] }> <{ [19 x i8] c" bytes to encode U+" }>, align 1
@alloc220 = private unnamed_addr constant <{ [21 x i8] }> <{ [21 x i8] c", but the buffer has " }>, align 1
@alloc218 = private unnamed_addr constant <{ i8*, [8 x i8], i8*, [8 x i8], i8*, [8 x i8] }> <{ i8* getelementptr inbounds (<{ [18 x i8] }>, <{ [18 x i8] }>* @alloc217, i32 0, i32 0, i32 0), [8 x i8] c"\12\00\00\00\00\00\00\00", i8* getelementptr inbounds (<{ [19 x i8] }>, <{ [19 x i8] }>* @alloc219, i32 0, i32 0, i32 0), [8 x i8] c"\13\00\00\00\00\00\00\00", i8* getelementptr inbounds (<{ [21 x i8] }>, <{ [21 x i8] }>* @alloc220, i32 0, i32 0, i32 0), [8 x i8] c"\15\00\00\00\00\00\00\00" }>, align 8
@alloc288 = private unnamed_addr constant <{ i8*, [16 x i8] }> <{ i8* getelementptr inbounds (<{ [79 x i8] }>, <{ [79 x i8] }>* @alloc287, i32 0, i32 0, i32 0), [16 x i8] c"O\00\00\00\00\00\00\00c\06\00\00\0E\00\00\00" }>, align 8
@alloc289 = private unnamed_addr constant <{ [89 x i8] }> <{ [89 x i8] c"/home/runner/work/bpf-tools/bpf-tools/out/rust/library/core/src/iter/traits/exact_size.rs" }>, align 1
@alloc290 = private unnamed_addr constant <{ i8*, [16 x i8] }> <{ i8* getelementptr inbounds (<{ [89 x i8] }>, <{ [89 x i8] }>* @alloc289, i32 0, i32 0, i32 0), [16 x i8] c"Y\00\00\00\00\00\00\00l\00\00\00\09\00\00\00" }>, align 8
@vtable.1 = private unnamed_addr constant <{ i8*, [16 x i8], i8*, [0 x i8] }> <{ i8* bitcast (void (%"std::io::Error"*)* @"_ZN4core3ptr42drop_in_place$LT$std..io..error..Error$GT$17h039c0e666c9bdd3cE" to i8*), [16 x i8] c"\10\00\00\00\00\00\00\00\08\00\00\00\00\00\00\00", i8* bitcast (i1 (%"std::io::Error"*, %"std::fmt::Formatter"*)* @"_ZN58_$LT$std..io..error..Error$u20$as$u20$core..fmt..Debug$GT$3fmt17hfa0e70e51a8cc47eE" to i8*), [0 x i8] zeroinitializer }>, align 8, !dbg !39
@alloc120 = private unnamed_addr constant <{ [0 x i8] }> zeroinitializer, align 8
@alloc296 = private unnamed_addr constant <{ [96 x i8] }> <{ [96 x i8] c"/root/.cargo/registry/src/github.com-1ecc6299db9ec823/anchor-lang-0.20.1/src/accounts/account.rs" }>, align 1
@alloc295 = private unnamed_addr constant <{ i8*, [16 x i8] }> <{ i8* getelementptr inbounds (<{ [96 x i8] }>, <{ [96 x i8] }>* @alloc296, i32 0, i32 0, i32 0), [16 x i8] c"`\00\00\00\00\00\00\00A\01\00\00\18\00\00\00" }>, align 8
@alloc297 = private unnamed_addr constant <{ i8*, [16 x i8] }> <{ i8* getelementptr inbounds (<{ [96 x i8] }>, <{ [96 x i8] }>* @alloc296, i32 0, i32 0, i32 0), [16 x i8] c"`\00\00\00\00\00\00\00B\01\00\00\16\00\00\00" }>, align 8
@alloc299 = private unnamed_addr constant <{ i8*, [16 x i8] }> <{ i8* getelementptr inbounds (<{ [96 x i8] }>, <{ [96 x i8] }>* @alloc300, i32 0, i32 0, i32 0), [16 x i8] c"`\00\00\00\00\00\00\00\8E\00\00\00\18\00\00\00" }>, align 8
@alloc301 = private unnamed_addr constant <{ i8*, [16 x i8] }> <{ i8* getelementptr inbounds (<{ [96 x i8] }>, <{ [96 x i8] }>* @alloc300, i32 0, i32 0, i32 0), [16 x i8] c"`\00\00\00\00\00\00\00\8F\00\00\00\16\00\00\00" }>, align 8
@alloc304 = private unnamed_addr constant <{ [93 x i8] }> <{ [93 x i8] c"/root/.cargo/registry/src/github.com-1ecc6299db9ec823/solana-program-1.10.0/src/entrypoint.rs" }>, align 1
@alloc303 = private unnamed_addr constant <{ i8*, [16 x i8] }> <{ i8* getelementptr inbounds (<{ [93 x i8] }>, <{ [93 x i8] }>* @alloc304, i32 0, i32 0, i32 0), [16 x i8] c"]\00\00\00\00\00\00\00\ED\00\00\00\13\00\00\00" }>, align 8
@str.2 = internal constant [28 x i8] c"attempt to add with overflow"
@alloc305 = private unnamed_addr constant <{ i8*, [16 x i8] }> <{ i8* getelementptr inbounds (<{ [93 x i8] }>, <{ [93 x i8] }>* @alloc304, i32 0, i32 0, i32 0), [16 x i8] c"]\00\00\00\00\00\00\00\F1\00\00\00\12\00\00\00" }>, align 8
@_ZN15vending_machine2ID17h68b4ca8f52c78323E = constant <{ [32 x i8] }> <{ [32 x i8] c"p\02\E3\1E\02\E5\C1\A1\9FK){\8C\01\93\D4\B2\09\DF\97\B6\DE\09\D0N#Yx%\CAO\C4" }>, align 1, !dbg !140
@alloc323 = private unnamed_addr constant <{ [10 x i8] }> <{ [10 x i8] c"src/lib.rs" }>, align 1
@alloc307 = private unnamed_addr constant <{ i8*, [16 x i8] }> <{ i8* getelementptr inbounds (<{ [10 x i8] }>, <{ [10 x i8] }>* @alloc323, i32 0, i32 0, i32 0), [16 x i8] c"\0A\00\00\00\00\00\00\00\09\00\00\00\01\00\00\00" }>, align 8
@alloc308 = private unnamed_addr constant <{ [29 x i8] }> <{ [29 x i8] c"Instruction: IdlCreateAccount" }>, align 1
@alloc309 = private unnamed_addr constant <{ [28 x i8] }> <{ [28 x i8] c"Instruction: IdlCreateBuffer" }>, align 1
@alloc310 = private unnamed_addr constant <{ [21 x i8] }> <{ [21 x i8] c"Instruction: IdlWrite" }>, align 1
@alloc311 = private unnamed_addr constant <{ [28 x i8] }> <{ [28 x i8] c"Instruction: IdlSetAuthority" }>, align 1
@alloc312 = private unnamed_addr constant <{ [25 x i8] }> <{ [25 x i8] c"Instruction: IdlSetBuffer" }>, align 1
@alloc313 = private unnamed_addr constant <{ [26 x i8] }> <{ [26 x i8] c"Instruction: SetupPlatform" }>, align 1
@alloc314 = private unnamed_addr constant <{ [21 x i8] }> <{ [21 x i8] c"Instruction: AddDrink" }>, align 1
@alloc315 = private unnamed_addr constant <{ [5 x i8] }> <{ [5 x i8] c"Fanta" }>, align 1
@alloc316 = private unnamed_addr constant <{ [5 x i8] }> <{ [5 x i8] c"0.5 L" }>, align 1
@alloc317 = private unnamed_addr constant <{ [5 x i8] }> <{ [5 x i8] c"2 EUR" }>, align 1
@alloc318 = private unnamed_addr constant <{ [20 x i8] }> <{ [20 x i8] c"New drink was added!" }>, align 1
@alloc225 = private unnamed_addr constant <{ [8 x i8] }> <{ [8 x i8] c"pp)\C44\C0\A56" }>, align 1
@alloc320 = private unnamed_addr constant <{ [23 x i8] }> <{ [23 x i8] c"Should always serialize" }>, align 1
@alloc231 = private unnamed_addr constant <{ [8 x i8] }> <{ [8 x i8] c"\A2s\AA\90c\DBo\BD" }>, align 1
@_ZN15vending_machine1A17hdb061e232f234b78E = internal constant <{ [16 x i8] }> <{ [16 x i8] c"\00\00\00\00\03\00\00\00\00\80\00\00\00\00\00\00" }>, align 8, !dbg !152
@alloc244 = private unnamed_addr constant <{ i8*, [8 x i8] }> <{ i8* getelementptr inbounds (<{ [0 x i8] }>, <{ [0 x i8] }>* @alloc120, i32 0, i32 0, i32 0), [8 x i8] zeroinitializer }>, align 8
@alloc322 = private unnamed_addr constant <{ i8*, [16 x i8] }> <{ i8* getelementptr inbounds (<{ [10 x i8] }>, <{ [10 x i8] }>* @alloc323, i32 0, i32 0, i32 0), [16 x i8] c"\0A\00\00\00\00\00\00\00%\00\00\00\0A\00\00\00" }>, align 8
@alloc198 = private unnamed_addr constant <{ [8 x i8] }> <{ [8 x i8] c"\EC\AD\DE\F1\07\95o\DF" }>, align 1
@alloc324 = private unnamed_addr constant <{ i8*, [16 x i8] }> <{ i8* getelementptr inbounds (<{ [10 x i8] }>, <{ [10 x i8] }>* @alloc323, i32 0, i32 0, i32 0), [16 x i8] c"\0A\00\00\00\00\00\00\004\00\00\00\01\00\00\00" }>, align 8
@alloc199 = private unnamed_addr constant <{ i8*, [0 x i8] }> <{ i8* getelementptr inbounds (<{ [8 x i8] }>, <{ [8 x i8] }>* @alloc198, i32 0, i32 0, i32 0), [0 x i8] zeroinitializer }>, align 8

; <alloc::vec::into_iter::IntoIter<T,A> as core::iter::traits::iterator::Iterator>::size_hint
; Function Attrs: inlinehint nounwind
define void @"_ZN103_$LT$alloc..vec..into_iter..IntoIter$LT$T$C$A$GT$$u20$as$u20$core..iter..traits..iterator..Iterator$GT$9size_hint17h196d13d64ad0d711E"({ i64, { i64, i64 } }* noalias nocapture sret({ i64, { i64, i64 } }) dereferenceable(24) %0, %"std::vec::IntoIter<u8>"* align 8 dereferenceable(32) %self) unnamed_addr #0 !dbg !234 {
start:
  %rhs.dbg.spill.i = alloca i64, align 8
  %self.dbg.spill.i = alloca i64, align 8
  %self.dbg.spill = alloca %"std::vec::IntoIter<u8>"*, align 8
  %_12 = alloca { i64, i64 }, align 8
  %exact = alloca i64, align 8
  store %"std::vec::IntoIter<u8>"* %self, %"std::vec::IntoIter<u8>"** %self.dbg.spill, align 8
  call void @llvm.dbg.declare(metadata %"std::vec::IntoIter<u8>"** %self.dbg.spill, metadata !273, metadata !DIExpression()), !dbg !276
  call void @llvm.dbg.declare(metadata i64* %exact, metadata !274, metadata !DIExpression()), !dbg !277
  br label %bb1, !dbg !278

bb1:                                              ; preds = %start
  %1 = icmp eq i64 1, 0, !dbg !278
  br i1 %1, label %bb2, label %bb4, !dbg !278

bb2:                                              ; preds = %bb1
  %2 = getelementptr inbounds %"std::vec::IntoIter<u8>", %"std::vec::IntoIter<u8>"* %self, i32 0, i32 5, !dbg !279
  %_5 = load i8*, i8** %2, align 8, !dbg !279
  %_4 = ptrtoint i8* %_5 to i64, !dbg !280
  %3 = getelementptr inbounds %"std::vec::IntoIter<u8>", %"std::vec::IntoIter<u8>"* %self, i32 0, i32 4, !dbg !281
  %_7 = load i8*, i8** %3, align 8, !dbg !281
  %_6 = ptrtoint i8* %_7 to i64, !dbg !281
  store i64 %_4, i64* %self.dbg.spill.i, align 8
  call void @llvm.dbg.declare(metadata i64* %self.dbg.spill.i, metadata !282, metadata !DIExpression()), !dbg !291
  store i64 %_6, i64* %rhs.dbg.spill.i, align 8
  call void @llvm.dbg.declare(metadata i64* %rhs.dbg.spill.i, metadata !290, metadata !DIExpression()), !dbg !293
  %4 = sub i64 %_4, %_6, !dbg !294
  store i64 %4, i64* %exact, align 8, !dbg !280
  br label %bb3, !dbg !280

bb4:                                              ; preds = %bb1
  %5 = getelementptr inbounds %"std::vec::IntoIter<u8>", %"std::vec::IntoIter<u8>"* %self, i32 0, i32 5, !dbg !295
  %_9 = load i8*, i8** %5, align 8, !dbg !295
  %6 = getelementptr inbounds %"std::vec::IntoIter<u8>", %"std::vec::IntoIter<u8>"* %self, i32 0, i32 4, !dbg !296
  %_10 = load i8*, i8** %6, align 8, !dbg !296
; call core::ptr::const_ptr::<impl *const T>::offset_from
  %_8 = call i64 @"_ZN4core3ptr9const_ptr33_$LT$impl$u20$$BP$const$u20$T$GT$11offset_from17h19899140dc86c7d4E"(i8* %_9, i8* %_10), !dbg !295
  br label %bb5, !dbg !295

bb5:                                              ; preds = %bb4
  store i64 %_8, i64* %exact, align 8, !dbg !295
  br label %bb6, !dbg !297

bb6:                                              ; preds = %bb3, %bb5
  %_11 = load i64, i64* %exact, align 8, !dbg !298
  %_13 = load i64, i64* %exact, align 8, !dbg !299
  %7 = bitcast { i64, i64 }* %_12 to %"std::option::Option<usize>::Some"*, !dbg !300
  %8 = getelementptr inbounds %"std::option::Option<usize>::Some", %"std::option::Option<usize>::Some"* %7, i32 0, i32 1, !dbg !300
  store i64 %_13, i64* %8, align 8, !dbg !300
  %9 = bitcast { i64, i64 }* %_12 to i64*, !dbg !300
  store i64 1, i64* %9, align 8, !dbg !300
  %10 = bitcast { i64, { i64, i64 } }* %0 to i64*, !dbg !301
  store i64 %_11, i64* %10, align 8, !dbg !301
  %11 = getelementptr inbounds { i64, { i64, i64 } }, { i64, { i64, i64 } }* %0, i32 0, i32 1, !dbg !301
  %12 = getelementptr inbounds { i64, i64 }, { i64, i64 }* %_12, i32 0, i32 0, !dbg !301
  %13 = load i64, i64* %12, align 8, !dbg !301, !range !302
  %14 = getelementptr inbounds { i64, i64 }, { i64, i64 }* %_12, i32 0, i32 1, !dbg !301
  %15 = load i64, i64* %14, align 8, !dbg !301
  %16 = getelementptr inbounds { i64, i64 }, { i64, i64 }* %11, i32 0, i32 0, !dbg !301
  store i64 %13, i64* %16, align 8, !dbg !301
  %17 = getelementptr inbounds { i64, i64 }, { i64, i64 }* %11, i32 0, i32 1, !dbg !301
  store i64 %15, i64* %17, align 8, !dbg !301
  ret void, !dbg !303

bb3:                                              ; preds = %bb2
  br label %bb6, !dbg !297
}

; <anchor_lang::accounts::program_account::ProgramAccount<T> as core::ops::deref::DerefMut>::deref_mut
; Function Attrs: nounwind
define align 8 dereferenceable(56) %"anchor_lang::idl::IdlAccount"* @"_ZN110_$LT$anchor_lang..accounts..program_account..ProgramAccount$LT$T$GT$$u20$as$u20$core..ops..deref..DerefMut$GT$9deref_mut17hc86cd494916eda8aE"(i64** align 8 dereferenceable(8) %self) unnamed_addr #1 !dbg !304 {
start:
  %self.dbg.spill = alloca i64**, align 8
  store i64** %self, i64*** %self.dbg.spill, align 8
  call void @llvm.dbg.declare(metadata i64*** %self.dbg.spill, metadata !418, metadata !DIExpression()), !dbg !419
  %_6 = bitcast i64** %self to %"anchor_lang::accounts::program_account::Inner<anchor_lang::idl::IdlAccount>"**, !dbg !420
; call <alloc::boxed::Box<T,A> as core::ops::deref::DerefMut>::deref_mut
  %_4 = call align 8 dereferenceable(104) %"anchor_lang::accounts::program_account::Inner<anchor_lang::idl::IdlAccount>"* @"_ZN77_$LT$alloc..boxed..Box$LT$T$C$A$GT$$u20$as$u20$core..ops..deref..DerefMut$GT$9deref_mut17h67cc8f95ab78203aE"(%"anchor_lang::accounts::program_account::Inner<anchor_lang::idl::IdlAccount>"** align 8 dereferenceable(8) %_6), !dbg !421
  br label %bb1, !dbg !421

bb1:                                              ; preds = %start
  %_3 = getelementptr inbounds %"anchor_lang::accounts::program_account::Inner<anchor_lang::idl::IdlAccount>", %"anchor_lang::accounts::program_account::Inner<anchor_lang::idl::IdlAccount>"* %_4, i32 0, i32 1, !dbg !422
  ret %"anchor_lang::idl::IdlAccount"* %_3, !dbg !423
}

; anchor_lang::context::Context<T>::new
; Function Attrs: nounwind
define void @"_ZN11anchor_lang7context16Context$LT$T$GT$3new17h8724a48eb4dfecf9E"(%"anchor_lang::context::Context<VendingMachine>"* noalias nocapture sret(%"anchor_lang::context::Context<VendingMachine>") dereferenceable(32) %0, %"anchor_lang::prelude::Pubkey"* align 1 dereferenceable(32) %program_id, %VendingMachine* align 8 dereferenceable(256) %accounts, [0 x %"anchor_lang::prelude::AccountInfo"]* nonnull align 8 %remaining_accounts.0, i64 %remaining_accounts.1) unnamed_addr #1 !dbg !424 {
start:
  %remaining_accounts.dbg.spill = alloca { [0 x %"anchor_lang::prelude::AccountInfo"]*, i64 }, align 8
  %accounts.dbg.spill = alloca %VendingMachine*, align 8
  %program_id.dbg.spill = alloca %"anchor_lang::prelude::Pubkey"*, align 8
  store %"anchor_lang::prelude::Pubkey"* %program_id, %"anchor_lang::prelude::Pubkey"** %program_id.dbg.spill, align 8
  call void @llvm.dbg.declare(metadata %"anchor_lang::prelude::Pubkey"** %program_id.dbg.spill, metadata !488, metadata !DIExpression()), !dbg !491
  store %VendingMachine* %accounts, %VendingMachine** %accounts.dbg.spill, align 8
  call void @llvm.dbg.declare(metadata %VendingMachine** %accounts.dbg.spill, metadata !489, metadata !DIExpression()), !dbg !492
  %1 = getelementptr inbounds { [0 x %"anchor_lang::prelude::AccountInfo"]*, i64 }, { [0 x %"anchor_lang::prelude::AccountInfo"]*, i64 }* %remaining_accounts.dbg.spill, i32 0, i32 0
  store [0 x %"anchor_lang::prelude::AccountInfo"]* %remaining_accounts.0, [0 x %"anchor_lang::prelude::AccountInfo"]** %1, align 8
  %2 = getelementptr inbounds { [0 x %"anchor_lang::prelude::AccountInfo"]*, i64 }, { [0 x %"anchor_lang::prelude::AccountInfo"]*, i64 }* %remaining_accounts.dbg.spill, i32 0, i32 1
  store i64 %remaining_accounts.1, i64* %2, align 8
  call void @llvm.dbg.declare(metadata { [0 x %"anchor_lang::prelude::AccountInfo"]*, i64 }* %remaining_accounts.dbg.spill, metadata !490, metadata !DIExpression()), !dbg !493
  %3 = bitcast %"anchor_lang::context::Context<VendingMachine>"* %0 to %"anchor_lang::prelude::Pubkey"**, !dbg !494
  store %"anchor_lang::prelude::Pubkey"* %program_id, %"anchor_lang::prelude::Pubkey"** %3, align 8, !dbg !494
  %4 = getelementptr inbounds %"anchor_lang::context::Context<VendingMachine>", %"anchor_lang::context::Context<VendingMachine>"* %0, i32 0, i32 1, !dbg !494
  store %VendingMachine* %accounts, %VendingMachine** %4, align 8, !dbg !494
  %5 = getelementptr inbounds %"anchor_lang::context::Context<VendingMachine>", %"anchor_lang::context::Context<VendingMachine>"* %0, i32 0, i32 2, !dbg !494
  %6 = getelementptr inbounds { [0 x %"anchor_lang::prelude::AccountInfo"]*, i64 }, { [0 x %"anchor_lang::prelude::AccountInfo"]*, i64 }* %5, i32 0, i32 0, !dbg !494
  store [0 x %"anchor_lang::prelude::AccountInfo"]* %remaining_accounts.0, [0 x %"anchor_lang::prelude::AccountInfo"]** %6, align 8, !dbg !494
  %7 = getelementptr inbounds { [0 x %"anchor_lang::prelude::AccountInfo"]*, i64 }, { [0 x %"anchor_lang::prelude::AccountInfo"]*, i64 }* %5, i32 0, i32 1, !dbg !494
  store i64 %remaining_accounts.1, i64* %7, align 8, !dbg !494
  ret void, !dbg !495
}

; anchor_lang::context::Context<T>::new
; Function Attrs: nounwind
define void @"_ZN11anchor_lang7context16Context$LT$T$GT$3new17hc1a95453e03f99faE"(%"anchor_lang::context::Context<AddDrink>"* noalias nocapture sret(%"anchor_lang::context::Context<AddDrink>") dereferenceable(32) %0, %"anchor_lang::prelude::Pubkey"* align 1 dereferenceable(32) %program_id, %AddDrink* align 8 dereferenceable(120) %accounts, [0 x %"anchor_lang::prelude::AccountInfo"]* nonnull align 8 %remaining_accounts.0, i64 %remaining_accounts.1) unnamed_addr #1 !dbg !496 {
start:
  %remaining_accounts.dbg.spill = alloca { [0 x %"anchor_lang::prelude::AccountInfo"]*, i64 }, align 8
  %accounts.dbg.spill = alloca %AddDrink*, align 8
  %program_id.dbg.spill = alloca %"anchor_lang::prelude::Pubkey"*, align 8
  store %"anchor_lang::prelude::Pubkey"* %program_id, %"anchor_lang::prelude::Pubkey"** %program_id.dbg.spill, align 8
  call void @llvm.dbg.declare(metadata %"anchor_lang::prelude::Pubkey"** %program_id.dbg.spill, metadata !511, metadata !DIExpression()), !dbg !514
  store %AddDrink* %accounts, %AddDrink** %accounts.dbg.spill, align 8
  call void @llvm.dbg.declare(metadata %AddDrink** %accounts.dbg.spill, metadata !512, metadata !DIExpression()), !dbg !515
  %1 = getelementptr inbounds { [0 x %"anchor_lang::prelude::AccountInfo"]*, i64 }, { [0 x %"anchor_lang::prelude::AccountInfo"]*, i64 }* %remaining_accounts.dbg.spill, i32 0, i32 0
  store [0 x %"anchor_lang::prelude::AccountInfo"]* %remaining_accounts.0, [0 x %"anchor_lang::prelude::AccountInfo"]** %1, align 8
  %2 = getelementptr inbounds { [0 x %"anchor_lang::prelude::AccountInfo"]*, i64 }, { [0 x %"anchor_lang::prelude::AccountInfo"]*, i64 }* %remaining_accounts.dbg.spill, i32 0, i32 1
  store i64 %remaining_accounts.1, i64* %2, align 8
  call void @llvm.dbg.declare(metadata { [0 x %"anchor_lang::prelude::AccountInfo"]*, i64 }* %remaining_accounts.dbg.spill, metadata !513, metadata !DIExpression()), !dbg !516
  %3 = bitcast %"anchor_lang::context::Context<AddDrink>"* %0 to %"anchor_lang::prelude::Pubkey"**, !dbg !517
  store %"anchor_lang::prelude::Pubkey"* %program_id, %"anchor_lang::prelude::Pubkey"** %3, align 8, !dbg !517
  %4 = getelementptr inbounds %"anchor_lang::context::Context<AddDrink>", %"anchor_lang::context::Context<AddDrink>"* %0, i32 0, i32 1, !dbg !517
  store %AddDrink* %accounts, %AddDrink** %4, align 8, !dbg !517
  %5 = getelementptr inbounds %"anchor_lang::context::Context<AddDrink>", %"anchor_lang::context::Context<AddDrink>"* %0, i32 0, i32 2, !dbg !517
  %6 = getelementptr inbounds { [0 x %"anchor_lang::prelude::AccountInfo"]*, i64 }, { [0 x %"anchor_lang::prelude::AccountInfo"]*, i64 }* %5, i32 0, i32 0, !dbg !517
  store [0 x %"anchor_lang::prelude::AccountInfo"]* %remaining_accounts.0, [0 x %"anchor_lang::prelude::AccountInfo"]** %6, align 8, !dbg !517
  %7 = getelementptr inbounds { [0 x %"anchor_lang::prelude::AccountInfo"]*, i64 }, { [0 x %"anchor_lang::prelude::AccountInfo"]*, i64 }* %5, i32 0, i32 1, !dbg !517
  store i64 %remaining_accounts.1, i64* %7, align 8, !dbg !517
  ret void, !dbg !518
}

; anchor_lang::accounts::account::Account<T>::try_from_unchecked
; Function Attrs: noinline nounwind
define void @"_ZN11anchor_lang8accounts7account16Account$LT$T$GT$18try_from_unchecked17h7a4ed3cb9c18d520E"(%"std::result::Result<anchor_lang::prelude::Account<Vending>, anchor_lang::prelude::ProgramError>"* noalias nocapture sret(%"std::result::Result<anchor_lang::prelude::Account<Vending>, anchor_lang::prelude::ProgramError>") dereferenceable(128) %0, %"anchor_lang::prelude::AccountInfo"* align 8 dereferenceable(48) %info) unnamed_addr #2 !dbg !519 {
start:
  %val.dbg.spill = alloca { i64*, i64* }, align 8
  %info.dbg.spill = alloca %"anchor_lang::prelude::AccountInfo"*, align 8
  %val = alloca %Vending, align 8
  %_42 = alloca %"std::result::Result<std::convert::Infallible, anchor_lang::prelude::ProgramError>::Err", align 8
  %residual1 = alloca %"std::result::Result<std::convert::Infallible, anchor_lang::prelude::ProgramError>::Err", align 8
  %_37 = alloca %"std::result::Result<Vending, anchor_lang::prelude::ProgramError>", align 8
  %_36 = alloca %"std::ops::ControlFlow<std::result::Result<std::convert::Infallible, anchor_lang::prelude::ProgramError>, Vending>", align 8
  %_35 = alloca %Vending, align 8
  %_33 = alloca %"anchor_lang::prelude::AccountInfo", align 8
  %_32 = alloca %"anchor_lang::prelude::Account<Vending>", align 8
  %_30 = alloca %"std::result::Result<std::convert::Infallible, anchor_lang::prelude::ProgramError>::Err", align 8
  %residual = alloca %"std::result::Result<std::convert::Infallible, anchor_lang::prelude::ProgramError>::Err", align 8
  %_26 = alloca %"std::result::Result<std::cell::Ref<&mut [u8]>, anchor_lang::prelude::ProgramError>", align 8
  %_25 = alloca %"std::ops::ControlFlow<std::result::Result<std::convert::Infallible, anchor_lang::prelude::ProgramError>, std::cell::Ref<&mut [u8]>>", align 8
  %_24 = alloca { i64*, i64* }, align 8
  %data = alloca { [0 x i8]*, i64 }, align 8
  %_19 = alloca i32, align 4
  %_18 = alloca %"anchor_lang::prelude::ProgramError", align 8
  %_17 = alloca %"anchor_lang::prelude::Pubkey", align 1
  %_16 = alloca %"anchor_lang::prelude::Pubkey"*, align 8
  %_12 = alloca i32, align 4
  %_11 = alloca %"anchor_lang::prelude::ProgramError", align 8
  %_6 = alloca %"anchor_lang::prelude::Pubkey"*, align 8
  %_2 = alloca i8, align 1
  store %"anchor_lang::prelude::AccountInfo"* %info, %"anchor_lang::prelude::AccountInfo"** %info.dbg.spill, align 8
  call void @llvm.dbg.declare(metadata %"anchor_lang::prelude::AccountInfo"** %info.dbg.spill, metadata !591, metadata !DIExpression()), !dbg !629
  call void @llvm.dbg.declare(metadata { [0 x i8]*, i64 }* %data, metadata !592, metadata !DIExpression()), !dbg !630
  call void @llvm.dbg.declare(metadata %"std::result::Result<std::convert::Infallible, anchor_lang::prelude::ProgramError>::Err"* %residual, metadata !598, metadata !DIExpression()), !dbg !631
  call void @llvm.dbg.declare(metadata %"std::result::Result<std::convert::Infallible, anchor_lang::prelude::ProgramError>::Err"* %residual1, metadata !625, metadata !DIExpression()), !dbg !632
  call void @llvm.dbg.declare(metadata %Vending* %val, metadata !627, metadata !DIExpression()), !dbg !633
  %_4 = getelementptr inbounds %"anchor_lang::prelude::AccountInfo", %"anchor_lang::prelude::AccountInfo"* %info, i32 0, i32 3, !dbg !634
  store %"anchor_lang::prelude::Pubkey"* @_ZN14solana_program14system_program2ID17h5cfa1b916bb74456E, %"anchor_lang::prelude::Pubkey"** %_6, align 8, !dbg !635
; call core::cmp::impls::<impl core::cmp::PartialEq<&B> for &A>::eq
  %_3 = call zeroext i1 @"_ZN4core3cmp5impls69_$LT$impl$u20$core..cmp..PartialEq$LT$$RF$B$GT$$u20$for$u20$$RF$A$GT$2eq17ha16fd482b03a22d7E"(%"anchor_lang::prelude::Pubkey"** align 8 dereferenceable(8) %_4, %"anchor_lang::prelude::Pubkey"** align 8 dereferenceable(8) %_6), !dbg !634
  br label %bb4, !dbg !634

bb4:                                              ; preds = %start
  br i1 %_3, label %bb2, label %bb1, !dbg !634

bb1:                                              ; preds = %bb4
  store i8 0, i8* %_2, align 1, !dbg !634
  br label %bb3, !dbg !634

bb2:                                              ; preds = %bb4
; call solana_program::account_info::AccountInfo::lamports
  %_9 = call i64 @_ZN14solana_program12account_info11AccountInfo8lamports17h7774cfc4d55c7562E(%"anchor_lang::prelude::AccountInfo"* align 8 dereferenceable(48) %info), !dbg !636
  br label %bb5, !dbg !636

bb5:                                              ; preds = %bb2
  %_8 = icmp eq i64 %_9, 0, !dbg !636
  %1 = zext i1 %_8 to i8, !dbg !634
  store i8 %1, i8* %_2, align 1, !dbg !634
  br label %bb3, !dbg !634

bb3:                                              ; preds = %bb1, %bb5
  %2 = load i8, i8* %_2, align 1, !dbg !634, !range !637
  %3 = trunc i8 %2 to i1, !dbg !634
  br i1 %3, label %bb6, label %bb8, !dbg !634

bb8:                                              ; preds = %bb3
  %_14 = getelementptr inbounds %"anchor_lang::prelude::AccountInfo", %"anchor_lang::prelude::AccountInfo"* %info, i32 0, i32 3, !dbg !638
; call <vending_machine::Vending as anchor_lang::Owner>::owner
  call void @"_ZN63_$LT$vending_machine..Vending$u20$as$u20$anchor_lang..Owner$GT$5owner17h64b04e2cfbd9abc7E"(%"anchor_lang::prelude::Pubkey"* noalias nocapture sret(%"anchor_lang::prelude::Pubkey") dereferenceable(32) %_17), !dbg !639
  br label %bb9, !dbg !639

bb6:                                              ; preds = %bb3
  store i32 3012, i32* %_12, align 4, !dbg !640
  %4 = load i32, i32* %_12, align 4, !dbg !640, !range !641
; call <T as core::convert::Into<U>>::into
  call void @"_ZN50_$LT$T$u20$as$u20$core..convert..Into$LT$U$GT$$GT$4into17h0138ef29992ddf01E"(%"anchor_lang::prelude::ProgramError"* noalias nocapture sret(%"anchor_lang::prelude::ProgramError") dereferenceable(32) %_11, i32 %4), !dbg !640
  br label %bb7, !dbg !640

bb7:                                              ; preds = %bb6
  %5 = bitcast %"std::result::Result<anchor_lang::prelude::Account<Vending>, anchor_lang::prelude::ProgramError>"* %0 to %"std::result::Result<anchor_lang::prelude::Account<Vending>, anchor_lang::prelude::ProgramError>::Err"*, !dbg !642
  %6 = getelementptr inbounds %"std::result::Result<anchor_lang::prelude::Account<Vending>, anchor_lang::prelude::ProgramError>::Err", %"std::result::Result<anchor_lang::prelude::Account<Vending>, anchor_lang::prelude::ProgramError>::Err"* %5, i32 0, i32 1, !dbg !642
  %7 = bitcast %"anchor_lang::prelude::ProgramError"* %6 to i8*, !dbg !642
  %8 = bitcast %"anchor_lang::prelude::ProgramError"* %_11 to i8*, !dbg !642
  call void @llvm.memcpy.p0i8.p0i8.i64(i8* align 8 %7, i8* align 8 %8, i64 32, i1 false), !dbg !642
  %9 = bitcast %"std::result::Result<anchor_lang::prelude::Account<Vending>, anchor_lang::prelude::ProgramError>"* %0 to i64*, !dbg !642
  store i64 1, i64* %9, align 8, !dbg !642
  br label %bb32, !dbg !643

bb32:                                             ; preds = %bb29, %bb31, %bb19, %bb12, %bb7
  ret void, !dbg !645

bb9:                                              ; preds = %bb8
  store %"anchor_lang::prelude::Pubkey"* %_17, %"anchor_lang::prelude::Pubkey"** %_16, align 8, !dbg !646
; call core::cmp::impls::<impl core::cmp::PartialEq<&B> for &A>::ne
  %_13 = call zeroext i1 @"_ZN4core3cmp5impls69_$LT$impl$u20$core..cmp..PartialEq$LT$$RF$B$GT$$u20$for$u20$$RF$A$GT$2ne17h0954d9f7a236d3a7E"(%"anchor_lang::prelude::Pubkey"** align 8 dereferenceable(8) %_14, %"anchor_lang::prelude::Pubkey"** align 8 dereferenceable(8) %_16), !dbg !638
  br label %bb10, !dbg !638

bb10:                                             ; preds = %bb9
  br i1 %_13, label %bb11, label %bb13, !dbg !638

bb13:                                             ; preds = %bb10
; call solana_program::account_info::AccountInfo::try_borrow_data
  call void @_ZN14solana_program12account_info11AccountInfo15try_borrow_data17hdf0c8908b924002cE(%"std::result::Result<std::cell::Ref<&mut [u8]>, anchor_lang::prelude::ProgramError>"* noalias nocapture sret(%"std::result::Result<std::cell::Ref<&mut [u8]>, anchor_lang::prelude::ProgramError>") dereferenceable(40) %_26, %"anchor_lang::prelude::AccountInfo"* align 8 dereferenceable(48) %info), !dbg !647
  br label %bb14, !dbg !647

bb11:                                             ; preds = %bb10
  store i32 3007, i32* %_19, align 4, !dbg !648
  %10 = load i32, i32* %_19, align 4, !dbg !648, !range !641
; call <T as core::convert::Into<U>>::into
  call void @"_ZN50_$LT$T$u20$as$u20$core..convert..Into$LT$U$GT$$GT$4into17h0138ef29992ddf01E"(%"anchor_lang::prelude::ProgramError"* noalias nocapture sret(%"anchor_lang::prelude::ProgramError") dereferenceable(32) %_18, i32 %10), !dbg !648
  br label %bb12, !dbg !648

bb12:                                             ; preds = %bb11
  %11 = bitcast %"std::result::Result<anchor_lang::prelude::Account<Vending>, anchor_lang::prelude::ProgramError>"* %0 to %"std::result::Result<anchor_lang::prelude::Account<Vending>, anchor_lang::prelude::ProgramError>::Err"*, !dbg !649
  %12 = getelementptr inbounds %"std::result::Result<anchor_lang::prelude::Account<Vending>, anchor_lang::prelude::ProgramError>::Err", %"std::result::Result<anchor_lang::prelude::Account<Vending>, anchor_lang::prelude::ProgramError>::Err"* %11, i32 0, i32 1, !dbg !649
  %13 = bitcast %"anchor_lang::prelude::ProgramError"* %12 to i8*, !dbg !649
  %14 = bitcast %"anchor_lang::prelude::ProgramError"* %_18 to i8*, !dbg !649
  call void @llvm.memcpy.p0i8.p0i8.i64(i8* align 8 %13, i8* align 8 %14, i64 32, i1 false), !dbg !649
  %15 = bitcast %"std::result::Result<anchor_lang::prelude::Account<Vending>, anchor_lang::prelude::ProgramError>"* %0 to i64*, !dbg !649
  store i64 1, i64* %15, align 8, !dbg !649
  br label %bb32, !dbg !643

bb14:                                             ; preds = %bb13
; call <core::result::Result<T,E> as core::ops::try_trait::Try>::branch
  call void @"_ZN79_$LT$core..result..Result$LT$T$C$E$GT$$u20$as$u20$core..ops..try_trait..Try$GT$6branch17hf6eb9820a423d4eaE"(%"std::ops::ControlFlow<std::result::Result<std::convert::Infallible, anchor_lang::prelude::ProgramError>, std::cell::Ref<&mut [u8]>>"* noalias nocapture sret(%"std::ops::ControlFlow<std::result::Result<std::convert::Infallible, anchor_lang::prelude::ProgramError>, std::cell::Ref<&mut [u8]>>") dereferenceable(40) %_25, %"std::result::Result<std::cell::Ref<&mut [u8]>, anchor_lang::prelude::ProgramError>"* noalias nocapture dereferenceable(40) %_26), !dbg !647
  br label %bb15, !dbg !647

bb15:                                             ; preds = %bb14
  %16 = bitcast %"std::ops::ControlFlow<std::result::Result<std::convert::Infallible, anchor_lang::prelude::ProgramError>, std::cell::Ref<&mut [u8]>>"* %_25 to i64*, !dbg !647
  %_28 = load i64, i64* %16, align 8, !dbg !647, !range !302
  switch i64 %_28, label %bb17 [
    i64 0, label %bb16
    i64 1, label %bb18
  ], !dbg !647

bb17:                                             ; preds = %bb15
  unreachable, !dbg !647

bb16:                                             ; preds = %bb15
  %17 = bitcast %"std::ops::ControlFlow<std::result::Result<std::convert::Infallible, anchor_lang::prelude::ProgramError>, std::cell::Ref<&mut [u8]>>"* %_25 to %"std::ops::ControlFlow<std::result::Result<std::convert::Infallible, anchor_lang::prelude::ProgramError>, std::cell::Ref<&mut [u8]>>::Continue"*, !dbg !647
  %18 = getelementptr inbounds %"std::ops::ControlFlow<std::result::Result<std::convert::Infallible, anchor_lang::prelude::ProgramError>, std::cell::Ref<&mut [u8]>>::Continue", %"std::ops::ControlFlow<std::result::Result<std::convert::Infallible, anchor_lang::prelude::ProgramError>, std::cell::Ref<&mut [u8]>>::Continue"* %17, i32 0, i32 1, !dbg !647
  %19 = getelementptr inbounds { i64*, i64* }, { i64*, i64* }* %18, i32 0, i32 0, !dbg !647
  %val.0 = load i64*, i64** %19, align 8, !dbg !647, !nonnull !4
  %20 = getelementptr inbounds { i64*, i64* }, { i64*, i64* }* %18, i32 0, i32 1, !dbg !647
  %val.1 = load i64*, i64** %20, align 8, !dbg !647, !nonnull !4
  %21 = getelementptr inbounds { i64*, i64* }, { i64*, i64* }* %val.dbg.spill, i32 0, i32 0, !dbg !647
  store i64* %val.0, i64** %21, align 8, !dbg !647
  %22 = getelementptr inbounds { i64*, i64* }, { i64*, i64* }* %val.dbg.spill, i32 0, i32 1, !dbg !647
  store i64* %val.1, i64** %22, align 8, !dbg !647
  call void @llvm.dbg.declare(metadata { i64*, i64* }* %val.dbg.spill, metadata !614, metadata !DIExpression()), !dbg !650
  %23 = getelementptr inbounds { i64*, i64* }, { i64*, i64* }* %_24, i32 0, i32 0, !dbg !650
  store i64* %val.0, i64** %23, align 8, !dbg !650
  %24 = getelementptr inbounds { i64*, i64* }, { i64*, i64* }* %_24, i32 0, i32 1, !dbg !650
  store i64* %val.1, i64** %24, align 8, !dbg !650
; call <core::cell::Ref<T> as core::ops::deref::Deref>::deref
  %_21 = call align 8 dereferenceable(16) { [0 x i8]*, i64 }* @"_ZN68_$LT$core..cell..Ref$LT$T$GT$$u20$as$u20$core..ops..deref..Deref$GT$5deref17h93198c2cc7b284abE"({ i64*, i64* }* align 8 dereferenceable(16) %_24), !dbg !651
  br label %bb20, !dbg !651

bb18:                                             ; preds = %bb15
  %25 = bitcast %"std::ops::ControlFlow<std::result::Result<std::convert::Infallible, anchor_lang::prelude::ProgramError>, std::cell::Ref<&mut [u8]>>"* %_25 to %"std::ops::ControlFlow<std::result::Result<std::convert::Infallible, anchor_lang::prelude::ProgramError>, std::cell::Ref<&mut [u8]>>::Break"*, !dbg !652
  %26 = getelementptr inbounds %"std::ops::ControlFlow<std::result::Result<std::convert::Infallible, anchor_lang::prelude::ProgramError>, std::cell::Ref<&mut [u8]>>::Break", %"std::ops::ControlFlow<std::result::Result<std::convert::Infallible, anchor_lang::prelude::ProgramError>, std::cell::Ref<&mut [u8]>>::Break"* %25, i32 0, i32 1, !dbg !652
  %27 = bitcast %"std::result::Result<std::convert::Infallible, anchor_lang::prelude::ProgramError>::Err"* %residual to i8*, !dbg !652
  %28 = bitcast %"std::result::Result<std::convert::Infallible, anchor_lang::prelude::ProgramError>::Err"* %26 to i8*, !dbg !652
  call void @llvm.memcpy.p0i8.p0i8.i64(i8* align 8 %27, i8* align 8 %28, i64 32, i1 false), !dbg !652
  %29 = bitcast %"std::result::Result<std::convert::Infallible, anchor_lang::prelude::ProgramError>::Err"* %_30 to i8*, !dbg !631
  %30 = bitcast %"std::result::Result<std::convert::Infallible, anchor_lang::prelude::ProgramError>::Err"* %residual to i8*, !dbg !631
  call void @llvm.memcpy.p0i8.p0i8.i64(i8* align 8 %29, i8* align 8 %30, i64 32, i1 false), !dbg !631
; call <core::result::Result<T,F> as core::ops::try_trait::FromResidual<core::result::Result<core::convert::Infallible,E>>>::from_residual
  call void @"_ZN153_$LT$core..result..Result$LT$T$C$F$GT$$u20$as$u20$core..ops..try_trait..FromResidual$LT$core..result..Result$LT$core..convert..Infallible$C$E$GT$$GT$$GT$13from_residual17hbc6a978433ef2318E"(%"std::result::Result<anchor_lang::prelude::Account<Vending>, anchor_lang::prelude::ProgramError>"* noalias nocapture sret(%"std::result::Result<anchor_lang::prelude::Account<Vending>, anchor_lang::prelude::ProgramError>") dereferenceable(128) %0, %"std::result::Result<std::convert::Infallible, anchor_lang::prelude::ProgramError>::Err"* noalias nocapture dereferenceable(32) %_30), !dbg !653
  br label %bb19, !dbg !653

bb19:                                             ; preds = %bb18
  br label %bb32, !dbg !643

bb20:                                             ; preds = %bb16
  %31 = getelementptr inbounds { [0 x i8]*, i64 }, { [0 x i8]*, i64 }* %_21, i32 0, i32 0, !dbg !651
  %32 = load [0 x i8]*, [0 x i8]** %31, align 8, !dbg !651, !nonnull !4
  %33 = getelementptr inbounds { [0 x i8]*, i64 }, { [0 x i8]*, i64 }* %_21, i32 0, i32 1, !dbg !651
  %34 = load i64, i64* %33, align 8, !dbg !651
  %35 = getelementptr inbounds { [0 x i8]*, i64 }, { [0 x i8]*, i64 }* %data, i32 0, i32 0, !dbg !651
  store [0 x i8]* %32, [0 x i8]** %35, align 8, !dbg !651
  %36 = getelementptr inbounds { [0 x i8]*, i64 }, { [0 x i8]*, i64 }* %data, i32 0, i32 1, !dbg !651
  store i64 %34, i64* %36, align 8, !dbg !651
; call <solana_program::account_info::AccountInfo as core::clone::Clone>::clone
  call void @"_ZN80_$LT$solana_program..account_info..AccountInfo$u20$as$u20$core..clone..Clone$GT$5clone17h39bb4a3ebfdaeef3E"(%"anchor_lang::prelude::AccountInfo"* noalias nocapture sret(%"anchor_lang::prelude::AccountInfo") dereferenceable(48) %_33, %"anchor_lang::prelude::AccountInfo"* align 8 dereferenceable(48) %info), !dbg !654
  br label %bb21, !dbg !654

bb21:                                             ; preds = %bb20
; call <vending_machine::Vending as anchor_lang::AccountDeserialize>::try_deserialize_unchecked
  call void @"_ZN76_$LT$vending_machine..Vending$u20$as$u20$anchor_lang..AccountDeserialize$GT$25try_deserialize_unchecked17h24114fc8204f0c11E"(%"std::result::Result<Vending, anchor_lang::prelude::ProgramError>"* noalias nocapture sret(%"std::result::Result<Vending, anchor_lang::prelude::ProgramError>") dereferenceable(80) %_37, { [0 x i8]*, i64 }* align 8 dereferenceable(16) %data), !dbg !655
  br label %bb22, !dbg !655

bb22:                                             ; preds = %bb21
; call <core::result::Result<T,E> as core::ops::try_trait::Try>::branch
  call void @"_ZN79_$LT$core..result..Result$LT$T$C$E$GT$$u20$as$u20$core..ops..try_trait..Try$GT$6branch17h8069e28b39214ddfE"(%"std::ops::ControlFlow<std::result::Result<std::convert::Infallible, anchor_lang::prelude::ProgramError>, Vending>"* noalias nocapture sret(%"std::ops::ControlFlow<std::result::Result<std::convert::Infallible, anchor_lang::prelude::ProgramError>, Vending>") dereferenceable(80) %_36, %"std::result::Result<Vending, anchor_lang::prelude::ProgramError>"* noalias nocapture dereferenceable(80) %_37), !dbg !655
  br label %bb23, !dbg !655

bb23:                                             ; preds = %bb22
  %37 = bitcast %"std::ops::ControlFlow<std::result::Result<std::convert::Infallible, anchor_lang::prelude::ProgramError>, Vending>"* %_36 to i64*, !dbg !655
  %_40 = load i64, i64* %37, align 8, !dbg !655, !range !302
  switch i64 %_40, label %bb25 [
    i64 0, label %bb24
    i64 1, label %bb26
  ], !dbg !655

bb25:                                             ; preds = %bb23
  unreachable, !dbg !655

bb24:                                             ; preds = %bb23
  %38 = bitcast %"std::ops::ControlFlow<std::result::Result<std::convert::Infallible, anchor_lang::prelude::ProgramError>, Vending>"* %_36 to %"std::ops::ControlFlow<std::result::Result<std::convert::Infallible, anchor_lang::prelude::ProgramError>, Vending>::Continue"*, !dbg !655
  %39 = getelementptr inbounds %"std::ops::ControlFlow<std::result::Result<std::convert::Infallible, anchor_lang::prelude::ProgramError>, Vending>::Continue", %"std::ops::ControlFlow<std::result::Result<std::convert::Infallible, anchor_lang::prelude::ProgramError>, Vending>::Continue"* %38, i32 0, i32 1, !dbg !655
  %40 = bitcast %Vending* %val to i8*, !dbg !655
  %41 = bitcast %Vending* %39 to i8*, !dbg !655
  call void @llvm.memcpy.p0i8.p0i8.i64(i8* align 8 %40, i8* align 8 %41, i64 72, i1 false), !dbg !655
  %42 = bitcast %Vending* %_35 to i8*, !dbg !633
  %43 = bitcast %Vending* %val to i8*, !dbg !633
  call void @llvm.memcpy.p0i8.p0i8.i64(i8* align 8 %42, i8* align 8 %43, i64 72, i1 false), !dbg !633
; call anchor_lang::accounts::account::Account<T>::new
  call void @"_ZN11anchor_lang8accounts7account16Account$LT$T$GT$3new17ha2dd180aab394249E"(%"anchor_lang::prelude::Account<Vending>"* noalias nocapture sret(%"anchor_lang::prelude::Account<Vending>") dereferenceable(120) %_32, %"anchor_lang::prelude::AccountInfo"* noalias nocapture dereferenceable(48) %_33, %Vending* noalias nocapture dereferenceable(72) %_35), !dbg !656
  br label %bb28, !dbg !656

bb26:                                             ; preds = %bb23
  %44 = bitcast %"std::ops::ControlFlow<std::result::Result<std::convert::Infallible, anchor_lang::prelude::ProgramError>, Vending>"* %_36 to %"std::ops::ControlFlow<std::result::Result<std::convert::Infallible, anchor_lang::prelude::ProgramError>, Vending>::Break"*, !dbg !657
  %45 = getelementptr inbounds %"std::ops::ControlFlow<std::result::Result<std::convert::Infallible, anchor_lang::prelude::ProgramError>, Vending>::Break", %"std::ops::ControlFlow<std::result::Result<std::convert::Infallible, anchor_lang::prelude::ProgramError>, Vending>::Break"* %44, i32 0, i32 1, !dbg !657
  %46 = bitcast %"std::result::Result<std::convert::Infallible, anchor_lang::prelude::ProgramError>::Err"* %residual1 to i8*, !dbg !657
  %47 = bitcast %"std::result::Result<std::convert::Infallible, anchor_lang::prelude::ProgramError>::Err"* %45 to i8*, !dbg !657
  call void @llvm.memcpy.p0i8.p0i8.i64(i8* align 8 %46, i8* align 8 %47, i64 32, i1 false), !dbg !657
  %48 = bitcast %"std::result::Result<std::convert::Infallible, anchor_lang::prelude::ProgramError>::Err"* %_42 to i8*, !dbg !632
  %49 = bitcast %"std::result::Result<std::convert::Infallible, anchor_lang::prelude::ProgramError>::Err"* %residual1 to i8*, !dbg !632
  call void @llvm.memcpy.p0i8.p0i8.i64(i8* align 8 %48, i8* align 8 %49, i64 32, i1 false), !dbg !632
; call <core::result::Result<T,F> as core::ops::try_trait::FromResidual<core::result::Result<core::convert::Infallible,E>>>::from_residual
  call void @"_ZN153_$LT$core..result..Result$LT$T$C$F$GT$$u20$as$u20$core..ops..try_trait..FromResidual$LT$core..result..Result$LT$core..convert..Infallible$C$E$GT$$GT$$GT$13from_residual17hbc6a978433ef2318E"(%"std::result::Result<anchor_lang::prelude::Account<Vending>, anchor_lang::prelude::ProgramError>"* noalias nocapture sret(%"std::result::Result<anchor_lang::prelude::Account<Vending>, anchor_lang::prelude::ProgramError>") dereferenceable(128) %0, %"std::result::Result<std::convert::Infallible, anchor_lang::prelude::ProgramError>::Err"* noalias nocapture dereferenceable(32) %_42), !dbg !658
  br label %bb27, !dbg !658

bb27:                                             ; preds = %bb26
; call core::ptr::drop_in_place<solana_program::account_info::AccountInfo>
  call void @"_ZN4core3ptr62drop_in_place$LT$solana_program..account_info..AccountInfo$GT$17h45824e34f3b7d08cE"(%"anchor_lang::prelude::AccountInfo"* %_33), !dbg !659
  br label %bb30, !dbg !659

bb30:                                             ; preds = %bb27
; call core::ptr::drop_in_place<core::cell::Ref<&mut [u8]>>
  call void @"_ZN4core3ptr68drop_in_place$LT$core..cell..Ref$LT$$RF$mut$u20$$u5b$u8$u5d$$GT$$GT$17h75bd46d31722c5c0E"({ i64*, i64* }* %_24), !dbg !660
  br label %bb31, !dbg !660

bb31:                                             ; preds = %bb30
  br label %bb32, !dbg !643

bb28:                                             ; preds = %bb24
  %50 = bitcast %"std::result::Result<anchor_lang::prelude::Account<Vending>, anchor_lang::prelude::ProgramError>"* %0 to %"std::result::Result<anchor_lang::prelude::Account<Vending>, anchor_lang::prelude::ProgramError>::Ok"*, !dbg !661
  %51 = getelementptr inbounds %"std::result::Result<anchor_lang::prelude::Account<Vending>, anchor_lang::prelude::ProgramError>::Ok", %"std::result::Result<anchor_lang::prelude::Account<Vending>, anchor_lang::prelude::ProgramError>::Ok"* %50, i32 0, i32 1, !dbg !661
  %52 = bitcast %"anchor_lang::prelude::Account<Vending>"* %51 to i8*, !dbg !661
  %53 = bitcast %"anchor_lang::prelude::Account<Vending>"* %_32 to i8*, !dbg !661
  call void @llvm.memcpy.p0i8.p0i8.i64(i8* align 8 %52, i8* align 8 %53, i64 120, i1 false), !dbg !661
  %54 = bitcast %"std::result::Result<anchor_lang::prelude::Account<Vending>, anchor_lang::prelude::ProgramError>"* %0 to i64*, !dbg !661
  store i64 0, i64* %54, align 8, !dbg !661
; call core::ptr::drop_in_place<core::cell::Ref<&mut [u8]>>
  call void @"_ZN4core3ptr68drop_in_place$LT$core..cell..Ref$LT$$RF$mut$u20$$u5b$u8$u5d$$GT$$GT$17h75bd46d31722c5c0E"({ i64*, i64* }* %_24), !dbg !660
  br label %bb29, !dbg !660

bb29:                                             ; preds = %bb28
  br label %bb32, !dbg !645
}

; anchor_lang::accounts::account::Account<T>::new
; Function Attrs: nounwind
define void @"_ZN11anchor_lang8accounts7account16Account$LT$T$GT$3new17ha2dd180aab394249E"(%"anchor_lang::prelude::Account<Vending>"* noalias nocapture sret(%"anchor_lang::prelude::Account<Vending>") dereferenceable(120) %0, %"anchor_lang::prelude::AccountInfo"* noalias nocapture dereferenceable(48) %info, %Vending* noalias nocapture dereferenceable(72) %account) unnamed_addr #1 !dbg !662 {
start:
  %_4 = alloca %Vending, align 8
  %_3 = alloca %"anchor_lang::prelude::AccountInfo", align 8
  call void @llvm.dbg.declare(metadata %"anchor_lang::prelude::AccountInfo"* %info, metadata !666, metadata !DIExpression()), !dbg !668
  call void @llvm.dbg.declare(metadata %Vending* %account, metadata !667, metadata !DIExpression()), !dbg !669
  %1 = bitcast %"anchor_lang::prelude::AccountInfo"* %_3 to i8*, !dbg !670
  %2 = bitcast %"anchor_lang::prelude::AccountInfo"* %info to i8*, !dbg !670
  call void @llvm.memcpy.p0i8.p0i8.i64(i8* align 8 %1, i8* align 8 %2, i64 48, i1 false), !dbg !670
  %3 = bitcast %Vending* %_4 to i8*, !dbg !671
  %4 = bitcast %Vending* %account to i8*, !dbg !671
  call void @llvm.memcpy.p0i8.p0i8.i64(i8* align 8 %3, i8* align 8 %4, i64 72, i1 false), !dbg !671
  %5 = bitcast %"anchor_lang::prelude::Account<Vending>"* %0 to %Vending*, !dbg !672
  %6 = bitcast %Vending* %5 to i8*, !dbg !672
  %7 = bitcast %Vending* %_4 to i8*, !dbg !672
  call void @llvm.memcpy.p0i8.p0i8.i64(i8* align 8 %6, i8* align 8 %7, i64 72, i1 false), !dbg !672
  %8 = getelementptr inbounds %"anchor_lang::prelude::Account<Vending>", %"anchor_lang::prelude::Account<Vending>"* %0, i32 0, i32 1, !dbg !672
  %9 = bitcast %"anchor_lang::prelude::AccountInfo"* %8 to i8*, !dbg !672
  %10 = bitcast %"anchor_lang::prelude::AccountInfo"* %_3 to i8*, !dbg !672
  call void @llvm.memcpy.p0i8.p0i8.i64(i8* align 8 %9, i8* align 8 %10, i64 48, i1 false), !dbg !672
  ret void, !dbg !673
}

; anchor_lang::accounts::account::Account<T>::try_from
; Function Attrs: noinline nounwind
define void @"_ZN11anchor_lang8accounts7account16Account$LT$T$GT$8try_from17h2ff5e1ba3730c669E"(%"std::result::Result<anchor_lang::prelude::Account<Vending>, anchor_lang::prelude::ProgramError>"* noalias nocapture sret(%"std::result::Result<anchor_lang::prelude::Account<Vending>, anchor_lang::prelude::ProgramError>") dereferenceable(128) %0, %"anchor_lang::prelude::AccountInfo"* align 8 dereferenceable(48) %info) unnamed_addr #2 !dbg !674 {
start:
  %val.dbg.spill = alloca { i64*, i64* }, align 8
  %info.dbg.spill = alloca %"anchor_lang::prelude::AccountInfo"*, align 8
  %val = alloca %Vending, align 8
  %_42 = alloca %"std::result::Result<std::convert::Infallible, anchor_lang::prelude::ProgramError>::Err", align 8
  %residual1 = alloca %"std::result::Result<std::convert::Infallible, anchor_lang::prelude::ProgramError>::Err", align 8
  %_37 = alloca %"std::result::Result<Vending, anchor_lang::prelude::ProgramError>", align 8
  %_36 = alloca %"std::ops::ControlFlow<std::result::Result<std::convert::Infallible, anchor_lang::prelude::ProgramError>, Vending>", align 8
  %_35 = alloca %Vending, align 8
  %_33 = alloca %"anchor_lang::prelude::AccountInfo", align 8
  %_32 = alloca %"anchor_lang::prelude::Account<Vending>", align 8
  %_30 = alloca %"std::result::Result<std::convert::Infallible, anchor_lang::prelude::ProgramError>::Err", align 8
  %residual = alloca %"std::result::Result<std::convert::Infallible, anchor_lang::prelude::ProgramError>::Err", align 8
  %_26 = alloca %"std::result::Result<std::cell::Ref<&mut [u8]>, anchor_lang::prelude::ProgramError>", align 8
  %_25 = alloca %"std::ops::ControlFlow<std::result::Result<std::convert::Infallible, anchor_lang::prelude::ProgramError>, std::cell::Ref<&mut [u8]>>", align 8
  %_24 = alloca { i64*, i64* }, align 8
  %data = alloca { [0 x i8]*, i64 }, align 8
  %_19 = alloca i32, align 4
  %_18 = alloca %"anchor_lang::prelude::ProgramError", align 8
  %_17 = alloca %"anchor_lang::prelude::Pubkey", align 1
  %_16 = alloca %"anchor_lang::prelude::Pubkey"*, align 8
  %_12 = alloca i32, align 4
  %_11 = alloca %"anchor_lang::prelude::ProgramError", align 8
  %_6 = alloca %"anchor_lang::prelude::Pubkey"*, align 8
  %_2 = alloca i8, align 1
  store %"anchor_lang::prelude::AccountInfo"* %info, %"anchor_lang::prelude::AccountInfo"** %info.dbg.spill, align 8
  call void @llvm.dbg.declare(metadata %"anchor_lang::prelude::AccountInfo"** %info.dbg.spill, metadata !676, metadata !DIExpression()), !dbg !687
  call void @llvm.dbg.declare(metadata { [0 x i8]*, i64 }* %data, metadata !677, metadata !DIExpression()), !dbg !688
  call void @llvm.dbg.declare(metadata %"std::result::Result<std::convert::Infallible, anchor_lang::prelude::ProgramError>::Err"* %residual, metadata !679, metadata !DIExpression()), !dbg !689
  call void @llvm.dbg.declare(metadata %"std::result::Result<std::convert::Infallible, anchor_lang::prelude::ProgramError>::Err"* %residual1, metadata !683, metadata !DIExpression()), !dbg !690
  call void @llvm.dbg.declare(metadata %Vending* %val, metadata !685, metadata !DIExpression()), !dbg !691
  %_4 = getelementptr inbounds %"anchor_lang::prelude::AccountInfo", %"anchor_lang::prelude::AccountInfo"* %info, i32 0, i32 3, !dbg !692
  store %"anchor_lang::prelude::Pubkey"* @_ZN14solana_program14system_program2ID17h5cfa1b916bb74456E, %"anchor_lang::prelude::Pubkey"** %_6, align 8, !dbg !693
; call core::cmp::impls::<impl core::cmp::PartialEq<&B> for &A>::eq
  %_3 = call zeroext i1 @"_ZN4core3cmp5impls69_$LT$impl$u20$core..cmp..PartialEq$LT$$RF$B$GT$$u20$for$u20$$RF$A$GT$2eq17ha16fd482b03a22d7E"(%"anchor_lang::prelude::Pubkey"** align 8 dereferenceable(8) %_4, %"anchor_lang::prelude::Pubkey"** align 8 dereferenceable(8) %_6), !dbg !692
  br label %bb4, !dbg !692

bb4:                                              ; preds = %start
  br i1 %_3, label %bb2, label %bb1, !dbg !692

bb1:                                              ; preds = %bb4
  store i8 0, i8* %_2, align 1, !dbg !692
  br label %bb3, !dbg !692

bb2:                                              ; preds = %bb4
; call solana_program::account_info::AccountInfo::lamports
  %_9 = call i64 @_ZN14solana_program12account_info11AccountInfo8lamports17h7774cfc4d55c7562E(%"anchor_lang::prelude::AccountInfo"* align 8 dereferenceable(48) %info), !dbg !694
  br label %bb5, !dbg !694

bb5:                                              ; preds = %bb2
  %_8 = icmp eq i64 %_9, 0, !dbg !694
  %1 = zext i1 %_8 to i8, !dbg !692
  store i8 %1, i8* %_2, align 1, !dbg !692
  br label %bb3, !dbg !692

bb3:                                              ; preds = %bb1, %bb5
  %2 = load i8, i8* %_2, align 1, !dbg !692, !range !637
  %3 = trunc i8 %2 to i1, !dbg !692
  br i1 %3, label %bb6, label %bb8, !dbg !692

bb8:                                              ; preds = %bb3
  %_14 = getelementptr inbounds %"anchor_lang::prelude::AccountInfo", %"anchor_lang::prelude::AccountInfo"* %info, i32 0, i32 3, !dbg !695
; call <vending_machine::Vending as anchor_lang::Owner>::owner
  call void @"_ZN63_$LT$vending_machine..Vending$u20$as$u20$anchor_lang..Owner$GT$5owner17h64b04e2cfbd9abc7E"(%"anchor_lang::prelude::Pubkey"* noalias nocapture sret(%"anchor_lang::prelude::Pubkey") dereferenceable(32) %_17), !dbg !696
  br label %bb9, !dbg !696

bb6:                                              ; preds = %bb3
  store i32 3012, i32* %_12, align 4, !dbg !697
  %4 = load i32, i32* %_12, align 4, !dbg !697, !range !641
; call <T as core::convert::Into<U>>::into
  call void @"_ZN50_$LT$T$u20$as$u20$core..convert..Into$LT$U$GT$$GT$4into17h0138ef29992ddf01E"(%"anchor_lang::prelude::ProgramError"* noalias nocapture sret(%"anchor_lang::prelude::ProgramError") dereferenceable(32) %_11, i32 %4), !dbg !697
  br label %bb7, !dbg !697

bb7:                                              ; preds = %bb6
  %5 = bitcast %"std::result::Result<anchor_lang::prelude::Account<Vending>, anchor_lang::prelude::ProgramError>"* %0 to %"std::result::Result<anchor_lang::prelude::Account<Vending>, anchor_lang::prelude::ProgramError>::Err"*, !dbg !698
  %6 = getelementptr inbounds %"std::result::Result<anchor_lang::prelude::Account<Vending>, anchor_lang::prelude::ProgramError>::Err", %"std::result::Result<anchor_lang::prelude::Account<Vending>, anchor_lang::prelude::ProgramError>::Err"* %5, i32 0, i32 1, !dbg !698
  %7 = bitcast %"anchor_lang::prelude::ProgramError"* %6 to i8*, !dbg !698
  %8 = bitcast %"anchor_lang::prelude::ProgramError"* %_11 to i8*, !dbg !698
  call void @llvm.memcpy.p0i8.p0i8.i64(i8* align 8 %7, i8* align 8 %8, i64 32, i1 false), !dbg !698
  %9 = bitcast %"std::result::Result<anchor_lang::prelude::Account<Vending>, anchor_lang::prelude::ProgramError>"* %0 to i64*, !dbg !698
  store i64 1, i64* %9, align 8, !dbg !698
  br label %bb32, !dbg !699

bb32:                                             ; preds = %bb29, %bb31, %bb19, %bb12, %bb7
  ret void, !dbg !701

bb9:                                              ; preds = %bb8
  store %"anchor_lang::prelude::Pubkey"* %_17, %"anchor_lang::prelude::Pubkey"** %_16, align 8, !dbg !702
; call core::cmp::impls::<impl core::cmp::PartialEq<&B> for &A>::ne
  %_13 = call zeroext i1 @"_ZN4core3cmp5impls69_$LT$impl$u20$core..cmp..PartialEq$LT$$RF$B$GT$$u20$for$u20$$RF$A$GT$2ne17h0954d9f7a236d3a7E"(%"anchor_lang::prelude::Pubkey"** align 8 dereferenceable(8) %_14, %"anchor_lang::prelude::Pubkey"** align 8 dereferenceable(8) %_16), !dbg !695
  br label %bb10, !dbg !695

bb10:                                             ; preds = %bb9
  br i1 %_13, label %bb11, label %bb13, !dbg !695

bb13:                                             ; preds = %bb10
; call solana_program::account_info::AccountInfo::try_borrow_data
  call void @_ZN14solana_program12account_info11AccountInfo15try_borrow_data17hdf0c8908b924002cE(%"std::result::Result<std::cell::Ref<&mut [u8]>, anchor_lang::prelude::ProgramError>"* noalias nocapture sret(%"std::result::Result<std::cell::Ref<&mut [u8]>, anchor_lang::prelude::ProgramError>") dereferenceable(40) %_26, %"anchor_lang::prelude::AccountInfo"* align 8 dereferenceable(48) %info), !dbg !703
  br label %bb14, !dbg !703

bb11:                                             ; preds = %bb10
  store i32 3007, i32* %_19, align 4, !dbg !704
  %10 = load i32, i32* %_19, align 4, !dbg !704, !range !641
; call <T as core::convert::Into<U>>::into
  call void @"_ZN50_$LT$T$u20$as$u20$core..convert..Into$LT$U$GT$$GT$4into17h0138ef29992ddf01E"(%"anchor_lang::prelude::ProgramError"* noalias nocapture sret(%"anchor_lang::prelude::ProgramError") dereferenceable(32) %_18, i32 %10), !dbg !704
  br label %bb12, !dbg !704

bb12:                                             ; preds = %bb11
  %11 = bitcast %"std::result::Result<anchor_lang::prelude::Account<Vending>, anchor_lang::prelude::ProgramError>"* %0 to %"std::result::Result<anchor_lang::prelude::Account<Vending>, anchor_lang::prelude::ProgramError>::Err"*, !dbg !705
  %12 = getelementptr inbounds %"std::result::Result<anchor_lang::prelude::Account<Vending>, anchor_lang::prelude::ProgramError>::Err", %"std::result::Result<anchor_lang::prelude::Account<Vending>, anchor_lang::prelude::ProgramError>::Err"* %11, i32 0, i32 1, !dbg !705
  %13 = bitcast %"anchor_lang::prelude::ProgramError"* %12 to i8*, !dbg !705
  %14 = bitcast %"anchor_lang::prelude::ProgramError"* %_18 to i8*, !dbg !705
  call void @llvm.memcpy.p0i8.p0i8.i64(i8* align 8 %13, i8* align 8 %14, i64 32, i1 false), !dbg !705
  %15 = bitcast %"std::result::Result<anchor_lang::prelude::Account<Vending>, anchor_lang::prelude::ProgramError>"* %0 to i64*, !dbg !705
  store i64 1, i64* %15, align 8, !dbg !705
  br label %bb32, !dbg !699

bb14:                                             ; preds = %bb13
; call <core::result::Result<T,E> as core::ops::try_trait::Try>::branch
  call void @"_ZN79_$LT$core..result..Result$LT$T$C$E$GT$$u20$as$u20$core..ops..try_trait..Try$GT$6branch17hf6eb9820a423d4eaE"(%"std::ops::ControlFlow<std::result::Result<std::convert::Infallible, anchor_lang::prelude::ProgramError>, std::cell::Ref<&mut [u8]>>"* noalias nocapture sret(%"std::ops::ControlFlow<std::result::Result<std::convert::Infallible, anchor_lang::prelude::ProgramError>, std::cell::Ref<&mut [u8]>>") dereferenceable(40) %_25, %"std::result::Result<std::cell::Ref<&mut [u8]>, anchor_lang::prelude::ProgramError>"* noalias nocapture dereferenceable(40) %_26), !dbg !703
  br label %bb15, !dbg !703

bb15:                                             ; preds = %bb14
  %16 = bitcast %"std::ops::ControlFlow<std::result::Result<std::convert::Infallible, anchor_lang::prelude::ProgramError>, std::cell::Ref<&mut [u8]>>"* %_25 to i64*, !dbg !703
  %_28 = load i64, i64* %16, align 8, !dbg !703, !range !302
  switch i64 %_28, label %bb17 [
    i64 0, label %bb16
    i64 1, label %bb18
  ], !dbg !703

bb17:                                             ; preds = %bb15
  unreachable, !dbg !703

bb16:                                             ; preds = %bb15
  %17 = bitcast %"std::ops::ControlFlow<std::result::Result<std::convert::Infallible, anchor_lang::prelude::ProgramError>, std::cell::Ref<&mut [u8]>>"* %_25 to %"std::ops::ControlFlow<std::result::Result<std::convert::Infallible, anchor_lang::prelude::ProgramError>, std::cell::Ref<&mut [u8]>>::Continue"*, !dbg !703
  %18 = getelementptr inbounds %"std::ops::ControlFlow<std::result::Result<std::convert::Infallible, anchor_lang::prelude::ProgramError>, std::cell::Ref<&mut [u8]>>::Continue", %"std::ops::ControlFlow<std::result::Result<std::convert::Infallible, anchor_lang::prelude::ProgramError>, std::cell::Ref<&mut [u8]>>::Continue"* %17, i32 0, i32 1, !dbg !703
  %19 = getelementptr inbounds { i64*, i64* }, { i64*, i64* }* %18, i32 0, i32 0, !dbg !703
  %val.0 = load i64*, i64** %19, align 8, !dbg !703, !nonnull !4
  %20 = getelementptr inbounds { i64*, i64* }, { i64*, i64* }* %18, i32 0, i32 1, !dbg !703
  %val.1 = load i64*, i64** %20, align 8, !dbg !703, !nonnull !4
  %21 = getelementptr inbounds { i64*, i64* }, { i64*, i64* }* %val.dbg.spill, i32 0, i32 0, !dbg !703
  store i64* %val.0, i64** %21, align 8, !dbg !703
  %22 = getelementptr inbounds { i64*, i64* }, { i64*, i64* }* %val.dbg.spill, i32 0, i32 1, !dbg !703
  store i64* %val.1, i64** %22, align 8, !dbg !703
  call void @llvm.dbg.declare(metadata { i64*, i64* }* %val.dbg.spill, metadata !681, metadata !DIExpression()), !dbg !706
  %23 = getelementptr inbounds { i64*, i64* }, { i64*, i64* }* %_24, i32 0, i32 0, !dbg !706
  store i64* %val.0, i64** %23, align 8, !dbg !706
  %24 = getelementptr inbounds { i64*, i64* }, { i64*, i64* }* %_24, i32 0, i32 1, !dbg !706
  store i64* %val.1, i64** %24, align 8, !dbg !706
; call <core::cell::Ref<T> as core::ops::deref::Deref>::deref
  %_21 = call align 8 dereferenceable(16) { [0 x i8]*, i64 }* @"_ZN68_$LT$core..cell..Ref$LT$T$GT$$u20$as$u20$core..ops..deref..Deref$GT$5deref17h93198c2cc7b284abE"({ i64*, i64* }* align 8 dereferenceable(16) %_24), !dbg !707
  br label %bb20, !dbg !707

bb18:                                             ; preds = %bb15
  %25 = bitcast %"std::ops::ControlFlow<std::result::Result<std::convert::Infallible, anchor_lang::prelude::ProgramError>, std::cell::Ref<&mut [u8]>>"* %_25 to %"std::ops::ControlFlow<std::result::Result<std::convert::Infallible, anchor_lang::prelude::ProgramError>, std::cell::Ref<&mut [u8]>>::Break"*, !dbg !708
  %26 = getelementptr inbounds %"std::ops::ControlFlow<std::result::Result<std::convert::Infallible, anchor_lang::prelude::ProgramError>, std::cell::Ref<&mut [u8]>>::Break", %"std::ops::ControlFlow<std::result::Result<std::convert::Infallible, anchor_lang::prelude::ProgramError>, std::cell::Ref<&mut [u8]>>::Break"* %25, i32 0, i32 1, !dbg !708
  %27 = bitcast %"std::result::Result<std::convert::Infallible, anchor_lang::prelude::ProgramError>::Err"* %residual to i8*, !dbg !708
  %28 = bitcast %"std::result::Result<std::convert::Infallible, anchor_lang::prelude::ProgramError>::Err"* %26 to i8*, !dbg !708
  call void @llvm.memcpy.p0i8.p0i8.i64(i8* align 8 %27, i8* align 8 %28, i64 32, i1 false), !dbg !708
  %29 = bitcast %"std::result::Result<std::convert::Infallible, anchor_lang::prelude::ProgramError>::Err"* %_30 to i8*, !dbg !689
  %30 = bitcast %"std::result::Result<std::convert::Infallible, anchor_lang::prelude::ProgramError>::Err"* %residual to i8*, !dbg !689
  call void @llvm.memcpy.p0i8.p0i8.i64(i8* align 8 %29, i8* align 8 %30, i64 32, i1 false), !dbg !689
; call <core::result::Result<T,F> as core::ops::try_trait::FromResidual<core::result::Result<core::convert::Infallible,E>>>::from_residual
  call void @"_ZN153_$LT$core..result..Result$LT$T$C$F$GT$$u20$as$u20$core..ops..try_trait..FromResidual$LT$core..result..Result$LT$core..convert..Infallible$C$E$GT$$GT$$GT$13from_residual17hbc6a978433ef2318E"(%"std::result::Result<anchor_lang::prelude::Account<Vending>, anchor_lang::prelude::ProgramError>"* noalias nocapture sret(%"std::result::Result<anchor_lang::prelude::Account<Vending>, anchor_lang::prelude::ProgramError>") dereferenceable(128) %0, %"std::result::Result<std::convert::Infallible, anchor_lang::prelude::ProgramError>::Err"* noalias nocapture dereferenceable(32) %_30), !dbg !709
  br label %bb19, !dbg !709

bb19:                                             ; preds = %bb18
  br label %bb32, !dbg !699

bb20:                                             ; preds = %bb16
  %31 = getelementptr inbounds { [0 x i8]*, i64 }, { [0 x i8]*, i64 }* %_21, i32 0, i32 0, !dbg !707
  %32 = load [0 x i8]*, [0 x i8]** %31, align 8, !dbg !707, !nonnull !4
  %33 = getelementptr inbounds { [0 x i8]*, i64 }, { [0 x i8]*, i64 }* %_21, i32 0, i32 1, !dbg !707
  %34 = load i64, i64* %33, align 8, !dbg !707
  %35 = getelementptr inbounds { [0 x i8]*, i64 }, { [0 x i8]*, i64 }* %data, i32 0, i32 0, !dbg !707
  store [0 x i8]* %32, [0 x i8]** %35, align 8, !dbg !707
  %36 = getelementptr inbounds { [0 x i8]*, i64 }, { [0 x i8]*, i64 }* %data, i32 0, i32 1, !dbg !707
  store i64 %34, i64* %36, align 8, !dbg !707
; call <solana_program::account_info::AccountInfo as core::clone::Clone>::clone
  call void @"_ZN80_$LT$solana_program..account_info..AccountInfo$u20$as$u20$core..clone..Clone$GT$5clone17h39bb4a3ebfdaeef3E"(%"anchor_lang::prelude::AccountInfo"* noalias nocapture sret(%"anchor_lang::prelude::AccountInfo") dereferenceable(48) %_33, %"anchor_lang::prelude::AccountInfo"* align 8 dereferenceable(48) %info), !dbg !710
  br label %bb21, !dbg !710

bb21:                                             ; preds = %bb20
; call <vending_machine::Vending as anchor_lang::AccountDeserialize>::try_deserialize
  call void @"_ZN76_$LT$vending_machine..Vending$u20$as$u20$anchor_lang..AccountDeserialize$GT$15try_deserialize17h7f8deb74063da760E"(%"std::result::Result<Vending, anchor_lang::prelude::ProgramError>"* noalias nocapture sret(%"std::result::Result<Vending, anchor_lang::prelude::ProgramError>") dereferenceable(80) %_37, { [0 x i8]*, i64 }* align 8 dereferenceable(16) %data), !dbg !711
  br label %bb22, !dbg !711

bb22:                                             ; preds = %bb21
; call <core::result::Result<T,E> as core::ops::try_trait::Try>::branch
  call void @"_ZN79_$LT$core..result..Result$LT$T$C$E$GT$$u20$as$u20$core..ops..try_trait..Try$GT$6branch17h8069e28b39214ddfE"(%"std::ops::ControlFlow<std::result::Result<std::convert::Infallible, anchor_lang::prelude::ProgramError>, Vending>"* noalias nocapture sret(%"std::ops::ControlFlow<std::result::Result<std::convert::Infallible, anchor_lang::prelude::ProgramError>, Vending>") dereferenceable(80) %_36, %"std::result::Result<Vending, anchor_lang::prelude::ProgramError>"* noalias nocapture dereferenceable(80) %_37), !dbg !711
  br label %bb23, !dbg !711

bb23:                                             ; preds = %bb22
  %37 = bitcast %"std::ops::ControlFlow<std::result::Result<std::convert::Infallible, anchor_lang::prelude::ProgramError>, Vending>"* %_36 to i64*, !dbg !711
  %_40 = load i64, i64* %37, align 8, !dbg !711, !range !302
  switch i64 %_40, label %bb25 [
    i64 0, label %bb24
    i64 1, label %bb26
  ], !dbg !711

bb25:                                             ; preds = %bb23
  unreachable, !dbg !711

bb24:                                             ; preds = %bb23
  %38 = bitcast %"std::ops::ControlFlow<std::result::Result<std::convert::Infallible, anchor_lang::prelude::ProgramError>, Vending>"* %_36 to %"std::ops::ControlFlow<std::result::Result<std::convert::Infallible, anchor_lang::prelude::ProgramError>, Vending>::Continue"*, !dbg !711
  %39 = getelementptr inbounds %"std::ops::ControlFlow<std::result::Result<std::convert::Infallible, anchor_lang::prelude::ProgramError>, Vending>::Continue", %"std::ops::ControlFlow<std::result::Result<std::convert::Infallible, anchor_lang::prelude::ProgramError>, Vending>::Continue"* %38, i32 0, i32 1, !dbg !711
  %40 = bitcast %Vending* %val to i8*, !dbg !711
  %41 = bitcast %Vending* %39 to i8*, !dbg !711
  call void @llvm.memcpy.p0i8.p0i8.i64(i8* align 8 %40, i8* align 8 %41, i64 72, i1 false), !dbg !711
  %42 = bitcast %Vending* %_35 to i8*, !dbg !691
  %43 = bitcast %Vending* %val to i8*, !dbg !691
  call void @llvm.memcpy.p0i8.p0i8.i64(i8* align 8 %42, i8* align 8 %43, i64 72, i1 false), !dbg !691
; call anchor_lang::accounts::account::Account<T>::new
  call void @"_ZN11anchor_lang8accounts7account16Account$LT$T$GT$3new17ha2dd180aab394249E"(%"anchor_lang::prelude::Account<Vending>"* noalias nocapture sret(%"anchor_lang::prelude::Account<Vending>") dereferenceable(120) %_32, %"anchor_lang::prelude::AccountInfo"* noalias nocapture dereferenceable(48) %_33, %Vending* noalias nocapture dereferenceable(72) %_35), !dbg !712
  br label %bb28, !dbg !712

bb26:                                             ; preds = %bb23
  %44 = bitcast %"std::ops::ControlFlow<std::result::Result<std::convert::Infallible, anchor_lang::prelude::ProgramError>, Vending>"* %_36 to %"std::ops::ControlFlow<std::result::Result<std::convert::Infallible, anchor_lang::prelude::ProgramError>, Vending>::Break"*, !dbg !713
  %45 = getelementptr inbounds %"std::ops::ControlFlow<std::result::Result<std::convert::Infallible, anchor_lang::prelude::ProgramError>, Vending>::Break", %"std::ops::ControlFlow<std::result::Result<std::convert::Infallible, anchor_lang::prelude::ProgramError>, Vending>::Break"* %44, i32 0, i32 1, !dbg !713
  %46 = bitcast %"std::result::Result<std::convert::Infallible, anchor_lang::prelude::ProgramError>::Err"* %residual1 to i8*, !dbg !713
  %47 = bitcast %"std::result::Result<std::convert::Infallible, anchor_lang::prelude::ProgramError>::Err"* %45 to i8*, !dbg !713
  call void @llvm.memcpy.p0i8.p0i8.i64(i8* align 8 %46, i8* align 8 %47, i64 32, i1 false), !dbg !713
  %48 = bitcast %"std::result::Result<std::convert::Infallible, anchor_lang::prelude::ProgramError>::Err"* %_42 to i8*, !dbg !690
  %49 = bitcast %"std::result::Result<std::convert::Infallible, anchor_lang::prelude::ProgramError>::Err"* %residual1 to i8*, !dbg !690
  call void @llvm.memcpy.p0i8.p0i8.i64(i8* align 8 %48, i8* align 8 %49, i64 32, i1 false), !dbg !690
; call <core::result::Result<T,F> as core::ops::try_trait::FromResidual<core::result::Result<core::convert::Infallible,E>>>::from_residual
  call void @"_ZN153_$LT$core..result..Result$LT$T$C$F$GT$$u20$as$u20$core..ops..try_trait..FromResidual$LT$core..result..Result$LT$core..convert..Infallible$C$E$GT$$GT$$GT$13from_residual17hbc6a978433ef2318E"(%"std::result::Result<anchor_lang::prelude::Account<Vending>, anchor_lang::prelude::ProgramError>"* noalias nocapture sret(%"std::result::Result<anchor_lang::prelude::Account<Vending>, anchor_lang::prelude::ProgramError>") dereferenceable(128) %0, %"std::result::Result<std::convert::Infallible, anchor_lang::prelude::ProgramError>::Err"* noalias nocapture dereferenceable(32) %_42), !dbg !714
  br label %bb27, !dbg !714

bb27:                                             ; preds = %bb26
; call core::ptr::drop_in_place<solana_program::account_info::AccountInfo>
  call void @"_ZN4core3ptr62drop_in_place$LT$solana_program..account_info..AccountInfo$GT$17h45824e34f3b7d08cE"(%"anchor_lang::prelude::AccountInfo"* %_33), !dbg !715
  br label %bb30, !dbg !715

bb30:                                             ; preds = %bb27
; call core::ptr::drop_in_place<core::cell::Ref<&mut [u8]>>
  call void @"_ZN4core3ptr68drop_in_place$LT$core..cell..Ref$LT$$RF$mut$u20$$u5b$u8$u5d$$GT$$GT$17h75bd46d31722c5c0E"({ i64*, i64* }* %_24), !dbg !716
  br label %bb31, !dbg !716

bb31:                                             ; preds = %bb30
  br label %bb32, !dbg !699

bb28:                                             ; preds = %bb24
  %50 = bitcast %"std::result::Result<anchor_lang::prelude::Account<Vending>, anchor_lang::prelude::ProgramError>"* %0 to %"std::result::Result<anchor_lang::prelude::Account<Vending>, anchor_lang::prelude::ProgramError>::Ok"*, !dbg !717
  %51 = getelementptr inbounds %"std::result::Result<anchor_lang::prelude::Account<Vending>, anchor_lang::prelude::ProgramError>::Ok", %"std::result::Result<anchor_lang::prelude::Account<Vending>, anchor_lang::prelude::ProgramError>::Ok"* %50, i32 0, i32 1, !dbg !717
  %52 = bitcast %"anchor_lang::prelude::Account<Vending>"* %51 to i8*, !dbg !717
  %53 = bitcast %"anchor_lang::prelude::Account<Vending>"* %_32 to i8*, !dbg !717
  call void @llvm.memcpy.p0i8.p0i8.i64(i8* align 8 %52, i8* align 8 %53, i64 120, i1 false), !dbg !717
  %54 = bitcast %"std::result::Result<anchor_lang::prelude::Account<Vending>, anchor_lang::prelude::ProgramError>"* %0 to i64*, !dbg !717
  store i64 0, i64* %54, align 8, !dbg !717
; call core::ptr::drop_in_place<core::cell::Ref<&mut [u8]>>
  call void @"_ZN4core3ptr68drop_in_place$LT$core..cell..Ref$LT$$RF$mut$u20$$u5b$u8$u5d$$GT$$GT$17h75bd46d31722c5c0E"({ i64*, i64* }* %_24), !dbg !716
  br label %bb29, !dbg !716

bb29:                                             ; preds = %bb28
  br label %bb32, !dbg !701
}

; anchor_lang::accounts::program::Program<T>::new
; Function Attrs: nounwind
define void @"_ZN11anchor_lang8accounts7program16Program$LT$T$GT$3new17h8d28f7e2b4baef25E"(%"anchor_lang::prelude::Program<anchor_lang::System>"* noalias nocapture sret(%"anchor_lang::prelude::Program<anchor_lang::System>") dereferenceable(88) %0, %"anchor_lang::prelude::AccountInfo"* noalias nocapture dereferenceable(48) %info, %"std::option::Option<anchor_lang::prelude::Pubkey>"* noalias nocapture dereferenceable(33) %programdata_address) unnamed_addr #1 !dbg !718 {
start:
  %_4 = alloca %"std::option::Option<anchor_lang::prelude::Pubkey>", align 1
  %_3 = alloca %"anchor_lang::prelude::AccountInfo", align 8
  call void @llvm.dbg.declare(metadata %"anchor_lang::prelude::AccountInfo"* %info, metadata !723, metadata !DIExpression()), !dbg !725
  call void @llvm.dbg.declare(metadata %"std::option::Option<anchor_lang::prelude::Pubkey>"* %programdata_address, metadata !724, metadata !DIExpression()), !dbg !726
  %1 = bitcast %"anchor_lang::prelude::AccountInfo"* %_3 to i8*, !dbg !727
  %2 = bitcast %"anchor_lang::prelude::AccountInfo"* %info to i8*, !dbg !727
  call void @llvm.memcpy.p0i8.p0i8.i64(i8* align 8 %1, i8* align 8 %2, i64 48, i1 false), !dbg !727
  %3 = bitcast %"std::option::Option<anchor_lang::prelude::Pubkey>"* %_4 to i8*, !dbg !728
  %4 = bitcast %"std::option::Option<anchor_lang::prelude::Pubkey>"* %programdata_address to i8*, !dbg !728
  call void @llvm.memcpy.p0i8.p0i8.i64(i8* align 1 %3, i8* align 1 %4, i64 33, i1 false), !dbg !728
  %5 = bitcast %"anchor_lang::prelude::Program<anchor_lang::System>"* %0 to %"anchor_lang::prelude::AccountInfo"*, !dbg !729
  %6 = bitcast %"anchor_lang::prelude::AccountInfo"* %5 to i8*, !dbg !729
  %7 = bitcast %"anchor_lang::prelude::AccountInfo"* %_3 to i8*, !dbg !729
  call void @llvm.memcpy.p0i8.p0i8.i64(i8* align 8 %6, i8* align 8 %7, i64 48, i1 false), !dbg !729
  %8 = getelementptr inbounds %"anchor_lang::prelude::Program<anchor_lang::System>", %"anchor_lang::prelude::Program<anchor_lang::System>"* %0, i32 0, i32 2, !dbg !729
  %9 = bitcast %"std::option::Option<anchor_lang::prelude::Pubkey>"* %8 to i8*, !dbg !729
  %10 = bitcast %"std::option::Option<anchor_lang::prelude::Pubkey>"* %_4 to i8*, !dbg !729
  call void @llvm.memcpy.p0i8.p0i8.i64(i8* align 8 %9, i8* align 1 %10, i64 33, i1 false), !dbg !729
  ret void, !dbg !730
}

; anchor_lang::accounts::program::Program<T>::try_from
; Function Attrs: noinline nounwind
define void @"_ZN11anchor_lang8accounts7program16Program$LT$T$GT$8try_from17hb863141370d0a0feE"(%"std::result::Result<anchor_lang::prelude::Program<anchor_lang::System>, anchor_lang::prelude::ProgramError>"* noalias nocapture sret(%"std::result::Result<anchor_lang::prelude::Program<anchor_lang::System>, anchor_lang::prelude::ProgramError>") dereferenceable(96) %0, %"anchor_lang::prelude::AccountInfo"* align 8 dereferenceable(48) %info) unnamed_addr #2 !dbg !731 {
start:
  %val.dbg.spill = alloca { i64*, i64* }, align 8
  %info.dbg.spill = alloca %"anchor_lang::prelude::AccountInfo"*, align 8
  %_45 = alloca %"std::option::Option<anchor_lang::prelude::Pubkey>", align 1
  %_43 = alloca %"anchor_lang::prelude::AccountInfo", align 8
  %_42 = alloca %"anchor_lang::prelude::Program<anchor_lang::System>", align 8
  %_41 = alloca %"anchor_lang::prelude::Pubkey", align 1
  %programdata_address2 = alloca %"anchor_lang::prelude::Pubkey", align 1
  %val = alloca %"anchor_lang::prelude::UpgradeableLoaderState", align 8
  %_37 = alloca %"std::result::Result<std::convert::Infallible, anchor_lang::prelude::ProgramError>::Err", align 8
  %residual1 = alloca %"std::result::Result<std::convert::Infallible, anchor_lang::prelude::ProgramError>::Err", align 8
  %_32 = alloca %"std::result::Result<anchor_lang::prelude::UpgradeableLoaderState, anchor_lang::prelude::ProgramError>", align 8
  %_31 = alloca %"std::ops::ControlFlow<std::result::Result<std::convert::Infallible, anchor_lang::prelude::ProgramError>, anchor_lang::prelude::UpgradeableLoaderState>", align 8
  %upgradable_loader_state = alloca %"anchor_lang::prelude::UpgradeableLoaderState", align 8
  %_28 = alloca %"std::result::Result<std::convert::Infallible, anchor_lang::prelude::ProgramError>::Err", align 8
  %residual = alloca %"std::result::Result<std::convert::Infallible, anchor_lang::prelude::ProgramError>::Err", align 8
  %_24 = alloca %"std::result::Result<std::cell::Ref<&mut [u8]>, anchor_lang::prelude::ProgramError>", align 8
  %_23 = alloca %"std::ops::ControlFlow<std::result::Result<std::convert::Infallible, anchor_lang::prelude::ProgramError>, std::cell::Ref<&mut [u8]>>", align 8
  %_22 = alloca { i64*, i64* }, align 8
  %data = alloca { [0 x i8]*, i64 }, align 8
  %programdata_address = alloca %"std::option::Option<anchor_lang::prelude::Pubkey>", align 1
  %_12 = alloca i32, align 4
  %_11 = alloca %"anchor_lang::prelude::ProgramError", align 8
  %_8 = alloca i32, align 4
  %_7 = alloca %"anchor_lang::prelude::ProgramError", align 8
  %_6 = alloca %"anchor_lang::prelude::Pubkey", align 1
  %_5 = alloca %"anchor_lang::prelude::Pubkey"*, align 8
  store %"anchor_lang::prelude::AccountInfo"* %info, %"anchor_lang::prelude::AccountInfo"** %info.dbg.spill, align 8
  call void @llvm.dbg.declare(metadata %"anchor_lang::prelude::AccountInfo"** %info.dbg.spill, metadata !749, metadata !DIExpression()), !dbg !787
  call void @llvm.dbg.declare(metadata %"std::option::Option<anchor_lang::prelude::Pubkey>"* %programdata_address, metadata !750, metadata !DIExpression()), !dbg !788
  call void @llvm.dbg.declare(metadata { [0 x i8]*, i64 }* %data, metadata !752, metadata !DIExpression()), !dbg !789
  call void @llvm.dbg.declare(metadata %"std::result::Result<std::convert::Infallible, anchor_lang::prelude::ProgramError>::Err"* %residual, metadata !754, metadata !DIExpression()), !dbg !790
  call void @llvm.dbg.declare(metadata %"anchor_lang::prelude::UpgradeableLoaderState"* %upgradable_loader_state, metadata !758, metadata !DIExpression()), !dbg !791
  call void @llvm.dbg.declare(metadata %"std::result::Result<std::convert::Infallible, anchor_lang::prelude::ProgramError>::Err"* %residual1, metadata !781, metadata !DIExpression()), !dbg !792
  call void @llvm.dbg.declare(metadata %"anchor_lang::prelude::UpgradeableLoaderState"* %val, metadata !783, metadata !DIExpression()), !dbg !793
  call void @llvm.dbg.declare(metadata %"anchor_lang::prelude::Pubkey"* %programdata_address2, metadata !785, metadata !DIExpression()), !dbg !794
  %_3 = bitcast %"anchor_lang::prelude::AccountInfo"* %info to %"anchor_lang::prelude::Pubkey"**, !dbg !795
; call <anchor_lang::system_program::System as anchor_lang::Id>::id
  call void @"_ZN71_$LT$anchor_lang..system_program..System$u20$as$u20$anchor_lang..Id$GT$2id17hd9821e7912145111E"(%"anchor_lang::prelude::Pubkey"* noalias nocapture sret(%"anchor_lang::prelude::Pubkey") dereferenceable(32) %_6), !dbg !796
  br label %bb1, !dbg !796

bb1:                                              ; preds = %start
  store %"anchor_lang::prelude::Pubkey"* %_6, %"anchor_lang::prelude::Pubkey"** %_5, align 8, !dbg !797
; call core::cmp::impls::<impl core::cmp::PartialEq<&B> for &A>::ne
  %_2 = call zeroext i1 @"_ZN4core3cmp5impls69_$LT$impl$u20$core..cmp..PartialEq$LT$$RF$B$GT$$u20$for$u20$$RF$A$GT$2ne17h0954d9f7a236d3a7E"(%"anchor_lang::prelude::Pubkey"** align 8 dereferenceable(8) %_3, %"anchor_lang::prelude::Pubkey"** align 8 dereferenceable(8) %_5), !dbg !795
  br label %bb2, !dbg !795

bb2:                                              ; preds = %bb1
  br i1 %_2, label %bb3, label %bb5, !dbg !795

bb5:                                              ; preds = %bb2
  %1 = getelementptr inbounds %"anchor_lang::prelude::AccountInfo", %"anchor_lang::prelude::AccountInfo"* %info, i32 0, i32 7, !dbg !798
  %2 = load i8, i8* %1, align 2, !dbg !798, !range !637
  %_10 = trunc i8 %2 to i1, !dbg !798
  %_9 = xor i1 %_10, true, !dbg !799
  br i1 %_9, label %bb6, label %bb7, !dbg !799

bb3:                                              ; preds = %bb2
  store i32 3008, i32* %_8, align 4, !dbg !800
  %3 = load i32, i32* %_8, align 4, !dbg !800, !range !641
; call <T as core::convert::Into<U>>::into
  call void @"_ZN50_$LT$T$u20$as$u20$core..convert..Into$LT$U$GT$$GT$4into17h0138ef29992ddf01E"(%"anchor_lang::prelude::ProgramError"* noalias nocapture sret(%"anchor_lang::prelude::ProgramError") dereferenceable(32) %_7, i32 %3), !dbg !800
  br label %bb4, !dbg !800

bb4:                                              ; preds = %bb3
  %4 = bitcast %"std::result::Result<anchor_lang::prelude::Program<anchor_lang::System>, anchor_lang::prelude::ProgramError>"* %0 to %"std::result::Result<anchor_lang::prelude::Program<anchor_lang::System>, anchor_lang::prelude::ProgramError>::Err"*, !dbg !801
  %5 = getelementptr inbounds %"std::result::Result<anchor_lang::prelude::Program<anchor_lang::System>, anchor_lang::prelude::ProgramError>::Err", %"std::result::Result<anchor_lang::prelude::Program<anchor_lang::System>, anchor_lang::prelude::ProgramError>::Err"* %4, i32 0, i32 1, !dbg !801
  %6 = bitcast %"anchor_lang::prelude::ProgramError"* %5 to i8*, !dbg !801
  %7 = bitcast %"anchor_lang::prelude::ProgramError"* %_7 to i8*, !dbg !801
  call void @llvm.memcpy.p0i8.p0i8.i64(i8* align 8 %6, i8* align 8 %7, i64 32, i1 false), !dbg !801
  %8 = bitcast %"std::result::Result<anchor_lang::prelude::Program<anchor_lang::System>, anchor_lang::prelude::ProgramError>"* %0 to i64*, !dbg !801
  store i64 1, i64* %8, align 8, !dbg !801
  br label %bb31, !dbg !802

bb31:                                             ; preds = %bb30, %bb23, %bb16, %bb8, %bb4
  ret void, !dbg !804

bb7:                                              ; preds = %bb5
  %9 = getelementptr inbounds %"anchor_lang::prelude::AccountInfo", %"anchor_lang::prelude::AccountInfo"* %info, i32 0, i32 3, !dbg !805
  %_15 = load %"anchor_lang::prelude::Pubkey"*, %"anchor_lang::prelude::Pubkey"** %9, align 8, !dbg !805, !nonnull !4
; call <solana_program::pubkey::Pubkey as core::cmp::PartialEq>::eq
  %_14 = call zeroext i1 @"_ZN71_$LT$solana_program..pubkey..Pubkey$u20$as$u20$core..cmp..PartialEq$GT$2eq17h64021e556431a3d7E"(%"anchor_lang::prelude::Pubkey"* align 1 dereferenceable(32) %_15, %"anchor_lang::prelude::Pubkey"* align 1 dereferenceable(32) @_ZN14solana_program22bpf_loader_upgradeable2ID17ha8b0bc8d262dd46bE), !dbg !805
  br label %bb9, !dbg !805

bb6:                                              ; preds = %bb5
  store i32 3009, i32* %_12, align 4, !dbg !806
  %10 = load i32, i32* %_12, align 4, !dbg !806, !range !641
; call <T as core::convert::Into<U>>::into
  call void @"_ZN50_$LT$T$u20$as$u20$core..convert..Into$LT$U$GT$$GT$4into17h0138ef29992ddf01E"(%"anchor_lang::prelude::ProgramError"* noalias nocapture sret(%"anchor_lang::prelude::ProgramError") dereferenceable(32) %_11, i32 %10), !dbg !806
  br label %bb8, !dbg !806

bb8:                                              ; preds = %bb6
  %11 = bitcast %"std::result::Result<anchor_lang::prelude::Program<anchor_lang::System>, anchor_lang::prelude::ProgramError>"* %0 to %"std::result::Result<anchor_lang::prelude::Program<anchor_lang::System>, anchor_lang::prelude::ProgramError>::Err"*, !dbg !807
  %12 = getelementptr inbounds %"std::result::Result<anchor_lang::prelude::Program<anchor_lang::System>, anchor_lang::prelude::ProgramError>::Err", %"std::result::Result<anchor_lang::prelude::Program<anchor_lang::System>, anchor_lang::prelude::ProgramError>::Err"* %11, i32 0, i32 1, !dbg !807
  %13 = bitcast %"anchor_lang::prelude::ProgramError"* %12 to i8*, !dbg !807
  %14 = bitcast %"anchor_lang::prelude::ProgramError"* %_11 to i8*, !dbg !807
  call void @llvm.memcpy.p0i8.p0i8.i64(i8* align 8 %13, i8* align 8 %14, i64 32, i1 false), !dbg !807
  %15 = bitcast %"std::result::Result<anchor_lang::prelude::Program<anchor_lang::System>, anchor_lang::prelude::ProgramError>"* %0 to i64*, !dbg !807
  store i64 1, i64* %15, align 8, !dbg !807
  br label %bb31, !dbg !802

bb9:                                              ; preds = %bb7
  br i1 %_14, label %bb10, label %bb27, !dbg !805

bb27:                                             ; preds = %bb9
  %16 = bitcast %"std::option::Option<anchor_lang::prelude::Pubkey>"* %programdata_address to i8*, !dbg !808
  store i8 0, i8* %16, align 1, !dbg !808
  br label %bb28, !dbg !809

bb10:                                             ; preds = %bb9
; call solana_program::account_info::AccountInfo::try_borrow_data
  call void @_ZN14solana_program12account_info11AccountInfo15try_borrow_data17hdf0c8908b924002cE(%"std::result::Result<std::cell::Ref<&mut [u8]>, anchor_lang::prelude::ProgramError>"* noalias nocapture sret(%"std::result::Result<std::cell::Ref<&mut [u8]>, anchor_lang::prelude::ProgramError>") dereferenceable(40) %_24, %"anchor_lang::prelude::AccountInfo"* align 8 dereferenceable(48) %info), !dbg !810
  br label %bb11, !dbg !810

bb11:                                             ; preds = %bb10
; call <core::result::Result<T,E> as core::ops::try_trait::Try>::branch
  call void @"_ZN79_$LT$core..result..Result$LT$T$C$E$GT$$u20$as$u20$core..ops..try_trait..Try$GT$6branch17hf6eb9820a423d4eaE"(%"std::ops::ControlFlow<std::result::Result<std::convert::Infallible, anchor_lang::prelude::ProgramError>, std::cell::Ref<&mut [u8]>>"* noalias nocapture sret(%"std::ops::ControlFlow<std::result::Result<std::convert::Infallible, anchor_lang::prelude::ProgramError>, std::cell::Ref<&mut [u8]>>") dereferenceable(40) %_23, %"std::result::Result<std::cell::Ref<&mut [u8]>, anchor_lang::prelude::ProgramError>"* noalias nocapture dereferenceable(40) %_24), !dbg !810
  br label %bb12, !dbg !810

bb12:                                             ; preds = %bb11
  %17 = bitcast %"std::ops::ControlFlow<std::result::Result<std::convert::Infallible, anchor_lang::prelude::ProgramError>, std::cell::Ref<&mut [u8]>>"* %_23 to i64*, !dbg !810
  %_26 = load i64, i64* %17, align 8, !dbg !810, !range !302
  switch i64 %_26, label %bb14 [
    i64 0, label %bb13
    i64 1, label %bb15
  ], !dbg !810

bb14:                                             ; preds = %bb12
  unreachable, !dbg !810

bb13:                                             ; preds = %bb12
  %18 = bitcast %"std::ops::ControlFlow<std::result::Result<std::convert::Infallible, anchor_lang::prelude::ProgramError>, std::cell::Ref<&mut [u8]>>"* %_23 to %"std::ops::ControlFlow<std::result::Result<std::convert::Infallible, anchor_lang::prelude::ProgramError>, std::cell::Ref<&mut [u8]>>::Continue"*, !dbg !810
  %19 = getelementptr inbounds %"std::ops::ControlFlow<std::result::Result<std::convert::Infallible, anchor_lang::prelude::ProgramError>, std::cell::Ref<&mut [u8]>>::Continue", %"std::ops::ControlFlow<std::result::Result<std::convert::Infallible, anchor_lang::prelude::ProgramError>, std::cell::Ref<&mut [u8]>>::Continue"* %18, i32 0, i32 1, !dbg !810
  %20 = getelementptr inbounds { i64*, i64* }, { i64*, i64* }* %19, i32 0, i32 0, !dbg !810
  %val.0 = load i64*, i64** %20, align 8, !dbg !810, !nonnull !4
  %21 = getelementptr inbounds { i64*, i64* }, { i64*, i64* }* %19, i32 0, i32 1, !dbg !810
  %val.1 = load i64*, i64** %21, align 8, !dbg !810, !nonnull !4
  %22 = getelementptr inbounds { i64*, i64* }, { i64*, i64* }* %val.dbg.spill, i32 0, i32 0, !dbg !810
  store i64* %val.0, i64** %22, align 8, !dbg !810
  %23 = getelementptr inbounds { i64*, i64* }, { i64*, i64* }* %val.dbg.spill, i32 0, i32 1, !dbg !810
  store i64* %val.1, i64** %23, align 8, !dbg !810
  call void @llvm.dbg.declare(metadata { i64*, i64* }* %val.dbg.spill, metadata !756, metadata !DIExpression()), !dbg !811
  %24 = getelementptr inbounds { i64*, i64* }, { i64*, i64* }* %_22, i32 0, i32 0, !dbg !811
  store i64* %val.0, i64** %24, align 8, !dbg !811
  %25 = getelementptr inbounds { i64*, i64* }, { i64*, i64* }* %_22, i32 0, i32 1, !dbg !811
  store i64* %val.1, i64** %25, align 8, !dbg !811
; call <core::cell::Ref<T> as core::ops::deref::Deref>::deref
  %_19 = call align 8 dereferenceable(16) { [0 x i8]*, i64 }* @"_ZN68_$LT$core..cell..Ref$LT$T$GT$$u20$as$u20$core..ops..deref..Deref$GT$5deref17h93198c2cc7b284abE"({ i64*, i64* }* align 8 dereferenceable(16) %_22), !dbg !812
  br label %bb17, !dbg !812

bb15:                                             ; preds = %bb12
  %26 = bitcast %"std::ops::ControlFlow<std::result::Result<std::convert::Infallible, anchor_lang::prelude::ProgramError>, std::cell::Ref<&mut [u8]>>"* %_23 to %"std::ops::ControlFlow<std::result::Result<std::convert::Infallible, anchor_lang::prelude::ProgramError>, std::cell::Ref<&mut [u8]>>::Break"*, !dbg !813
  %27 = getelementptr inbounds %"std::ops::ControlFlow<std::result::Result<std::convert::Infallible, anchor_lang::prelude::ProgramError>, std::cell::Ref<&mut [u8]>>::Break", %"std::ops::ControlFlow<std::result::Result<std::convert::Infallible, anchor_lang::prelude::ProgramError>, std::cell::Ref<&mut [u8]>>::Break"* %26, i32 0, i32 1, !dbg !813
  %28 = bitcast %"std::result::Result<std::convert::Infallible, anchor_lang::prelude::ProgramError>::Err"* %residual to i8*, !dbg !813
  %29 = bitcast %"std::result::Result<std::convert::Infallible, anchor_lang::prelude::ProgramError>::Err"* %27 to i8*, !dbg !813
  call void @llvm.memcpy.p0i8.p0i8.i64(i8* align 8 %28, i8* align 8 %29, i64 32, i1 false), !dbg !813
  %30 = bitcast %"std::result::Result<std::convert::Infallible, anchor_lang::prelude::ProgramError>::Err"* %_28 to i8*, !dbg !790
  %31 = bitcast %"std::result::Result<std::convert::Infallible, anchor_lang::prelude::ProgramError>::Err"* %residual to i8*, !dbg !790
  call void @llvm.memcpy.p0i8.p0i8.i64(i8* align 8 %30, i8* align 8 %31, i64 32, i1 false), !dbg !790
; call <core::result::Result<T,F> as core::ops::try_trait::FromResidual<core::result::Result<core::convert::Infallible,E>>>::from_residual
  call void @"_ZN153_$LT$core..result..Result$LT$T$C$F$GT$$u20$as$u20$core..ops..try_trait..FromResidual$LT$core..result..Result$LT$core..convert..Infallible$C$E$GT$$GT$$GT$13from_residual17h839ea806fbdd34cdE"(%"std::result::Result<anchor_lang::prelude::Program<anchor_lang::System>, anchor_lang::prelude::ProgramError>"* noalias nocapture sret(%"std::result::Result<anchor_lang::prelude::Program<anchor_lang::System>, anchor_lang::prelude::ProgramError>") dereferenceable(96) %0, %"std::result::Result<std::convert::Infallible, anchor_lang::prelude::ProgramError>::Err"* noalias nocapture dereferenceable(32) %_28), !dbg !814
  br label %bb16, !dbg !814

bb16:                                             ; preds = %bb15
  br label %bb31, !dbg !802

bb17:                                             ; preds = %bb13
  %32 = getelementptr inbounds { [0 x i8]*, i64 }, { [0 x i8]*, i64 }* %_19, i32 0, i32 0, !dbg !812
  %33 = load [0 x i8]*, [0 x i8]** %32, align 8, !dbg !812, !nonnull !4
  %34 = getelementptr inbounds { [0 x i8]*, i64 }, { [0 x i8]*, i64 }* %_19, i32 0, i32 1, !dbg !812
  %35 = load i64, i64* %34, align 8, !dbg !812
  %36 = getelementptr inbounds { [0 x i8]*, i64 }, { [0 x i8]*, i64 }* %data, i32 0, i32 0, !dbg !812
  store [0 x i8]* %33, [0 x i8]** %36, align 8, !dbg !812
  %37 = getelementptr inbounds { [0 x i8]*, i64 }, { [0 x i8]*, i64 }* %data, i32 0, i32 1, !dbg !812
  store i64 %35, i64* %37, align 8, !dbg !812
; call anchor_lang::bpf_upgradeable_state::<impl anchor_lang::AccountDeserialize for solana_program::bpf_loader_upgradeable::UpgradeableLoaderState>::try_deserialize_unchecked
  call void @"_ZN11anchor_lang21bpf_upgradeable_state124_$LT$impl$u20$anchor_lang..AccountDeserialize$u20$for$u20$solana_program..bpf_loader_upgradeable..UpgradeableLoaderState$GT$25try_deserialize_unchecked17h2f4e2c3ca597fac3E"(%"std::result::Result<anchor_lang::prelude::UpgradeableLoaderState, anchor_lang::prelude::ProgramError>"* noalias nocapture sret(%"std::result::Result<anchor_lang::prelude::UpgradeableLoaderState, anchor_lang::prelude::ProgramError>") dereferenceable(56) %_32, { [0 x i8]*, i64 }* align 8 dereferenceable(16) %data), !dbg !815
  br label %bb18, !dbg !815

bb18:                                             ; preds = %bb17
; call <core::result::Result<T,E> as core::ops::try_trait::Try>::branch
  call void @"_ZN79_$LT$core..result..Result$LT$T$C$E$GT$$u20$as$u20$core..ops..try_trait..Try$GT$6branch17hc9f6f5b0dbdfbd75E"(%"std::ops::ControlFlow<std::result::Result<std::convert::Infallible, anchor_lang::prelude::ProgramError>, anchor_lang::prelude::UpgradeableLoaderState>"* noalias nocapture sret(%"std::ops::ControlFlow<std::result::Result<std::convert::Infallible, anchor_lang::prelude::ProgramError>, anchor_lang::prelude::UpgradeableLoaderState>") dereferenceable(56) %_31, %"std::result::Result<anchor_lang::prelude::UpgradeableLoaderState, anchor_lang::prelude::ProgramError>"* noalias nocapture dereferenceable(56) %_32), !dbg !815
  br label %bb19, !dbg !815

bb19:                                             ; preds = %bb18
  %38 = bitcast %"std::ops::ControlFlow<std::result::Result<std::convert::Infallible, anchor_lang::prelude::ProgramError>, anchor_lang::prelude::UpgradeableLoaderState>"* %_31 to i64*, !dbg !815
  %_35 = load i64, i64* %38, align 8, !dbg !815, !range !302
  switch i64 %_35, label %bb21 [
    i64 0, label %bb20
    i64 1, label %bb22
  ], !dbg !815

bb21:                                             ; preds = %bb19
  unreachable, !dbg !815

bb20:                                             ; preds = %bb19
  %39 = bitcast %"std::ops::ControlFlow<std::result::Result<std::convert::Infallible, anchor_lang::prelude::ProgramError>, anchor_lang::prelude::UpgradeableLoaderState>"* %_31 to %"std::ops::ControlFlow<std::result::Result<std::convert::Infallible, anchor_lang::prelude::ProgramError>, anchor_lang::prelude::UpgradeableLoaderState>::Continue"*, !dbg !815
  %40 = getelementptr inbounds %"std::ops::ControlFlow<std::result::Result<std::convert::Infallible, anchor_lang::prelude::ProgramError>, anchor_lang::prelude::UpgradeableLoaderState>::Continue", %"std::ops::ControlFlow<std::result::Result<std::convert::Infallible, anchor_lang::prelude::ProgramError>, anchor_lang::prelude::UpgradeableLoaderState>::Continue"* %39, i32 0, i32 1, !dbg !815
  %41 = bitcast %"anchor_lang::prelude::UpgradeableLoaderState"* %val to i8*, !dbg !815
  %42 = bitcast %"anchor_lang::prelude::UpgradeableLoaderState"* %40 to i8*, !dbg !815
  call void @llvm.memcpy.p0i8.p0i8.i64(i8* align 8 %41, i8* align 8 %42, i64 48, i1 false), !dbg !815
  %43 = bitcast %"anchor_lang::prelude::UpgradeableLoaderState"* %upgradable_loader_state to i8*, !dbg !793
  %44 = bitcast %"anchor_lang::prelude::UpgradeableLoaderState"* %val to i8*, !dbg !793
  call void @llvm.memcpy.p0i8.p0i8.i64(i8* align 8 %43, i8* align 8 %44, i64 48, i1 false), !dbg !793
  %45 = bitcast %"anchor_lang::prelude::UpgradeableLoaderState"* %upgradable_loader_state to i8*, !dbg !816
  %46 = load i8, i8* %45, align 8, !dbg !816, !range !817
  %_39 = zext i8 %46 to i64, !dbg !816
  switch i64 %_39, label %bb25 [
    i64 0, label %bb26
    i64 1, label %bb26
    i64 2, label %bb24
    i64 3, label %bb26
  ], !dbg !818

bb22:                                             ; preds = %bb19
  %47 = bitcast %"std::ops::ControlFlow<std::result::Result<std::convert::Infallible, anchor_lang::prelude::ProgramError>, anchor_lang::prelude::UpgradeableLoaderState>"* %_31 to %"std::ops::ControlFlow<std::result::Result<std::convert::Infallible, anchor_lang::prelude::ProgramError>, anchor_lang::prelude::UpgradeableLoaderState>::Break"*, !dbg !819
  %48 = getelementptr inbounds %"std::ops::ControlFlow<std::result::Result<std::convert::Infallible, anchor_lang::prelude::ProgramError>, anchor_lang::prelude::UpgradeableLoaderState>::Break", %"std::ops::ControlFlow<std::result::Result<std::convert::Infallible, anchor_lang::prelude::ProgramError>, anchor_lang::prelude::UpgradeableLoaderState>::Break"* %47, i32 0, i32 1, !dbg !819
  %49 = bitcast %"std::result::Result<std::convert::Infallible, anchor_lang::prelude::ProgramError>::Err"* %residual1 to i8*, !dbg !819
  %50 = bitcast %"std::result::Result<std::convert::Infallible, anchor_lang::prelude::ProgramError>::Err"* %48 to i8*, !dbg !819
  call void @llvm.memcpy.p0i8.p0i8.i64(i8* align 8 %49, i8* align 8 %50, i64 32, i1 false), !dbg !819
  %51 = bitcast %"std::result::Result<std::convert::Infallible, anchor_lang::prelude::ProgramError>::Err"* %_37 to i8*, !dbg !792
  %52 = bitcast %"std::result::Result<std::convert::Infallible, anchor_lang::prelude::ProgramError>::Err"* %residual1 to i8*, !dbg !792
  call void @llvm.memcpy.p0i8.p0i8.i64(i8* align 8 %51, i8* align 8 %52, i64 32, i1 false), !dbg !792
; call <core::result::Result<T,F> as core::ops::try_trait::FromResidual<core::result::Result<core::convert::Infallible,E>>>::from_residual
  call void @"_ZN153_$LT$core..result..Result$LT$T$C$F$GT$$u20$as$u20$core..ops..try_trait..FromResidual$LT$core..result..Result$LT$core..convert..Infallible$C$E$GT$$GT$$GT$13from_residual17h839ea806fbdd34cdE"(%"std::result::Result<anchor_lang::prelude::Program<anchor_lang::System>, anchor_lang::prelude::ProgramError>"* noalias nocapture sret(%"std::result::Result<anchor_lang::prelude::Program<anchor_lang::System>, anchor_lang::prelude::ProgramError>") dereferenceable(96) %0, %"std::result::Result<std::convert::Infallible, anchor_lang::prelude::ProgramError>::Err"* noalias nocapture dereferenceable(32) %_37), !dbg !820
  br label %bb23, !dbg !820

bb23:                                             ; preds = %bb22
; call core::ptr::drop_in_place<core::cell::Ref<&mut [u8]>>
  call void @"_ZN4core3ptr68drop_in_place$LT$core..cell..Ref$LT$$RF$mut$u20$$u5b$u8$u5d$$GT$$GT$17h75bd46d31722c5c0E"({ i64*, i64* }* %_22), !dbg !821
  br label %bb31, !dbg !821

bb25:                                             ; preds = %bb20
  unreachable, !dbg !816

bb26:                                             ; preds = %bb20, %bb20, %bb20
; call core::panicking::panic
  call void @_ZN4core9panicking5panic17h560e3e4b7752857aE([0 x i8]* nonnull align 1 bitcast (<{ [40 x i8] }>* @alloc266 to [0 x i8]*), i64 40, %"std::panic::Location"* align 8 dereferenceable(24) bitcast (<{ i8*, [16 x i8] }>* @alloc268 to %"std::panic::Location"*)), !dbg !822
  unreachable, !dbg !822

bb24:                                             ; preds = %bb20
  %53 = bitcast %"anchor_lang::prelude::UpgradeableLoaderState"* %upgradable_loader_state to %"anchor_lang::prelude::UpgradeableLoaderState::Program"*, !dbg !823
  %54 = getelementptr inbounds %"anchor_lang::prelude::UpgradeableLoaderState::Program", %"anchor_lang::prelude::UpgradeableLoaderState::Program"* %53, i32 0, i32 1, !dbg !823
  %55 = bitcast %"anchor_lang::prelude::Pubkey"* %programdata_address2 to i8*, !dbg !823
  %56 = bitcast %"anchor_lang::prelude::Pubkey"* %54 to i8*, !dbg !823
  call void @llvm.memcpy.p0i8.p0i8.i64(i8* align 1 %55, i8* align 1 %56, i64 32, i1 false), !dbg !823
  %57 = bitcast %"anchor_lang::prelude::Pubkey"* %_41 to i8*, !dbg !824
  %58 = bitcast %"anchor_lang::prelude::Pubkey"* %programdata_address2 to i8*, !dbg !824
  call void @llvm.memcpy.p0i8.p0i8.i64(i8* align 1 %57, i8* align 1 %58, i64 32, i1 false), !dbg !824
  %59 = bitcast %"std::option::Option<anchor_lang::prelude::Pubkey>"* %programdata_address to %"std::option::Option<anchor_lang::prelude::Pubkey>::Some"*, !dbg !825
  %60 = getelementptr inbounds %"std::option::Option<anchor_lang::prelude::Pubkey>::Some", %"std::option::Option<anchor_lang::prelude::Pubkey>::Some"* %59, i32 0, i32 1, !dbg !825
  %61 = bitcast %"anchor_lang::prelude::Pubkey"* %60 to i8*, !dbg !825
  %62 = bitcast %"anchor_lang::prelude::Pubkey"* %_41 to i8*, !dbg !825
  call void @llvm.memcpy.p0i8.p0i8.i64(i8* align 1 %61, i8* align 1 %62, i64 32, i1 false), !dbg !825
  %63 = bitcast %"std::option::Option<anchor_lang::prelude::Pubkey>"* %programdata_address to i8*, !dbg !825
  store i8 1, i8* %63, align 1, !dbg !825
; call core::ptr::drop_in_place<core::cell::Ref<&mut [u8]>>
  call void @"_ZN4core3ptr68drop_in_place$LT$core..cell..Ref$LT$$RF$mut$u20$$u5b$u8$u5d$$GT$$GT$17h75bd46d31722c5c0E"({ i64*, i64* }* %_22), !dbg !821
  br label %bb28, !dbg !821

bb28:                                             ; preds = %bb27, %bb24
; call <solana_program::account_info::AccountInfo as core::clone::Clone>::clone
  call void @"_ZN80_$LT$solana_program..account_info..AccountInfo$u20$as$u20$core..clone..Clone$GT$5clone17h39bb4a3ebfdaeef3E"(%"anchor_lang::prelude::AccountInfo"* noalias nocapture sret(%"anchor_lang::prelude::AccountInfo") dereferenceable(48) %_43, %"anchor_lang::prelude::AccountInfo"* align 8 dereferenceable(48) %info), !dbg !826
  br label %bb29, !dbg !826

bb29:                                             ; preds = %bb28
  %64 = bitcast %"std::option::Option<anchor_lang::prelude::Pubkey>"* %_45 to i8*, !dbg !827
  %65 = bitcast %"std::option::Option<anchor_lang::prelude::Pubkey>"* %programdata_address to i8*, !dbg !827
  call void @llvm.memcpy.p0i8.p0i8.i64(i8* align 1 %64, i8* align 1 %65, i64 33, i1 false), !dbg !827
; call anchor_lang::accounts::program::Program<T>::new
  call void @"_ZN11anchor_lang8accounts7program16Program$LT$T$GT$3new17h8d28f7e2b4baef25E"(%"anchor_lang::prelude::Program<anchor_lang::System>"* noalias nocapture sret(%"anchor_lang::prelude::Program<anchor_lang::System>") dereferenceable(88) %_42, %"anchor_lang::prelude::AccountInfo"* noalias nocapture dereferenceable(48) %_43, %"std::option::Option<anchor_lang::prelude::Pubkey>"* noalias nocapture dereferenceable(33) %_45), !dbg !828
  br label %bb30, !dbg !828

bb30:                                             ; preds = %bb29
  %66 = bitcast %"std::result::Result<anchor_lang::prelude::Program<anchor_lang::System>, anchor_lang::prelude::ProgramError>"* %0 to %"std::result::Result<anchor_lang::prelude::Program<anchor_lang::System>, anchor_lang::prelude::ProgramError>::Ok"*, !dbg !829
  %67 = getelementptr inbounds %"std::result::Result<anchor_lang::prelude::Program<anchor_lang::System>, anchor_lang::prelude::ProgramError>::Ok", %"std::result::Result<anchor_lang::prelude::Program<anchor_lang::System>, anchor_lang::prelude::ProgramError>::Ok"* %66, i32 0, i32 1, !dbg !829
  %68 = bitcast %"anchor_lang::prelude::Program<anchor_lang::System>"* %67 to i8*, !dbg !829
  %69 = bitcast %"anchor_lang::prelude::Program<anchor_lang::System>"* %_42 to i8*, !dbg !829
  call void @llvm.memcpy.p0i8.p0i8.i64(i8* align 8 %68, i8* align 8 %69, i64 88, i1 false), !dbg !829
  %70 = bitcast %"std::result::Result<anchor_lang::prelude::Program<anchor_lang::System>, anchor_lang::prelude::ProgramError>"* %0 to i64*, !dbg !829
  store i64 0, i64* %70, align 8, !dbg !829
  br label %bb31, !dbg !804
}

; <alloc::vec::Vec<T,A> as alloc::vec::spec_extend::SpecExtend<T,alloc::vec::into_iter::IntoIter<T>>>::spec_extend
; Function Attrs: nounwind
define void @"_ZN136_$LT$alloc..vec..Vec$LT$T$C$A$GT$$u20$as$u20$alloc..vec..spec_extend..SpecExtend$LT$T$C$alloc..vec..into_iter..IntoIter$LT$T$GT$$GT$$GT$11spec_extend17h8b66b323c80809b1E"(%"std::vec::Vec<u8>"* align 8 dereferenceable(24) %self, %"std::vec::IntoIter<u8>"* noalias nocapture dereferenceable(32) %iterator) unnamed_addr #1 !dbg !830 {
start:
  %self.dbg.spill = alloca %"std::vec::Vec<u8>"*, align 8
  store %"std::vec::Vec<u8>"* %self, %"std::vec::Vec<u8>"** %self.dbg.spill, align 8
  call void @llvm.dbg.declare(metadata %"std::vec::Vec<u8>"** %self.dbg.spill, metadata !838, metadata !DIExpression()), !dbg !840
  call void @llvm.dbg.declare(metadata %"std::vec::IntoIter<u8>"* %iterator, metadata !839, metadata !DIExpression()), !dbg !841
; call alloc::vec::into_iter::IntoIter<T,A>::as_slice
  %0 = call { [0 x i8]*, i64 } @"_ZN5alloc3vec9into_iter21IntoIter$LT$T$C$A$GT$8as_slice17h0396ccc60a67141fE"(%"std::vec::IntoIter<u8>"* align 8 dereferenceable(32) %iterator), !dbg !842
  %_7.0 = extractvalue { [0 x i8]*, i64 } %0, 0, !dbg !842
  %_7.1 = extractvalue { [0 x i8]*, i64 } %0, 1, !dbg !842
  br label %bb1, !dbg !842

bb1:                                              ; preds = %start
; call alloc::vec::Vec<T,A>::append_elements
  call void @"_ZN5alloc3vec16Vec$LT$T$C$A$GT$15append_elements17hac13fb768de52440E"(%"std::vec::Vec<u8>"* align 8 dereferenceable(24) %self, [0 x i8]* %_7.0, i64 %_7.1), !dbg !843
  br label %bb2, !dbg !843

bb2:                                              ; preds = %bb1
  %1 = getelementptr inbounds %"std::vec::IntoIter<u8>", %"std::vec::IntoIter<u8>"* %iterator, i32 0, i32 5, !dbg !844
  %_9 = load i8*, i8** %1, align 8, !dbg !844
  %2 = getelementptr inbounds %"std::vec::IntoIter<u8>", %"std::vec::IntoIter<u8>"* %iterator, i32 0, i32 4, !dbg !845
  store i8* %_9, i8** %2, align 8, !dbg !845
; call core::ptr::drop_in_place<alloc::vec::into_iter::IntoIter<u8>>
  call void @"_ZN4core3ptr62drop_in_place$LT$alloc..vec..into_iter..IntoIter$LT$u8$GT$$GT$17h5fec66ec51c9e64eE"(%"std::vec::IntoIter<u8>"* %iterator), !dbg !846
  br label %bb3, !dbg !846

bb3:                                              ; preds = %bb2
  ret void, !dbg !847
}

; solana_program::log::sol_log
; Function Attrs: inlinehint nounwind
define internal void @_ZN14solana_program3log7sol_log17h9074fff3cfaa086dE([0 x i8]* nonnull align 1 %message.0, i64 %message.1) unnamed_addr #0 !dbg !848 {
start:
  %message.dbg.spill = alloca { [0 x i8]*, i64 }, align 8
  %0 = getelementptr inbounds { [0 x i8]*, i64 }, { [0 x i8]*, i64 }* %message.dbg.spill, i32 0, i32 0
  store [0 x i8]* %message.0, [0 x i8]** %0, align 8
  %1 = getelementptr inbounds { [0 x i8]*, i64 }, { [0 x i8]*, i64 }* %message.dbg.spill, i32 0, i32 1
  store i64 %message.1, i64* %1, align 8
  call void @llvm.dbg.declare(metadata { [0 x i8]*, i64 }* %message.dbg.spill, metadata !854, metadata !DIExpression()), !dbg !855
; call core::str::<impl str>::as_ptr
  %_3 = call i8* @"_ZN4core3str21_$LT$impl$u20$str$GT$6as_ptr17h2d75a89d11bfd5a2E"([0 x i8]* nonnull align 1 %message.0, i64 %message.1), !dbg !856
  br label %bb1, !dbg !856

bb1:                                              ; preds = %start
; call core::str::<impl str>::len
  %_6 = call i64 @"_ZN4core3str21_$LT$impl$u20$str$GT$3len17h44c4f77752a78daaE"([0 x i8]* nonnull align 1 %message.0, i64 %message.1), !dbg !857
  br label %bb2, !dbg !857

bb2:                                              ; preds = %bb1
  call void @sol_log_(i8* %_3, i64 %_6), !dbg !858
  br label %bb3, !dbg !858

bb3:                                              ; preds = %bb2
  ret void, !dbg !859
}

; <core::result::Result<T,F> as core::ops::try_trait::FromResidual<core::result::Result<core::convert::Infallible,E>>>::from_residual
; Function Attrs: inlinehint nounwind
define void @"_ZN153_$LT$core..result..Result$LT$T$C$F$GT$$u20$as$u20$core..ops..try_trait..FromResidual$LT$core..result..Result$LT$core..convert..Infallible$C$E$GT$$GT$$GT$13from_residual17h0a8c4454c55c0fc2E"(%"std::result::Result<AddDrink, anchor_lang::prelude::ProgramError>"* noalias nocapture sret(%"std::result::Result<AddDrink, anchor_lang::prelude::ProgramError>") dereferenceable(128) %0, %"std::result::Result<std::convert::Infallible, anchor_lang::prelude::ProgramError>::Err"* noalias nocapture dereferenceable(32) %residual) unnamed_addr #0 !dbg !860 {
start:
  %_4 = alloca %"anchor_lang::prelude::ProgramError", align 8
  %_3 = alloca %"anchor_lang::prelude::ProgramError", align 8
  %e = alloca %"anchor_lang::prelude::ProgramError", align 8
  call void @llvm.dbg.declare(metadata %"std::result::Result<std::convert::Infallible, anchor_lang::prelude::ProgramError>::Err"* %residual, metadata !879, metadata !DIExpression()), !dbg !884
  call void @llvm.dbg.declare(metadata %"anchor_lang::prelude::ProgramError"* %e, metadata !880, metadata !DIExpression()), !dbg !885
  %1 = bitcast %"std::result::Result<std::convert::Infallible, anchor_lang::prelude::ProgramError>::Err"* %residual to %"anchor_lang::prelude::ProgramError"*, !dbg !886
  %2 = bitcast %"anchor_lang::prelude::ProgramError"* %e to i8*, !dbg !886
  %3 = bitcast %"anchor_lang::prelude::ProgramError"* %1 to i8*, !dbg !886
  call void @llvm.memcpy.p0i8.p0i8.i64(i8* align 8 %2, i8* align 8 %3, i64 32, i1 false), !dbg !886
  %4 = bitcast %"anchor_lang::prelude::ProgramError"* %_4 to i8*, !dbg !887
  %5 = bitcast %"anchor_lang::prelude::ProgramError"* %e to i8*, !dbg !887
  call void @llvm.memcpy.p0i8.p0i8.i64(i8* align 8 %4, i8* align 8 %5, i64 32, i1 false), !dbg !887
; call <T as core::convert::From<T>>::from
  call void @"_ZN50_$LT$T$u20$as$u20$core..convert..From$LT$T$GT$$GT$4from17h2d0952f9aa75d109E"(%"anchor_lang::prelude::ProgramError"* noalias nocapture sret(%"anchor_lang::prelude::ProgramError") dereferenceable(32) %_3, %"anchor_lang::prelude::ProgramError"* noalias nocapture dereferenceable(32) %_4), !dbg !888
  br label %bb1, !dbg !888

bb1:                                              ; preds = %start
  %6 = bitcast %"std::result::Result<AddDrink, anchor_lang::prelude::ProgramError>"* %0 to %"std::result::Result<AddDrink, anchor_lang::prelude::ProgramError>::Err"*, !dbg !889
  %7 = getelementptr inbounds %"std::result::Result<AddDrink, anchor_lang::prelude::ProgramError>::Err", %"std::result::Result<AddDrink, anchor_lang::prelude::ProgramError>::Err"* %6, i32 0, i32 1, !dbg !889
  %8 = bitcast %"anchor_lang::prelude::ProgramError"* %7 to i8*, !dbg !889
  %9 = bitcast %"anchor_lang::prelude::ProgramError"* %_3 to i8*, !dbg !889
  call void @llvm.memcpy.p0i8.p0i8.i64(i8* align 8 %8, i8* align 8 %9, i64 32, i1 false), !dbg !889
  %10 = bitcast %"std::result::Result<AddDrink, anchor_lang::prelude::ProgramError>"* %0 to i64*, !dbg !889
  store i64 1, i64* %10, align 8, !dbg !889
  ret void, !dbg !890
}

; <core::result::Result<T,F> as core::ops::try_trait::FromResidual<core::result::Result<core::convert::Infallible,E>>>::from_residual
; Function Attrs: inlinehint nounwind
define void @"_ZN153_$LT$core..result..Result$LT$T$C$F$GT$$u20$as$u20$core..ops..try_trait..FromResidual$LT$core..result..Result$LT$core..convert..Infallible$C$E$GT$$GT$$GT$13from_residual17h380e3976a0d94ea1E"(%"std::result::Result<VendingMachine, anchor_lang::prelude::ProgramError>"* noalias nocapture sret(%"std::result::Result<VendingMachine, anchor_lang::prelude::ProgramError>") dereferenceable(264) %0, %"std::result::Result<std::convert::Infallible, anchor_lang::prelude::ProgramError>::Err"* noalias nocapture dereferenceable(32) %residual) unnamed_addr #0 !dbg !891 {
start:
  %_4 = alloca %"anchor_lang::prelude::ProgramError", align 8
  %_3 = alloca %"anchor_lang::prelude::ProgramError", align 8
  %e = alloca %"anchor_lang::prelude::ProgramError", align 8
  call void @llvm.dbg.declare(metadata %"std::result::Result<std::convert::Infallible, anchor_lang::prelude::ProgramError>::Err"* %residual, metadata !908, metadata !DIExpression()), !dbg !912
  call void @llvm.dbg.declare(metadata %"anchor_lang::prelude::ProgramError"* %e, metadata !909, metadata !DIExpression()), !dbg !913
  %1 = bitcast %"std::result::Result<std::convert::Infallible, anchor_lang::prelude::ProgramError>::Err"* %residual to %"anchor_lang::prelude::ProgramError"*, !dbg !914
  %2 = bitcast %"anchor_lang::prelude::ProgramError"* %e to i8*, !dbg !914
  %3 = bitcast %"anchor_lang::prelude::ProgramError"* %1 to i8*, !dbg !914
  call void @llvm.memcpy.p0i8.p0i8.i64(i8* align 8 %2, i8* align 8 %3, i64 32, i1 false), !dbg !914
  %4 = bitcast %"anchor_lang::prelude::ProgramError"* %_4 to i8*, !dbg !915
  %5 = bitcast %"anchor_lang::prelude::ProgramError"* %e to i8*, !dbg !915
  call void @llvm.memcpy.p0i8.p0i8.i64(i8* align 8 %4, i8* align 8 %5, i64 32, i1 false), !dbg !915
; call <T as core::convert::From<T>>::from
  call void @"_ZN50_$LT$T$u20$as$u20$core..convert..From$LT$T$GT$$GT$4from17h2d0952f9aa75d109E"(%"anchor_lang::prelude::ProgramError"* noalias nocapture sret(%"anchor_lang::prelude::ProgramError") dereferenceable(32) %_3, %"anchor_lang::prelude::ProgramError"* noalias nocapture dereferenceable(32) %_4), !dbg !916
  br label %bb1, !dbg !916

bb1:                                              ; preds = %start
  %6 = bitcast %"std::result::Result<VendingMachine, anchor_lang::prelude::ProgramError>"* %0 to %"std::result::Result<VendingMachine, anchor_lang::prelude::ProgramError>::Err"*, !dbg !917
  %7 = getelementptr inbounds %"std::result::Result<VendingMachine, anchor_lang::prelude::ProgramError>::Err", %"std::result::Result<VendingMachine, anchor_lang::prelude::ProgramError>::Err"* %6, i32 0, i32 1, !dbg !917
  %8 = bitcast %"anchor_lang::prelude::ProgramError"* %7 to i8*, !dbg !917
  %9 = bitcast %"anchor_lang::prelude::ProgramError"* %_3 to i8*, !dbg !917
  call void @llvm.memcpy.p0i8.p0i8.i64(i8* align 8 %8, i8* align 8 %9, i64 32, i1 false), !dbg !917
  %10 = bitcast %"std::result::Result<VendingMachine, anchor_lang::prelude::ProgramError>"* %0 to i64*, !dbg !917
  store i64 1, i64* %10, align 8, !dbg !917
  ret void, !dbg !918
}

; <core::result::Result<T,F> as core::ops::try_trait::FromResidual<core::result::Result<core::convert::Infallible,E>>>::from_residual
; Function Attrs: inlinehint nounwind
define void @"_ZN153_$LT$core..result..Result$LT$T$C$F$GT$$u20$as$u20$core..ops..try_trait..FromResidual$LT$core..result..Result$LT$core..convert..Infallible$C$E$GT$$GT$$GT$13from_residual17h6335b311cfc6920dE"(%"std::result::Result<instruction::AddDrink, std::io::Error>"* noalias nocapture sret(%"std::result::Result<instruction::AddDrink, std::io::Error>") dereferenceable(80) %0, i128 %1) unnamed_addr #0 !dbg !919 {
start:
  %2 = alloca i128, align 8
  %_4 = alloca %"std::io::Error", align 8
  %_3 = alloca %"std::io::Error", align 8
  %e = alloca %"std::io::Error", align 8
  %3 = alloca i128, align 8
  %residual = alloca %"std::result::Result<std::convert::Infallible, std::io::Error>::Err", align 8
  store i128 %1, i128* %3, align 8
  %4 = bitcast %"std::result::Result<std::convert::Infallible, std::io::Error>::Err"* %residual to i8*
  %5 = bitcast i128* %3 to i8*
  call void @llvm.memcpy.p0i8.p0i8.i64(i8* align 8 %4, i8* align 8 %5, i64 16, i1 false)
  call void @llvm.dbg.declare(metadata %"std::result::Result<std::convert::Infallible, std::io::Error>::Err"* %residual, metadata !953, metadata !DIExpression()), !dbg !958
  call void @llvm.dbg.declare(metadata %"std::io::Error"* %e, metadata !954, metadata !DIExpression()), !dbg !959
  %6 = bitcast %"std::result::Result<std::convert::Infallible, std::io::Error>::Err"* %residual to %"std::io::Error"*, !dbg !960
  %7 = bitcast %"std::io::Error"* %e to i8*, !dbg !960
  %8 = bitcast %"std::io::Error"* %6 to i8*, !dbg !960
  call void @llvm.memcpy.p0i8.p0i8.i64(i8* align 8 %7, i8* align 8 %8, i64 16, i1 false), !dbg !960
  %9 = bitcast %"std::io::Error"* %_4 to i8*, !dbg !961
  %10 = bitcast %"std::io::Error"* %e to i8*, !dbg !961
  call void @llvm.memcpy.p0i8.p0i8.i64(i8* align 8 %9, i8* align 8 %10, i64 16, i1 false), !dbg !961
  %11 = bitcast %"std::io::Error"* %_4 to i128*, !dbg !962
  %12 = load i128, i128* %11, align 8, !dbg !962
; call <T as core::convert::From<T>>::from
  %13 = call i128 @"_ZN50_$LT$T$u20$as$u20$core..convert..From$LT$T$GT$$GT$4from17h2a8f704c093c5aa8E"(i128 %12), !dbg !962
  store i128 %13, i128* %2, align 8, !dbg !962
  %14 = bitcast %"std::io::Error"* %_3 to i8*, !dbg !962
  %15 = bitcast i128* %2 to i8*, !dbg !962
  call void @llvm.memcpy.p0i8.p0i8.i64(i8* align 8 %14, i8* align 8 %15, i64 16, i1 false), !dbg !962
  br label %bb1, !dbg !962

bb1:                                              ; preds = %start
  %16 = bitcast %"std::result::Result<instruction::AddDrink, std::io::Error>"* %0 to %"std::result::Result<instruction::AddDrink, std::io::Error>::Err"*, !dbg !963
  %17 = getelementptr inbounds %"std::result::Result<instruction::AddDrink, std::io::Error>::Err", %"std::result::Result<instruction::AddDrink, std::io::Error>::Err"* %16, i32 0, i32 1, !dbg !963
  %18 = bitcast %"std::io::Error"* %17 to i8*, !dbg !963
  %19 = bitcast %"std::io::Error"* %_3 to i8*, !dbg !963
  call void @llvm.memcpy.p0i8.p0i8.i64(i8* align 8 %18, i8* align 8 %19, i64 16, i1 false), !dbg !963
  %20 = bitcast %"std::result::Result<instruction::AddDrink, std::io::Error>"* %0 to i64*, !dbg !963
  store i64 1, i64* %20, align 8, !dbg !963
  ret void, !dbg !964
}

; <core::result::Result<T,F> as core::ops::try_trait::FromResidual<core::result::Result<core::convert::Infallible,E>>>::from_residual
; Function Attrs: inlinehint nounwind
define void @"_ZN153_$LT$core..result..Result$LT$T$C$F$GT$$u20$as$u20$core..ops..try_trait..FromResidual$LT$core..result..Result$LT$core..convert..Infallible$C$E$GT$$GT$$GT$13from_residual17h839ea806fbdd34cdE"(%"std::result::Result<anchor_lang::prelude::Program<anchor_lang::System>, anchor_lang::prelude::ProgramError>"* noalias nocapture sret(%"std::result::Result<anchor_lang::prelude::Program<anchor_lang::System>, anchor_lang::prelude::ProgramError>") dereferenceable(96) %0, %"std::result::Result<std::convert::Infallible, anchor_lang::prelude::ProgramError>::Err"* noalias nocapture dereferenceable(32) %residual) unnamed_addr #0 !dbg !965 {
start:
  %_4 = alloca %"anchor_lang::prelude::ProgramError", align 8
  %_3 = alloca %"anchor_lang::prelude::ProgramError", align 8
  %e = alloca %"anchor_lang::prelude::ProgramError", align 8
  call void @llvm.dbg.declare(metadata %"std::result::Result<std::convert::Infallible, anchor_lang::prelude::ProgramError>::Err"* %residual, metadata !969, metadata !DIExpression()), !dbg !973
  call void @llvm.dbg.declare(metadata %"anchor_lang::prelude::ProgramError"* %e, metadata !970, metadata !DIExpression()), !dbg !974
  %1 = bitcast %"std::result::Result<std::convert::Infallible, anchor_lang::prelude::ProgramError>::Err"* %residual to %"anchor_lang::prelude::ProgramError"*, !dbg !975
  %2 = bitcast %"anchor_lang::prelude::ProgramError"* %e to i8*, !dbg !975
  %3 = bitcast %"anchor_lang::prelude::ProgramError"* %1 to i8*, !dbg !975
  call void @llvm.memcpy.p0i8.p0i8.i64(i8* align 8 %2, i8* align 8 %3, i64 32, i1 false), !dbg !975
  %4 = bitcast %"anchor_lang::prelude::ProgramError"* %_4 to i8*, !dbg !976
  %5 = bitcast %"anchor_lang::prelude::ProgramError"* %e to i8*, !dbg !976
  call void @llvm.memcpy.p0i8.p0i8.i64(i8* align 8 %4, i8* align 8 %5, i64 32, i1 false), !dbg !976
; call <T as core::convert::From<T>>::from
  call void @"_ZN50_$LT$T$u20$as$u20$core..convert..From$LT$T$GT$$GT$4from17h2d0952f9aa75d109E"(%"anchor_lang::prelude::ProgramError"* noalias nocapture sret(%"anchor_lang::prelude::ProgramError") dereferenceable(32) %_3, %"anchor_lang::prelude::ProgramError"* noalias nocapture dereferenceable(32) %_4), !dbg !977
  br label %bb1, !dbg !977

bb1:                                              ; preds = %start
  %6 = bitcast %"std::result::Result<anchor_lang::prelude::Program<anchor_lang::System>, anchor_lang::prelude::ProgramError>"* %0 to %"std::result::Result<anchor_lang::prelude::Program<anchor_lang::System>, anchor_lang::prelude::ProgramError>::Err"*, !dbg !978
  %7 = getelementptr inbounds %"std::result::Result<anchor_lang::prelude::Program<anchor_lang::System>, anchor_lang::prelude::ProgramError>::Err", %"std::result::Result<anchor_lang::prelude::Program<anchor_lang::System>, anchor_lang::prelude::ProgramError>::Err"* %6, i32 0, i32 1, !dbg !978
  %8 = bitcast %"anchor_lang::prelude::ProgramError"* %7 to i8*, !dbg !978
  %9 = bitcast %"anchor_lang::prelude::ProgramError"* %_3 to i8*, !dbg !978
  call void @llvm.memcpy.p0i8.p0i8.i64(i8* align 8 %8, i8* align 8 %9, i64 32, i1 false), !dbg !978
  %10 = bitcast %"std::result::Result<anchor_lang::prelude::Program<anchor_lang::System>, anchor_lang::prelude::ProgramError>"* %0 to i64*, !dbg !978
  store i64 1, i64* %10, align 8, !dbg !978
  ret void, !dbg !979
}

; <core::result::Result<T,F> as core::ops::try_trait::FromResidual<core::result::Result<core::convert::Infallible,E>>>::from_residual
; Function Attrs: inlinehint nounwind
define void @"_ZN153_$LT$core..result..Result$LT$T$C$F$GT$$u20$as$u20$core..ops..try_trait..FromResidual$LT$core..result..Result$LT$core..convert..Infallible$C$E$GT$$GT$$GT$13from_residual17h8f4f10f9357a8b81E"(%"std::result::Result<Vending, std::io::Error>"* noalias nocapture sret(%"std::result::Result<Vending, std::io::Error>") dereferenceable(80) %0, i128 %1) unnamed_addr #0 !dbg !980 {
start:
  %2 = alloca i128, align 8
  %_4 = alloca %"std::io::Error", align 8
  %_3 = alloca %"std::io::Error", align 8
  %e = alloca %"std::io::Error", align 8
  %3 = alloca i128, align 8
  %residual = alloca %"std::result::Result<std::convert::Infallible, std::io::Error>::Err", align 8
  store i128 %1, i128* %3, align 8
  %4 = bitcast %"std::result::Result<std::convert::Infallible, std::io::Error>::Err"* %residual to i8*
  %5 = bitcast i128* %3 to i8*
  call void @llvm.memcpy.p0i8.p0i8.i64(i8* align 8 %4, i8* align 8 %5, i64 16, i1 false)
  call void @llvm.dbg.declare(metadata %"std::result::Result<std::convert::Infallible, std::io::Error>::Err"* %residual, metadata !997, metadata !DIExpression()), !dbg !1001
  call void @llvm.dbg.declare(metadata %"std::io::Error"* %e, metadata !998, metadata !DIExpression()), !dbg !1002
  %6 = bitcast %"std::result::Result<std::convert::Infallible, std::io::Error>::Err"* %residual to %"std::io::Error"*, !dbg !1003
  %7 = bitcast %"std::io::Error"* %e to i8*, !dbg !1003
  %8 = bitcast %"std::io::Error"* %6 to i8*, !dbg !1003
  call void @llvm.memcpy.p0i8.p0i8.i64(i8* align 8 %7, i8* align 8 %8, i64 16, i1 false), !dbg !1003
  %9 = bitcast %"std::io::Error"* %_4 to i8*, !dbg !1004
  %10 = bitcast %"std::io::Error"* %e to i8*, !dbg !1004
  call void @llvm.memcpy.p0i8.p0i8.i64(i8* align 8 %9, i8* align 8 %10, i64 16, i1 false), !dbg !1004
  %11 = bitcast %"std::io::Error"* %_4 to i128*, !dbg !1005
  %12 = load i128, i128* %11, align 8, !dbg !1005
; call <T as core::convert::From<T>>::from
  %13 = call i128 @"_ZN50_$LT$T$u20$as$u20$core..convert..From$LT$T$GT$$GT$4from17h2a8f704c093c5aa8E"(i128 %12), !dbg !1005
  store i128 %13, i128* %2, align 8, !dbg !1005
  %14 = bitcast %"std::io::Error"* %_3 to i8*, !dbg !1005
  %15 = bitcast i128* %2 to i8*, !dbg !1005
  call void @llvm.memcpy.p0i8.p0i8.i64(i8* align 8 %14, i8* align 8 %15, i64 16, i1 false), !dbg !1005
  br label %bb1, !dbg !1005

bb1:                                              ; preds = %start
  %16 = bitcast %"std::result::Result<Vending, std::io::Error>"* %0 to %"std::result::Result<Vending, std::io::Error>::Err"*, !dbg !1006
  %17 = getelementptr inbounds %"std::result::Result<Vending, std::io::Error>::Err", %"std::result::Result<Vending, std::io::Error>::Err"* %16, i32 0, i32 1, !dbg !1006
  %18 = bitcast %"std::io::Error"* %17 to i8*, !dbg !1006
  %19 = bitcast %"std::io::Error"* %_3 to i8*, !dbg !1006
  call void @llvm.memcpy.p0i8.p0i8.i64(i8* align 8 %18, i8* align 8 %19, i64 16, i1 false), !dbg !1006
  %20 = bitcast %"std::result::Result<Vending, std::io::Error>"* %0 to i64*, !dbg !1006
  store i64 1, i64* %20, align 8, !dbg !1006
  ret void, !dbg !1007
}

; <core::result::Result<T,F> as core::ops::try_trait::FromResidual<core::result::Result<core::convert::Infallible,E>>>::from_residual
; Function Attrs: inlinehint nounwind
define void @"_ZN153_$LT$core..result..Result$LT$T$C$F$GT$$u20$as$u20$core..ops..try_trait..FromResidual$LT$core..result..Result$LT$core..convert..Infallible$C$E$GT$$GT$$GT$13from_residual17hbc6a978433ef2318E"(%"std::result::Result<anchor_lang::prelude::Account<Vending>, anchor_lang::prelude::ProgramError>"* noalias nocapture sret(%"std::result::Result<anchor_lang::prelude::Account<Vending>, anchor_lang::prelude::ProgramError>") dereferenceable(128) %0, %"std::result::Result<std::convert::Infallible, anchor_lang::prelude::ProgramError>::Err"* noalias nocapture dereferenceable(32) %residual) unnamed_addr #0 !dbg !1008 {
start:
  %_4 = alloca %"anchor_lang::prelude::ProgramError", align 8
  %_3 = alloca %"anchor_lang::prelude::ProgramError", align 8
  %e = alloca %"anchor_lang::prelude::ProgramError", align 8
  call void @llvm.dbg.declare(metadata %"std::result::Result<std::convert::Infallible, anchor_lang::prelude::ProgramError>::Err"* %residual, metadata !1012, metadata !DIExpression()), !dbg !1016
  call void @llvm.dbg.declare(metadata %"anchor_lang::prelude::ProgramError"* %e, metadata !1013, metadata !DIExpression()), !dbg !1017
  %1 = bitcast %"std::result::Result<std::convert::Infallible, anchor_lang::prelude::ProgramError>::Err"* %residual to %"anchor_lang::prelude::ProgramError"*, !dbg !1018
  %2 = bitcast %"anchor_lang::prelude::ProgramError"* %e to i8*, !dbg !1018
  %3 = bitcast %"anchor_lang::prelude::ProgramError"* %1 to i8*, !dbg !1018
  call void @llvm.memcpy.p0i8.p0i8.i64(i8* align 8 %2, i8* align 8 %3, i64 32, i1 false), !dbg !1018
  %4 = bitcast %"anchor_lang::prelude::ProgramError"* %_4 to i8*, !dbg !1019
  %5 = bitcast %"anchor_lang::prelude::ProgramError"* %e to i8*, !dbg !1019
  call void @llvm.memcpy.p0i8.p0i8.i64(i8* align 8 %4, i8* align 8 %5, i64 32, i1 false), !dbg !1019
; call <T as core::convert::From<T>>::from
  call void @"_ZN50_$LT$T$u20$as$u20$core..convert..From$LT$T$GT$$GT$4from17h2d0952f9aa75d109E"(%"anchor_lang::prelude::ProgramError"* noalias nocapture sret(%"anchor_lang::prelude::ProgramError") dereferenceable(32) %_3, %"anchor_lang::prelude::ProgramError"* noalias nocapture dereferenceable(32) %_4), !dbg !1020
  br label %bb1, !dbg !1020

bb1:                                              ; preds = %start
  %6 = bitcast %"std::result::Result<anchor_lang::prelude::Account<Vending>, anchor_lang::prelude::ProgramError>"* %0 to %"std::result::Result<anchor_lang::prelude::Account<Vending>, anchor_lang::prelude::ProgramError>::Err"*, !dbg !1021
  %7 = getelementptr inbounds %"std::result::Result<anchor_lang::prelude::Account<Vending>, anchor_lang::prelude::ProgramError>::Err", %"std::result::Result<anchor_lang::prelude::Account<Vending>, anchor_lang::prelude::ProgramError>::Err"* %6, i32 0, i32 1, !dbg !1021
  %8 = bitcast %"anchor_lang::prelude::ProgramError"* %7 to i8*, !dbg !1021
  %9 = bitcast %"anchor_lang::prelude::ProgramError"* %_3 to i8*, !dbg !1021
  call void @llvm.memcpy.p0i8.p0i8.i64(i8* align 8 %8, i8* align 8 %9, i64 32, i1 false), !dbg !1021
  %10 = bitcast %"std::result::Result<anchor_lang::prelude::Account<Vending>, anchor_lang::prelude::ProgramError>"* %0 to i64*, !dbg !1021
  store i64 1, i64* %10, align 8, !dbg !1021
  ret void, !dbg !1022
}

; <<alloc::vec::into_iter::IntoIter<T,A> as core::ops::drop::Drop>::drop::DropGuard<T,A> as core::ops::drop::Drop>::drop
; Function Attrs: nounwind
define void @"_ZN157_$LT$$LT$alloc..vec..into_iter..IntoIter$LT$T$C$A$GT$$u20$as$u20$core..ops..drop..Drop$GT$..drop..DropGuard$LT$T$C$A$GT$$u20$as$u20$core..ops..drop..Drop$GT$4drop17h5b56397452b969d4E"(i64** align 8 dereferenceable(8) %self) unnamed_addr #1 !dbg !1023 {
start:
  %alloc.dbg.spill = alloca %"std::alloc::Global", align 1
  %self.dbg.spill = alloca i64**, align 8
  %_5 = alloca { i8*, i64 }, align 8
  store i64** %self, i64*** %self.dbg.spill, align 8
  call void @llvm.dbg.declare(metadata i64*** %self.dbg.spill, metadata !1035, metadata !DIExpression()), !dbg !1038
  call void @llvm.dbg.declare(metadata %"std::alloc::Global"* %alloc.dbg.spill, metadata !1036, metadata !DIExpression()), !dbg !1039
  %0 = bitcast i64** %self to %"std::vec::IntoIter<u8>"**, !dbg !1040
  %1 = load %"std::vec::IntoIter<u8>"*, %"std::vec::IntoIter<u8>"** %0, align 8, !dbg !1040, !nonnull !4
  %_4 = bitcast %"std::vec::IntoIter<u8>"* %1 to %"std::alloc::Global"*, !dbg !1040
; call core::ptr::read
  call void @_ZN4core3ptr4read17h6569f4202db5e00dE(%"std::alloc::Global"* %_4), !dbg !1041
  br label %bb1, !dbg !1041

bb1:                                              ; preds = %start
  %2 = bitcast i64** %self to %"std::vec::IntoIter<u8>"**, !dbg !1042
  %3 = load %"std::vec::IntoIter<u8>"*, %"std::vec::IntoIter<u8>"** %2, align 8, !dbg !1042, !nonnull !4
  %4 = bitcast %"std::vec::IntoIter<u8>"* %3 to i8**, !dbg !1042
  %_7 = load i8*, i8** %4, align 8, !dbg !1042, !nonnull !4
; call core::ptr::non_null::NonNull<T>::as_ptr
  %_6 = call i8* @"_ZN4core3ptr8non_null16NonNull$LT$T$GT$6as_ptr17h693be9d1aa38e18cE"(i8* nonnull %_7), !dbg !1042
  br label %bb2, !dbg !1042

bb2:                                              ; preds = %bb1
  %5 = bitcast i64** %self to %"std::vec::IntoIter<u8>"**, !dbg !1043
  %6 = load %"std::vec::IntoIter<u8>"*, %"std::vec::IntoIter<u8>"** %5, align 8, !dbg !1043, !nonnull !4
  %7 = getelementptr inbounds %"std::vec::IntoIter<u8>", %"std::vec::IntoIter<u8>"* %6, i32 0, i32 3, !dbg !1043
  %_8 = load i64, i64* %7, align 8, !dbg !1043
; call alloc::raw_vec::RawVec<T,A>::from_raw_parts_in
  %8 = call { i8*, i64 } @"_ZN5alloc7raw_vec19RawVec$LT$T$C$A$GT$17from_raw_parts_in17h6020a2fb28aa4d23E"(i8* %_6, i64 %_8), !dbg !1044
  store { i8*, i64 } %8, { i8*, i64 }* %_5, align 8, !dbg !1044
  br label %bb3, !dbg !1044

bb3:                                              ; preds = %bb2
; call core::ptr::drop_in_place<alloc::raw_vec::RawVec<u8>>
  call void @"_ZN4core3ptr53drop_in_place$LT$alloc..raw_vec..RawVec$LT$u8$GT$$GT$17h9760c0eeeb67de12E"({ i8*, i64 }* %_5), !dbg !1045
  br label %bb4, !dbg !1045

bb4:                                              ; preds = %bb3
  ret void, !dbg !1046
}

; <&T as core::fmt::Display>::fmt
; Function Attrs: nounwind
define zeroext i1 @"_ZN44_$LT$$RF$T$u20$as$u20$core..fmt..Display$GT$3fmt17h97ee986d4d718d96E"(%"std::panic::PanicInfo"** align 8 dereferenceable(8) %self, %"std::fmt::Formatter"* align 8 dereferenceable(64) %f) unnamed_addr #1 !dbg !1047 {
start:
  %f.dbg.spill = alloca %"std::fmt::Formatter"*, align 8
  %self.dbg.spill = alloca %"std::panic::PanicInfo"**, align 8
  store %"std::panic::PanicInfo"** %self, %"std::panic::PanicInfo"*** %self.dbg.spill, align 8
  call void @llvm.dbg.declare(metadata %"std::panic::PanicInfo"*** %self.dbg.spill, metadata !1167, metadata !DIExpression()), !dbg !1171
  store %"std::fmt::Formatter"* %f, %"std::fmt::Formatter"** %f.dbg.spill, align 8
  call void @llvm.dbg.declare(metadata %"std::fmt::Formatter"** %f.dbg.spill, metadata !1168, metadata !DIExpression()), !dbg !1172
  %_4 = load %"std::panic::PanicInfo"*, %"std::panic::PanicInfo"** %self, align 8, !dbg !1173, !nonnull !4
; call <core::panic::panic_info::PanicInfo as core::fmt::Display>::fmt
  %0 = call zeroext i1 @"_ZN73_$LT$core..panic..panic_info..PanicInfo$u20$as$u20$core..fmt..Display$GT$3fmt17hcb766b095e4c1194E"(%"std::panic::PanicInfo"* align 8 dereferenceable(32) %_4, %"std::fmt::Formatter"* align 8 dereferenceable(64) %f), !dbg !1174
  br label %bb1, !dbg !1174

bb1:                                              ; preds = %start
  ret i1 %0, !dbg !1175
}

; <T as alloc::string::ToString>::to_string
; Function Attrs: inlinehint nounwind
define void @"_ZN45_$LT$T$u20$as$u20$alloc..string..ToString$GT$9to_string17hc8ed38b3ad8e8713E"(%"std::string::String"* noalias nocapture sret(%"std::string::String") dereferenceable(24) %buf, %"anchor_lang::prelude::ProgramError"* align 8 dereferenceable(32) %self) unnamed_addr #0 !dbg !1176 {
start:
  %self.dbg.spill = alloca %"anchor_lang::prelude::ProgramError"*, align 8
  %formatter = alloca %"std::fmt::Formatter", align 8
  call void @llvm.dbg.declare(metadata %"std::string::String"* %buf, metadata !1184, metadata !DIExpression()), !dbg !1190
  store %"anchor_lang::prelude::ProgramError"* %self, %"anchor_lang::prelude::ProgramError"** %self.dbg.spill, align 8
  call void @llvm.dbg.declare(metadata %"anchor_lang::prelude::ProgramError"** %self.dbg.spill, metadata !1183, metadata !DIExpression()), !dbg !1191
  call void @llvm.dbg.declare(metadata %"std::fmt::Formatter"* %formatter, metadata !1186, metadata !DIExpression()), !dbg !1192
; call alloc::string::String::new
  call void @_ZN5alloc6string6String3new17he10f2213ed84dc3aE(%"std::string::String"* noalias nocapture sret(%"std::string::String") dereferenceable(24) %buf), !dbg !1193
  br label %bb1, !dbg !1193

bb1:                                              ; preds = %start
  %_3.0 = bitcast %"std::string::String"* %buf to {}*, !dbg !1194
; call core::fmt::Formatter::new
  call void @_ZN4core3fmt9Formatter3new17h8419fd44f5858346E(%"std::fmt::Formatter"* noalias nocapture sret(%"std::fmt::Formatter") dereferenceable(64) %formatter, {}* nonnull align 1 %_3.0, [3 x i64]* align 8 dereferenceable(24) bitcast (<{ i8*, [16 x i8], i8*, i8*, i8*, [0 x i8] }>* @vtable.0 to [3 x i64]*)), !dbg !1195
  br label %bb2, !dbg !1195

bb2:                                              ; preds = %bb1
; call <solana_program::program_error::ProgramError as core::fmt::Display>::fmt
  %_7 = call zeroext i1 @"_ZN82_$LT$solana_program..program_error..ProgramError$u20$as$u20$core..fmt..Display$GT$3fmt17hc31a56b03febc89fE"(%"anchor_lang::prelude::ProgramError"* align 8 dereferenceable(32) %self, %"std::fmt::Formatter"* align 8 dereferenceable(64) %formatter), !dbg !1196
  br label %bb3, !dbg !1196

bb3:                                              ; preds = %bb2
; call core::result::Result<T,E>::expect
  call void @"_ZN4core6result19Result$LT$T$C$E$GT$6expect17h91ef661750dd510dE"(i1 zeroext %_7, [0 x i8]* nonnull align 1 bitcast (<{ [55 x i8] }>* @alloc274 to [0 x i8]*), i64 55, %"std::panic::Location"* align 8 dereferenceable(24) bitcast (<{ i8*, [16 x i8] }>* @alloc276 to %"std::panic::Location"*)), !dbg !1196
  br label %bb4, !dbg !1196

bb4:                                              ; preds = %bb3
  ret void, !dbg !1197
}

; <str as alloc::string::ToString>::to_string
; Function Attrs: inlinehint nounwind
define internal void @"_ZN47_$LT$str$u20$as$u20$alloc..string..ToString$GT$9to_string17ha666ea0657c78d09E"(%"std::string::String"* noalias nocapture sret(%"std::string::String") dereferenceable(24) %0, [0 x i8]* nonnull align 1 %self.0, i64 %self.1) unnamed_addr #0 !dbg !1198 {
start:
  %self.dbg.spill = alloca { [0 x i8]*, i64 }, align 8
  %1 = getelementptr inbounds { [0 x i8]*, i64 }, { [0 x i8]*, i64 }* %self.dbg.spill, i32 0, i32 0
  store [0 x i8]* %self.0, [0 x i8]** %1, align 8
  %2 = getelementptr inbounds { [0 x i8]*, i64 }, { [0 x i8]*, i64 }* %self.dbg.spill, i32 0, i32 1
  store i64 %self.1, i64* %2, align 8
  call void @llvm.dbg.declare(metadata { [0 x i8]*, i64 }* %self.dbg.spill, metadata !1203, metadata !DIExpression()), !dbg !1204
; call <alloc::string::String as core::convert::From<&str>>::from
  call void @"_ZN76_$LT$alloc..string..String$u20$as$u20$core..convert..From$LT$$RF$str$GT$$GT$4from17h3b7bcef0726c98dfE"(%"std::string::String"* noalias nocapture sret(%"std::string::String") dereferenceable(24) %0, [0 x i8]* nonnull align 1 %self.0, i64 %self.1), !dbg !1205
  br label %bb1, !dbg !1205

bb1:                                              ; preds = %start
  ret void, !dbg !1206
}

; <u8 as borsh::ser::BorshSerialize>::u8_slice
; Function Attrs: inlinehint nounwind
define internal { i8*, i64 } @"_ZN49_$LT$u8$u20$as$u20$borsh..ser..BorshSerialize$GT$8u8_slice17ha00d7d9907ac18b7E"([0 x i8]* nonnull align 1 %slice.0, i64 %slice.1) unnamed_addr #0 !dbg !1207 {
start:
  %slice.dbg.spill = alloca { [0 x i8]*, i64 }, align 8
  %0 = alloca { i8*, i64 }, align 8
  %1 = getelementptr inbounds { [0 x i8]*, i64 }, { [0 x i8]*, i64 }* %slice.dbg.spill, i32 0, i32 0
  store [0 x i8]* %slice.0, [0 x i8]** %1, align 8
  %2 = getelementptr inbounds { [0 x i8]*, i64 }, { [0 x i8]*, i64 }* %slice.dbg.spill, i32 0, i32 1
  store i64 %slice.1, i64* %2, align 8
  call void @llvm.dbg.declare(metadata { [0 x i8]*, i64 }* %slice.dbg.spill, metadata !1227, metadata !DIExpression()), !dbg !1228
  %3 = bitcast { i8*, i64 }* %0 to { [0 x i8]*, i64 }*, !dbg !1229
  %4 = getelementptr inbounds { [0 x i8]*, i64 }, { [0 x i8]*, i64 }* %3, i32 0, i32 0, !dbg !1229
  store [0 x i8]* %slice.0, [0 x i8]** %4, align 8, !dbg !1229
  %5 = getelementptr inbounds { [0 x i8]*, i64 }, { [0 x i8]*, i64 }* %3, i32 0, i32 1, !dbg !1229
  store i64 %slice.1, i64* %5, align 8, !dbg !1229
  %6 = getelementptr inbounds { i8*, i64 }, { i8*, i64 }* %0, i32 0, i32 0, !dbg !1230
  %7 = load i8*, i8** %6, align 8, !dbg !1230
  %8 = getelementptr inbounds { i8*, i64 }, { i8*, i64 }* %0, i32 0, i32 1, !dbg !1230
  %9 = load i64, i64* %8, align 8, !dbg !1230
  %10 = insertvalue { i8*, i64 } undef, i8* %7, 0, !dbg !1230
  %11 = insertvalue { i8*, i64 } %10, i64 %9, 1, !dbg !1230
  ret { i8*, i64 } %11, !dbg !1230
}

; <u8 as borsh::ser::BorshSerialize>::serialize
; Function Attrs: inlinehint nounwind
define i128 @"_ZN49_$LT$u8$u20$as$u20$borsh..ser..BorshSerialize$GT$9serialize17hd1408e2fd1adc0eaE"(i8* align 1 dereferenceable(1) %self, %"std::vec::Vec<u8>"* align 8 dereferenceable(24) %writer) unnamed_addr #0 !dbg !1231 {
start:
  %0 = alloca i128, align 8
  %writer.dbg.spill = alloca %"std::vec::Vec<u8>"*, align 8
  %self.dbg.spill = alloca i8*, align 8
  %1 = alloca %"std::result::Result<(), std::io::Error>", align 8
  store i8* %self, i8** %self.dbg.spill, align 8
  call void @llvm.dbg.declare(metadata i8** %self.dbg.spill, metadata !1252, metadata !DIExpression()), !dbg !1256
  store %"std::vec::Vec<u8>"* %writer, %"std::vec::Vec<u8>"** %writer.dbg.spill, align 8
  call void @llvm.dbg.declare(metadata %"std::vec::Vec<u8>"** %writer.dbg.spill, metadata !1253, metadata !DIExpression()), !dbg !1257
; call core::slice::raw::from_ref
  %2 = call { [0 x i8]*, i64 } @_ZN4core5slice3raw8from_ref17h30e911b02907b581E(i8* align 1 dereferenceable(1) %self), !dbg !1258
  %_5.0 = extractvalue { [0 x i8]*, i64 } %2, 0, !dbg !1258
  %_5.1 = extractvalue { [0 x i8]*, i64 } %2, 1, !dbg !1258
  br label %bb1, !dbg !1258

bb1:                                              ; preds = %start
; call std::io::impls::<impl std::io::Write for alloc::vec::Vec<u8,A>>::write_all
  %3 = call i128 @"_ZN3std2io5impls74_$LT$impl$u20$std..io..Write$u20$for$u20$alloc..vec..Vec$LT$u8$C$A$GT$$GT$9write_all17h5c5ca10c13d78caeE"(%"std::vec::Vec<u8>"* align 8 dereferenceable(24) %writer, [0 x i8]* nonnull align 1 %_5.0, i64 %_5.1), !dbg !1259
  store i128 %3, i128* %0, align 8, !dbg !1259
  %4 = bitcast %"std::result::Result<(), std::io::Error>"* %1 to i8*, !dbg !1259
  %5 = bitcast i128* %0 to i8*, !dbg !1259
  call void @llvm.memcpy.p0i8.p0i8.i64(i8* align 8 %4, i8* align 8 %5, i64 16, i1 false), !dbg !1259
  br label %bb2, !dbg !1259

bb2:                                              ; preds = %bb1
  %6 = bitcast %"std::result::Result<(), std::io::Error>"* %1 to i128*, !dbg !1260
  %7 = load i128, i128* %6, align 8, !dbg !1260
  ret i128 %7, !dbg !1260
}

; core::fmt::ArgumentV1::new
; Function Attrs: nounwind
define { i8*, i64* } @_ZN4core3fmt10ArgumentV13new17h0dc47c22950646b0E(%"std::panic::PanicInfo"** align 8 dereferenceable(8) %x, i1 (%"std::panic::PanicInfo"**, %"std::fmt::Formatter"*)* nonnull %f) unnamed_addr #1 !dbg !1261 {
start:
  %0 = alloca %"core::fmt::Opaque"*, align 8
  %1 = alloca i1 (%"core::fmt::Opaque"*, %"std::fmt::Formatter"*)*, align 8
  %f.dbg.spill = alloca i1 (%"std::panic::PanicInfo"**, %"std::fmt::Formatter"*)*, align 8
  %x.dbg.spill = alloca %"std::panic::PanicInfo"**, align 8
  %2 = alloca { i8*, i64* }, align 8
  store %"std::panic::PanicInfo"** %x, %"std::panic::PanicInfo"*** %x.dbg.spill, align 8
  call void @llvm.dbg.declare(metadata %"std::panic::PanicInfo"*** %x.dbg.spill, metadata !1266, metadata !DIExpression()), !dbg !1270
  store i1 (%"std::panic::PanicInfo"**, %"std::fmt::Formatter"*)* %f, i1 (%"std::panic::PanicInfo"**, %"std::fmt::Formatter"*)** %f.dbg.spill, align 8
  call void @llvm.dbg.declare(metadata i1 (%"std::panic::PanicInfo"**, %"std::fmt::Formatter"*)** %f.dbg.spill, metadata !1267, metadata !DIExpression()), !dbg !1271
  %3 = bitcast i1 (%"std::panic::PanicInfo"**, %"std::fmt::Formatter"*)* %f to i1 (%"core::fmt::Opaque"*, %"std::fmt::Formatter"*)*, !dbg !1272
  store i1 (%"core::fmt::Opaque"*, %"std::fmt::Formatter"*)* %3, i1 (%"core::fmt::Opaque"*, %"std::fmt::Formatter"*)** %1, align 8, !dbg !1272
  %_3 = load i1 (%"core::fmt::Opaque"*, %"std::fmt::Formatter"*)*, i1 (%"core::fmt::Opaque"*, %"std::fmt::Formatter"*)** %1, align 8, !dbg !1272, !nonnull !4
  br label %bb1, !dbg !1272

bb1:                                              ; preds = %start
  %4 = bitcast %"std::panic::PanicInfo"** %x to %"core::fmt::Opaque"*, !dbg !1273
  store %"core::fmt::Opaque"* %4, %"core::fmt::Opaque"** %0, align 8, !dbg !1273
  %_5 = load %"core::fmt::Opaque"*, %"core::fmt::Opaque"** %0, align 8, !dbg !1273, !nonnull !4
  br label %bb2, !dbg !1273

bb2:                                              ; preds = %bb1
  %5 = bitcast { i8*, i64* }* %2 to %"core::fmt::Opaque"**, !dbg !1274
  store %"core::fmt::Opaque"* %_5, %"core::fmt::Opaque"** %5, align 8, !dbg !1274
  %6 = getelementptr inbounds { i8*, i64* }, { i8*, i64* }* %2, i32 0, i32 1, !dbg !1274
  %7 = bitcast i64** %6 to i1 (%"core::fmt::Opaque"*, %"std::fmt::Formatter"*)**, !dbg !1274
  store i1 (%"core::fmt::Opaque"*, %"std::fmt::Formatter"*)* %_3, i1 (%"core::fmt::Opaque"*, %"std::fmt::Formatter"*)** %7, align 8, !dbg !1274
  %8 = getelementptr inbounds { i8*, i64* }, { i8*, i64* }* %2, i32 0, i32 0, !dbg !1275
  %9 = load i8*, i8** %8, align 8, !dbg !1275, !nonnull !4
  %10 = getelementptr inbounds { i8*, i64* }, { i8*, i64* }* %2, i32 0, i32 1, !dbg !1275
  %11 = load i64*, i64** %10, align 8, !dbg !1275, !nonnull !4
  %12 = insertvalue { i8*, i64* } undef, i8* %9, 0, !dbg !1275
  %13 = insertvalue { i8*, i64* } %12, i64* %11, 1, !dbg !1275
  ret { i8*, i64* } %13, !dbg !1275
}

; core::fmt::Arguments::new_v1
; Function Attrs: inlinehint nounwind
define internal void @_ZN4core3fmt9Arguments6new_v117h59eb2fc36a60fc94E(%"std::fmt::Arguments"* noalias nocapture sret(%"std::fmt::Arguments") dereferenceable(48) %0, [0 x { [0 x i8]*, i64 }]* nonnull align 8 %pieces.0, i64 %pieces.1, [0 x { i8*, i64* }]* nonnull align 8 %args.0, i64 %args.1) unnamed_addr #0 !dbg !1276 {
start:
  %args.dbg.spill = alloca { [0 x { i8*, i64* }]*, i64 }, align 8
  %pieces.dbg.spill = alloca { [0 x { [0 x i8]*, i64 }]*, i64 }, align 8
  %_16 = alloca { i64*, i64 }, align 8
  %_3 = alloca i8, align 1
  %1 = getelementptr inbounds { [0 x { [0 x i8]*, i64 }]*, i64 }, { [0 x { [0 x i8]*, i64 }]*, i64 }* %pieces.dbg.spill, i32 0, i32 0
  store [0 x { [0 x i8]*, i64 }]* %pieces.0, [0 x { [0 x i8]*, i64 }]** %1, align 8
  %2 = getelementptr inbounds { [0 x { [0 x i8]*, i64 }]*, i64 }, { [0 x { [0 x i8]*, i64 }]*, i64 }* %pieces.dbg.spill, i32 0, i32 1
  store i64 %pieces.1, i64* %2, align 8
  call void @llvm.dbg.declare(metadata { [0 x { [0 x i8]*, i64 }]*, i64 }* %pieces.dbg.spill, metadata !1280, metadata !DIExpression()), !dbg !1282
  %3 = getelementptr inbounds { [0 x { i8*, i64* }]*, i64 }, { [0 x { i8*, i64* }]*, i64 }* %args.dbg.spill, i32 0, i32 0
  store [0 x { i8*, i64* }]* %args.0, [0 x { i8*, i64* }]** %3, align 8
  %4 = getelementptr inbounds { [0 x { i8*, i64* }]*, i64 }, { [0 x { i8*, i64* }]*, i64 }* %args.dbg.spill, i32 0, i32 1
  store i64 %args.1, i64* %4, align 8
  call void @llvm.dbg.declare(metadata { [0 x { i8*, i64* }]*, i64 }* %args.dbg.spill, metadata !1281, metadata !DIExpression()), !dbg !1283
  %_4 = icmp ult i64 %pieces.1, %args.1, !dbg !1284
  br i1 %_4, label %bb1, label %bb2, !dbg !1284

bb2:                                              ; preds = %start
  %_12 = add i64 %args.1, 1, !dbg !1285
  %_9 = icmp ugt i64 %pieces.1, %_12, !dbg !1286
  %5 = zext i1 %_9 to i8, !dbg !1284
  store i8 %5, i8* %_3, align 1, !dbg !1284
  br label %bb3, !dbg !1284

bb1:                                              ; preds = %start
  store i8 1, i8* %_3, align 1, !dbg !1284
  br label %bb3, !dbg !1284

bb3:                                              ; preds = %bb2, %bb1
  %6 = load i8, i8* %_3, align 1, !dbg !1284, !range !637
  %7 = trunc i8 %6 to i1, !dbg !1284
  br i1 %7, label %bb4, label %bb5, !dbg !1284

bb5:                                              ; preds = %bb3
  %8 = bitcast { i64*, i64 }* %_16 to {}**, !dbg !1287
  store {}* null, {}** %8, align 8, !dbg !1287
  %9 = bitcast %"std::fmt::Arguments"* %0 to { [0 x { [0 x i8]*, i64 }]*, i64 }*, !dbg !1288
  %10 = getelementptr inbounds { [0 x { [0 x i8]*, i64 }]*, i64 }, { [0 x { [0 x i8]*, i64 }]*, i64 }* %9, i32 0, i32 0, !dbg !1288
  store [0 x { [0 x i8]*, i64 }]* %pieces.0, [0 x { [0 x i8]*, i64 }]** %10, align 8, !dbg !1288
  %11 = getelementptr inbounds { [0 x { [0 x i8]*, i64 }]*, i64 }, { [0 x { [0 x i8]*, i64 }]*, i64 }* %9, i32 0, i32 1, !dbg !1288
  store i64 %pieces.1, i64* %11, align 8, !dbg !1288
  %12 = getelementptr inbounds %"std::fmt::Arguments", %"std::fmt::Arguments"* %0, i32 0, i32 1, !dbg !1288
  %13 = getelementptr inbounds { i64*, i64 }, { i64*, i64 }* %_16, i32 0, i32 0, !dbg !1288
  %14 = load i64*, i64** %13, align 8, !dbg !1288
  %15 = getelementptr inbounds { i64*, i64 }, { i64*, i64 }* %_16, i32 0, i32 1, !dbg !1288
  %16 = load i64, i64* %15, align 8, !dbg !1288
  %17 = getelementptr inbounds { i64*, i64 }, { i64*, i64 }* %12, i32 0, i32 0, !dbg !1288
  store i64* %14, i64** %17, align 8, !dbg !1288
  %18 = getelementptr inbounds { i64*, i64 }, { i64*, i64 }* %12, i32 0, i32 1, !dbg !1288
  store i64 %16, i64* %18, align 8, !dbg !1288
  %19 = getelementptr inbounds %"std::fmt::Arguments", %"std::fmt::Arguments"* %0, i32 0, i32 2, !dbg !1288
  %20 = getelementptr inbounds { [0 x { i8*, i64* }]*, i64 }, { [0 x { i8*, i64* }]*, i64 }* %19, i32 0, i32 0, !dbg !1288
  store [0 x { i8*, i64* }]* %args.0, [0 x { i8*, i64* }]** %20, align 8, !dbg !1288
  %21 = getelementptr inbounds { [0 x { i8*, i64* }]*, i64 }, { [0 x { i8*, i64* }]*, i64 }* %19, i32 0, i32 1, !dbg !1288
  store i64 %args.1, i64* %21, align 8, !dbg !1288
  ret void, !dbg !1289

bb4:                                              ; preds = %bb3
; call core::panicking::panic
  call void @_ZN4core9panicking5panic17h560e3e4b7752857aE([0 x i8]* nonnull align 1 bitcast (<{ [12 x i8] }>* @alloc277 to [0 x i8]*), i64 12, %"std::panic::Location"* align 8 dereferenceable(24) bitcast (<{ i8*, [16 x i8] }>* @alloc279 to %"std::panic::Location"*)), !dbg !1290
  unreachable, !dbg !1290
}

; core::num::<impl u32>::to_le_bytes
; Function Attrs: inlinehint nounwind
define internal i32 @"_ZN4core3num21_$LT$impl$u20$u32$GT$11to_le_bytes17hd648ee7e7b4e0cefE"(i32 %self) unnamed_addr #0 !dbg !1291 {
start:
  %self.dbg.spill.i = alloca i32, align 4
  %0 = alloca i32, align 4
  %self.dbg.spill = alloca i32, align 4
  %1 = alloca [4 x i8], align 1
  store i32 %self, i32* %self.dbg.spill, align 4
  call void @llvm.dbg.declare(metadata i32* %self.dbg.spill, metadata !1299, metadata !DIExpression()), !dbg !1300
  store i32 %self, i32* %self.dbg.spill.i, align 4
  call void @llvm.dbg.declare(metadata i32* %self.dbg.spill.i, metadata !1301, metadata !DIExpression()), !dbg !1306
  br label %bb1, !dbg !1308

bb1:                                              ; preds = %start
; call core::num::<impl u32>::to_ne_bytes
  %2 = call i32 @"_ZN4core3num21_$LT$impl$u20$u32$GT$11to_ne_bytes17h448966d51bd96efbE"(i32 %self), !dbg !1308
  store i32 %2, i32* %0, align 4, !dbg !1308
  %3 = bitcast [4 x i8]* %1 to i8*, !dbg !1308
  %4 = bitcast i32* %0 to i8*, !dbg !1308
  call void @llvm.memcpy.p0i8.p0i8.i64(i8* align 1 %3, i8* align 4 %4, i64 4, i1 false), !dbg !1308
  br label %bb2, !dbg !1308

bb2:                                              ; preds = %bb1
  %5 = bitcast [4 x i8]* %1 to i32*, !dbg !1309
  %6 = load i32, i32* %5, align 1, !dbg !1309
  ret i32 %6, !dbg !1309
}

; core::num::<impl u32>::to_ne_bytes
; Function Attrs: inlinehint nounwind
define internal i32 @"_ZN4core3num21_$LT$impl$u20$u32$GT$11to_ne_bytes17h448966d51bd96efbE"(i32 %self) unnamed_addr #0 !dbg !1310 {
start:
  %self.dbg.spill = alloca i32, align 4
  %0 = alloca [4 x i8], align 1
  store i32 %self, i32* %self.dbg.spill, align 4
  call void @llvm.dbg.declare(metadata i32* %self.dbg.spill, metadata !1312, metadata !DIExpression()), !dbg !1313
  %1 = bitcast [4 x i8]* %0 to i32*, !dbg !1314
  store i32 %self, i32* %1, align 1, !dbg !1314
  br label %bb1, !dbg !1314

bb1:                                              ; preds = %start
  %2 = bitcast [4 x i8]* %0 to i32*, !dbg !1315
  %3 = load i32, i32* %2, align 1, !dbg !1315
  ret i32 %3, !dbg !1315
}

; core::num::<impl u64>::to_le_bytes
; Function Attrs: inlinehint nounwind
define internal i64 @"_ZN4core3num21_$LT$impl$u20$u64$GT$11to_le_bytes17h52ddddd57a59a6ebE"(i64 %self) unnamed_addr #0 !dbg !1316 {
start:
  %self.dbg.spill.i = alloca i64, align 8
  %0 = alloca i64, align 8
  %self.dbg.spill = alloca i64, align 8
  %1 = alloca [8 x i8], align 1
  store i64 %self, i64* %self.dbg.spill, align 8
  call void @llvm.dbg.declare(metadata i64* %self.dbg.spill, metadata !1324, metadata !DIExpression()), !dbg !1325
  store i64 %self, i64* %self.dbg.spill.i, align 8
  call void @llvm.dbg.declare(metadata i64* %self.dbg.spill.i, metadata !1326, metadata !DIExpression()), !dbg !1331
  br label %bb1, !dbg !1333

bb1:                                              ; preds = %start
; call core::num::<impl u64>::to_ne_bytes
  %2 = call i64 @"_ZN4core3num21_$LT$impl$u20$u64$GT$11to_ne_bytes17haba731ff2db47c45E"(i64 %self), !dbg !1333
  store i64 %2, i64* %0, align 8, !dbg !1333
  %3 = bitcast [8 x i8]* %1 to i8*, !dbg !1333
  %4 = bitcast i64* %0 to i8*, !dbg !1333
  call void @llvm.memcpy.p0i8.p0i8.i64(i8* align 1 %3, i8* align 8 %4, i64 8, i1 false), !dbg !1333
  br label %bb2, !dbg !1333

bb2:                                              ; preds = %bb1
  %5 = bitcast [8 x i8]* %1 to i64*, !dbg !1334
  %6 = load i64, i64* %5, align 1, !dbg !1334
  ret i64 %6, !dbg !1334
}

; core::num::<impl u64>::to_ne_bytes
; Function Attrs: inlinehint nounwind
define internal i64 @"_ZN4core3num21_$LT$impl$u20$u64$GT$11to_ne_bytes17haba731ff2db47c45E"(i64 %self) unnamed_addr #0 !dbg !1335 {
start:
  %self.dbg.spill = alloca i64, align 8
  %0 = alloca [8 x i8], align 1
  store i64 %self, i64* %self.dbg.spill, align 8
  call void @llvm.dbg.declare(metadata i64* %self.dbg.spill, metadata !1337, metadata !DIExpression()), !dbg !1338
  %1 = bitcast [8 x i8]* %0 to i64*, !dbg !1339
  store i64 %self, i64* %1, align 1, !dbg !1339
  br label %bb1, !dbg !1339

bb1:                                              ; preds = %start
  %2 = bitcast [8 x i8]* %0 to i64*, !dbg !1340
  %3 = load i64, i64* %2, align 1, !dbg !1340
  ret i64 %3, !dbg !1340
}

; core::num::nonzero::NonZeroUsize::new_unchecked
; Function Attrs: inlinehint nounwind
define internal i64 @_ZN4core3num7nonzero12NonZeroUsize13new_unchecked17h8715c51e8133f4abE(i64 %n) unnamed_addr #0 !dbg !1341 {
start:
  %n.dbg.spill = alloca i64, align 8
  %0 = alloca i64, align 8
  store i64 %n, i64* %n.dbg.spill, align 8
  call void @llvm.dbg.declare(metadata i64* %n.dbg.spill, metadata !1350, metadata !DIExpression()), !dbg !1351
  store i64 %n, i64* %0, align 8, !dbg !1352
  %1 = load i64, i64* %0, align 8, !dbg !1353, !range !1354
  ret i64 %1, !dbg !1353
}

; core::num::nonzero::NonZeroUsize::get
; Function Attrs: inlinehint nounwind
define internal i64 @_ZN4core3num7nonzero12NonZeroUsize3get17hb40a8d0bdb1e95a7E(i64 %self) unnamed_addr #0 !dbg !1355 {
start:
  %self.dbg.spill = alloca i64, align 8
  store i64 %self, i64* %self.dbg.spill, align 8
  call void @llvm.dbg.declare(metadata i64* %self.dbg.spill, metadata !1359, metadata !DIExpression()), !dbg !1360
  ret i64 %self, !dbg !1361
}

; core::ptr::drop_in_place<anchor_lang::accounts::program::Program<anchor_lang::system_program::System>>
; Function Attrs: nounwind
define void @"_ZN4core3ptr103drop_in_place$LT$anchor_lang..accounts..program..Program$LT$anchor_lang..system_program..System$GT$$GT$17h18dff264a7888497E"(%"anchor_lang::prelude::Program<anchor_lang::System>"* %_1) unnamed_addr #1 !dbg !1362 {
start:
  %_1.dbg.spill = alloca %"anchor_lang::prelude::Program<anchor_lang::System>"*, align 8
  store %"anchor_lang::prelude::Program<anchor_lang::System>"* %_1, %"anchor_lang::prelude::Program<anchor_lang::System>"** %_1.dbg.spill, align 8
  call void @llvm.dbg.declare(metadata %"anchor_lang::prelude::Program<anchor_lang::System>"** %_1.dbg.spill, metadata !1368, metadata !DIExpression()), !dbg !1370
  %0 = bitcast %"anchor_lang::prelude::Program<anchor_lang::System>"* %_1 to %"anchor_lang::prelude::AccountInfo"*, !dbg !1370
; call core::ptr::drop_in_place<solana_program::account_info::AccountInfo>
  call void @"_ZN4core3ptr62drop_in_place$LT$solana_program..account_info..AccountInfo$GT$17h45824e34f3b7d08cE"(%"anchor_lang::prelude::AccountInfo"* %0), !dbg !1370
  br label %bb1, !dbg !1370

bb1:                                              ; preds = %start
  ret void, !dbg !1370
}

; core::ptr::drop_in_place<<alloc::vec::into_iter::IntoIter<T,A> as core::ops::drop::Drop>::drop::DropGuard<u8,alloc::alloc::Global>>
; Function Attrs: nounwind
define void @"_ZN4core3ptr156drop_in_place$LT$$LT$alloc..vec..into_iter..IntoIter$LT$T$C$A$GT$$u20$as$u20$core..ops..drop..Drop$GT$..drop..DropGuard$LT$u8$C$alloc..alloc..Global$GT$$GT$17h7bf624b484feec65E"(i64** %_1) unnamed_addr #1 !dbg !1371 {
start:
  %_1.dbg.spill = alloca i64**, align 8
  store i64** %_1, i64*** %_1.dbg.spill, align 8
  call void @llvm.dbg.declare(metadata i64*** %_1.dbg.spill, metadata !1376, metadata !DIExpression()), !dbg !1379
; call <<alloc::vec::into_iter::IntoIter<T,A> as core::ops::drop::Drop>::drop::DropGuard<T,A> as core::ops::drop::Drop>::drop
  call void @"_ZN157_$LT$$LT$alloc..vec..into_iter..IntoIter$LT$T$C$A$GT$$u20$as$u20$core..ops..drop..Drop$GT$..drop..DropGuard$LT$T$C$A$GT$$u20$as$u20$core..ops..drop..Drop$GT$4drop17h5b56397452b969d4E"(i64** align 8 dereferenceable(8) %_1), !dbg !1379
  br label %bb1, !dbg !1379

bb1:                                              ; preds = %start
  ret void, !dbg !1379
}

; core::ptr::drop_in_place<anchor_lang::ctor::Ctor>
; Function Attrs: nounwind
define void @"_ZN4core3ptr44drop_in_place$LT$anchor_lang..ctor..Ctor$GT$17heed96a6280dafdb1E"(%"anchor_lang::__private::Ctor"* %_1) unnamed_addr #1 !dbg !1380 {
start:
  %_1.dbg.spill = alloca %"anchor_lang::__private::Ctor"*, align 8
  store %"anchor_lang::__private::Ctor"* %_1, %"anchor_lang::__private::Ctor"** %_1.dbg.spill, align 8
  call void @llvm.dbg.declare(metadata %"anchor_lang::__private::Ctor"** %_1.dbg.spill, metadata !1393, metadata !DIExpression()), !dbg !1396
  %0 = bitcast %"anchor_lang::__private::Ctor"* %_1 to %"anchor_lang::prelude::AccountInfo"*, !dbg !1396
; call core::ptr::drop_in_place<solana_program::account_info::AccountInfo>
  call void @"_ZN4core3ptr62drop_in_place$LT$solana_program..account_info..AccountInfo$GT$17h45824e34f3b7d08cE"(%"anchor_lang::prelude::AccountInfo"* %0), !dbg !1396
  br label %bb5, !dbg !1396

bb5:                                              ; preds = %start
  %1 = getelementptr inbounds %"anchor_lang::__private::Ctor", %"anchor_lang::__private::Ctor"* %_1, i32 0, i32 1, !dbg !1396
; call core::ptr::drop_in_place<solana_program::account_info::AccountInfo>
  call void @"_ZN4core3ptr62drop_in_place$LT$solana_program..account_info..AccountInfo$GT$17h45824e34f3b7d08cE"(%"anchor_lang::prelude::AccountInfo"* %1), !dbg !1396
  br label %bb4, !dbg !1396

bb4:                                              ; preds = %bb5
  %2 = getelementptr inbounds %"anchor_lang::__private::Ctor", %"anchor_lang::__private::Ctor"* %_1, i32 0, i32 2, !dbg !1396
; call core::ptr::drop_in_place<solana_program::account_info::AccountInfo>
  call void @"_ZN4core3ptr62drop_in_place$LT$solana_program..account_info..AccountInfo$GT$17h45824e34f3b7d08cE"(%"anchor_lang::prelude::AccountInfo"* %2), !dbg !1396
  br label %bb3, !dbg !1396

bb3:                                              ; preds = %bb4
  %3 = getelementptr inbounds %"anchor_lang::__private::Ctor", %"anchor_lang::__private::Ctor"* %_1, i32 0, i32 3, !dbg !1396
; call core::ptr::drop_in_place<solana_program::account_info::AccountInfo>
  call void @"_ZN4core3ptr62drop_in_place$LT$solana_program..account_info..AccountInfo$GT$17h45824e34f3b7d08cE"(%"anchor_lang::prelude::AccountInfo"* %3), !dbg !1396
  br label %bb2, !dbg !1396

bb2:                                              ; preds = %bb3
  %4 = getelementptr inbounds %"anchor_lang::__private::Ctor", %"anchor_lang::__private::Ctor"* %_1, i32 0, i32 4, !dbg !1396
; call core::ptr::drop_in_place<solana_program::account_info::AccountInfo>
  call void @"_ZN4core3ptr62drop_in_place$LT$solana_program..account_info..AccountInfo$GT$17h45824e34f3b7d08cE"(%"anchor_lang::prelude::AccountInfo"* %4), !dbg !1396
  br label %bb1, !dbg !1396

bb1:                                              ; preds = %bb2
  ret void, !dbg !1396
}

; core::ptr::drop_in_place<vending_machine::Vending>
; Function Attrs: nounwind
define void @"_ZN4core3ptr45drop_in_place$LT$vending_machine..Vending$GT$17hbfbb48d68ecb1b3aE"(%Vending* %_1) unnamed_addr #1 !dbg !1397 {
start:
  %_1.dbg.spill = alloca %Vending*, align 8
  store %Vending* %_1, %Vending** %_1.dbg.spill, align 8
  call void @llvm.dbg.declare(metadata %Vending** %_1.dbg.spill, metadata !1402, metadata !DIExpression()), !dbg !1403
  %0 = bitcast %Vending* %_1 to %"std::string::String"*, !dbg !1403
; call core::ptr::drop_in_place<alloc::string::String>
  call void @"_ZN4core3ptr42drop_in_place$LT$alloc..string..String$GT$17h0ec070b4dee5c9c3E"(%"std::string::String"* %0), !dbg !1403
  br label %bb3, !dbg !1403

bb3:                                              ; preds = %start
  %1 = getelementptr inbounds %Vending, %Vending* %_1, i32 0, i32 1, !dbg !1403
; call core::ptr::drop_in_place<alloc::string::String>
  call void @"_ZN4core3ptr42drop_in_place$LT$alloc..string..String$GT$17h0ec070b4dee5c9c3E"(%"std::string::String"* %1), !dbg !1403
  br label %bb2, !dbg !1403

bb2:                                              ; preds = %bb3
  %2 = getelementptr inbounds %Vending, %Vending* %_1, i32 0, i32 2, !dbg !1403
; call core::ptr::drop_in_place<alloc::string::String>
  call void @"_ZN4core3ptr42drop_in_place$LT$alloc..string..String$GT$17h0ec070b4dee5c9c3E"(%"std::string::String"* %2), !dbg !1403
  br label %bb1, !dbg !1403

bb1:                                              ; preds = %bb2
  ret void, !dbg !1403
}

; core::ptr::drop_in_place<vending_machine::AddDrink>
; Function Attrs: nounwind
define void @"_ZN4core3ptr46drop_in_place$LT$vending_machine..AddDrink$GT$17h8f663b6bad232c2eE"(%AddDrink* %_1) unnamed_addr #1 !dbg !1404 {
start:
  %_1.dbg.spill = alloca %AddDrink*, align 8
  store %AddDrink* %_1, %AddDrink** %_1.dbg.spill, align 8
  call void @llvm.dbg.declare(metadata %AddDrink** %_1.dbg.spill, metadata !1409, metadata !DIExpression()), !dbg !1410
  %0 = bitcast %AddDrink* %_1 to %"anchor_lang::prelude::Account<Vending>"*, !dbg !1410
; call core::ptr::drop_in_place<anchor_lang::accounts::account::Account<vending_machine::Vending>>
  call void @"_ZN4core3ptr92drop_in_place$LT$anchor_lang..accounts..account..Account$LT$vending_machine..Vending$GT$$GT$17h372dfff52915ba46E"(%"anchor_lang::prelude::Account<Vending>"* %0), !dbg !1410
  br label %bb1, !dbg !1410

bb1:                                              ; preds = %start
  ret void, !dbg !1410
}

; core::ptr::drop_in_place<anchor_lang::idl::IdlAccounts>
; Function Attrs: nounwind
define void @"_ZN4core3ptr50drop_in_place$LT$anchor_lang..idl..IdlAccounts$GT$17h311b41b41ce88bddE"(%"anchor_lang::idl::IdlAccounts"* %_1) unnamed_addr #1 !dbg !1411 {
start:
  %_1.dbg.spill = alloca %"anchor_lang::idl::IdlAccounts"*, align 8
  store %"anchor_lang::idl::IdlAccounts"* %_1, %"anchor_lang::idl::IdlAccounts"** %_1.dbg.spill, align 8
  call void @llvm.dbg.declare(metadata %"anchor_lang::idl::IdlAccounts"** %_1.dbg.spill, metadata !1420, metadata !DIExpression()), !dbg !1423
  %0 = bitcast %"anchor_lang::idl::IdlAccounts"* %_1 to i64**, !dbg !1423
; call core::ptr::drop_in_place<anchor_lang::accounts::program_account::ProgramAccount<anchor_lang::idl::IdlAccount>>
  call void @"_ZN4core3ptr111drop_in_place$LT$anchor_lang..accounts..program_account..ProgramAccount$LT$anchor_lang..idl..IdlAccount$GT$$GT$17h2e9301181e7a6b12E"(i64** %0), !dbg !1423
  br label %bb2, !dbg !1423

bb2:                                              ; preds = %start
  %1 = getelementptr inbounds %"anchor_lang::idl::IdlAccounts", %"anchor_lang::idl::IdlAccounts"* %_1, i32 0, i32 1, !dbg !1423
; call core::ptr::drop_in_place<solana_program::account_info::AccountInfo>
  call void @"_ZN4core3ptr62drop_in_place$LT$solana_program..account_info..AccountInfo$GT$17h45824e34f3b7d08cE"(%"anchor_lang::prelude::AccountInfo"* %1), !dbg !1423
  br label %bb1, !dbg !1423

bb1:                                              ; preds = %bb2
  ret void, !dbg !1423
}

; core::ptr::drop_in_place<anchor_lang::idl::IdlSetBuffer>
; Function Attrs: nounwind
define void @"_ZN4core3ptr51drop_in_place$LT$anchor_lang..idl..IdlSetBuffer$GT$17h1ed19f95dcebc294E"(%"anchor_lang::idl::IdlSetBuffer"* %_1) unnamed_addr #1 !dbg !1424 {
start:
  %_1.dbg.spill = alloca %"anchor_lang::idl::IdlSetBuffer"*, align 8
  store %"anchor_lang::idl::IdlSetBuffer"* %_1, %"anchor_lang::idl::IdlSetBuffer"** %_1.dbg.spill, align 8
  call void @llvm.dbg.declare(metadata %"anchor_lang::idl::IdlSetBuffer"** %_1.dbg.spill, metadata !1434, metadata !DIExpression()), !dbg !1437
  %0 = bitcast %"anchor_lang::idl::IdlSetBuffer"* %_1 to i64**, !dbg !1437
; call core::ptr::drop_in_place<anchor_lang::accounts::program_account::ProgramAccount<anchor_lang::idl::IdlAccount>>
  call void @"_ZN4core3ptr111drop_in_place$LT$anchor_lang..accounts..program_account..ProgramAccount$LT$anchor_lang..idl..IdlAccount$GT$$GT$17h2e9301181e7a6b12E"(i64** %0), !dbg !1437
  br label %bb3, !dbg !1437

bb3:                                              ; preds = %start
  %1 = getelementptr inbounds %"anchor_lang::idl::IdlSetBuffer", %"anchor_lang::idl::IdlSetBuffer"* %_1, i32 0, i32 1, !dbg !1437
; call core::ptr::drop_in_place<anchor_lang::accounts::program_account::ProgramAccount<anchor_lang::idl::IdlAccount>>
  call void @"_ZN4core3ptr111drop_in_place$LT$anchor_lang..accounts..program_account..ProgramAccount$LT$anchor_lang..idl..IdlAccount$GT$$GT$17h2e9301181e7a6b12E"(i64** %1), !dbg !1437
  br label %bb2, !dbg !1437

bb2:                                              ; preds = %bb3
  %2 = getelementptr inbounds %"anchor_lang::idl::IdlSetBuffer", %"anchor_lang::idl::IdlSetBuffer"* %_1, i32 0, i32 2, !dbg !1437
; call core::ptr::drop_in_place<solana_program::account_info::AccountInfo>
  call void @"_ZN4core3ptr62drop_in_place$LT$solana_program..account_info..AccountInfo$GT$17h45824e34f3b7d08cE"(%"anchor_lang::prelude::AccountInfo"* %2), !dbg !1437
  br label %bb1, !dbg !1437

bb1:                                              ; preds = %bb2
  ret void, !dbg !1437
}

; core::ptr::drop_in_place<vending_machine::VendingMachine>
; Function Attrs: nounwind
define void @"_ZN4core3ptr52drop_in_place$LT$vending_machine..VendingMachine$GT$17h744d0151c0312f9eE"(%VendingMachine* %_1) unnamed_addr #1 !dbg !1438 {
start:
  %_1.dbg.spill = alloca %VendingMachine*, align 8
  store %VendingMachine* %_1, %VendingMachine** %_1.dbg.spill, align 8
  call void @llvm.dbg.declare(metadata %VendingMachine** %_1.dbg.spill, metadata !1443, metadata !DIExpression()), !dbg !1444
  %0 = bitcast %VendingMachine* %_1 to %"anchor_lang::prelude::Account<Vending>"*, !dbg !1444
; call core::ptr::drop_in_place<anchor_lang::accounts::account::Account<vending_machine::Vending>>
  call void @"_ZN4core3ptr92drop_in_place$LT$anchor_lang..accounts..account..Account$LT$vending_machine..Vending$GT$$GT$17h372dfff52915ba46E"(%"anchor_lang::prelude::Account<Vending>"* %0), !dbg !1444
  br label %bb3, !dbg !1444

bb3:                                              ; preds = %start
  %1 = getelementptr inbounds %VendingMachine, %VendingMachine* %_1, i32 0, i32 1, !dbg !1444
; call core::ptr::drop_in_place<anchor_lang::accounts::signer::Signer>
  call void @"_ZN4core3ptr58drop_in_place$LT$anchor_lang..accounts..signer..Signer$GT$17he708b81d6b8de102E"(%"anchor_lang::prelude::Signer"* %1), !dbg !1444
  br label %bb2, !dbg !1444

bb2:                                              ; preds = %bb3
  %2 = getelementptr inbounds %VendingMachine, %VendingMachine* %_1, i32 0, i32 2, !dbg !1444
; call core::ptr::drop_in_place<anchor_lang::accounts::program::Program<anchor_lang::system_program::System>>
  call void @"_ZN4core3ptr103drop_in_place$LT$anchor_lang..accounts..program..Program$LT$anchor_lang..system_program..System$GT$$GT$17h18dff264a7888497E"(%"anchor_lang::prelude::Program<anchor_lang::System>"* %2), !dbg !1444
  br label %bb1, !dbg !1444

bb1:                                              ; preds = %bb2
  ret void, !dbg !1444
}

; core::ptr::drop_in_place<anchor_lang::idl::IdlCreateBuffer>
; Function Attrs: nounwind
define void @"_ZN4core3ptr54drop_in_place$LT$anchor_lang..idl..IdlCreateBuffer$GT$17h847144dd4844c4b4E"(%"anchor_lang::idl::IdlCreateBuffer"* %_1) unnamed_addr #1 !dbg !1445 {
start:
  %_1.dbg.spill = alloca %"anchor_lang::idl::IdlCreateBuffer"*, align 8
  store %"anchor_lang::idl::IdlCreateBuffer"* %_1, %"anchor_lang::idl::IdlCreateBuffer"** %_1.dbg.spill, align 8
  call void @llvm.dbg.declare(metadata %"anchor_lang::idl::IdlCreateBuffer"** %_1.dbg.spill, metadata !1454, metadata !DIExpression()), !dbg !1457
  %0 = bitcast %"anchor_lang::idl::IdlCreateBuffer"* %_1 to i64**, !dbg !1457
; call core::ptr::drop_in_place<anchor_lang::accounts::program_account::ProgramAccount<anchor_lang::idl::IdlAccount>>
  call void @"_ZN4core3ptr111drop_in_place$LT$anchor_lang..accounts..program_account..ProgramAccount$LT$anchor_lang..idl..IdlAccount$GT$$GT$17h2e9301181e7a6b12E"(i64** %0), !dbg !1457
  br label %bb2, !dbg !1457

bb2:                                              ; preds = %start
  %1 = getelementptr inbounds %"anchor_lang::idl::IdlCreateBuffer", %"anchor_lang::idl::IdlCreateBuffer"* %_1, i32 0, i32 1, !dbg !1457
; call core::ptr::drop_in_place<solana_program::account_info::AccountInfo>
  call void @"_ZN4core3ptr62drop_in_place$LT$solana_program..account_info..AccountInfo$GT$17h45824e34f3b7d08cE"(%"anchor_lang::prelude::AccountInfo"* %1), !dbg !1457
  br label %bb1, !dbg !1457

bb1:                                              ; preds = %bb2
  ret void, !dbg !1457
}

; core::ptr::drop_in_place<anchor_lang::accounts::signer::Signer>
; Function Attrs: nounwind
define void @"_ZN4core3ptr58drop_in_place$LT$anchor_lang..accounts..signer..Signer$GT$17he708b81d6b8de102E"(%"anchor_lang::prelude::Signer"* %_1) unnamed_addr #1 !dbg !1458 {
start:
  %_1.dbg.spill = alloca %"anchor_lang::prelude::Signer"*, align 8
  store %"anchor_lang::prelude::Signer"* %_1, %"anchor_lang::prelude::Signer"** %_1.dbg.spill, align 8
  call void @llvm.dbg.declare(metadata %"anchor_lang::prelude::Signer"** %_1.dbg.spill, metadata !1463, metadata !DIExpression()), !dbg !1466
  %0 = bitcast %"anchor_lang::prelude::Signer"* %_1 to %"anchor_lang::prelude::AccountInfo"*, !dbg !1466
; call core::ptr::drop_in_place<solana_program::account_info::AccountInfo>
  call void @"_ZN4core3ptr62drop_in_place$LT$solana_program..account_info..AccountInfo$GT$17h45824e34f3b7d08cE"(%"anchor_lang::prelude::AccountInfo"* %0), !dbg !1466
  br label %bb1, !dbg !1466

bb1:                                              ; preds = %start
  ret void, !dbg !1466
}

; core::ptr::drop_in_place<alloc::vec::into_iter::IntoIter<u8>>
; Function Attrs: nounwind
define void @"_ZN4core3ptr62drop_in_place$LT$alloc..vec..into_iter..IntoIter$LT$u8$GT$$GT$17h5fec66ec51c9e64eE"(%"std::vec::IntoIter<u8>"* %_1) unnamed_addr #1 !dbg !1467 {
start:
  %_1.dbg.spill = alloca %"std::vec::IntoIter<u8>"*, align 8
  store %"std::vec::IntoIter<u8>"* %_1, %"std::vec::IntoIter<u8>"** %_1.dbg.spill, align 8
  call void @llvm.dbg.declare(metadata %"std::vec::IntoIter<u8>"** %_1.dbg.spill, metadata !1472, metadata !DIExpression()), !dbg !1475
; call <alloc::vec::into_iter::IntoIter<T,A> as core::ops::drop::Drop>::drop
  call void @"_ZN86_$LT$alloc..vec..into_iter..IntoIter$LT$T$C$A$GT$$u20$as$u20$core..ops..drop..Drop$GT$4drop17he7bf65a34e2f2dc6E"(%"std::vec::IntoIter<u8>"* align 8 dereferenceable(32) %_1), !dbg !1475
  br label %bb1, !dbg !1475

bb1:                                              ; preds = %start
  ret void, !dbg !1475
}

; core::ptr::drop_in_place<[solana_program::account_info::AccountInfo; 2]>
; Function Attrs: nounwind
define void @"_ZN4core3ptr83drop_in_place$LT$$u5b$solana_program..account_info..AccountInfo$u3b$$u20$2$u5d$$GT$17h420e2e9a3e4921c7E"([2 x %"anchor_lang::prelude::AccountInfo"]* %_1) unnamed_addr #1 !dbg !1476 {
start:
  %_1.dbg.spill = alloca [2 x %"anchor_lang::prelude::AccountInfo"]*, align 8
  %_9 = alloca %"anchor_lang::prelude::AccountInfo"*, align 8
  %_4 = alloca i64, align 8
  store [2 x %"anchor_lang::prelude::AccountInfo"]* %_1, [2 x %"anchor_lang::prelude::AccountInfo"]** %_1.dbg.spill, align 8
  call void @llvm.dbg.declare(metadata [2 x %"anchor_lang::prelude::AccountInfo"]** %_1.dbg.spill, metadata !1484, metadata !DIExpression()), !dbg !1487
  br i1 false, label %bb4, label %bb7, !dbg !1487

bb4:                                              ; preds = %start
  store i64 0, i64* %_4, align 8, !dbg !1487
  br label %bb3, !dbg !1487

bb7:                                              ; preds = %start
  %0 = bitcast [2 x %"anchor_lang::prelude::AccountInfo"]* %_1 to %"anchor_lang::prelude::AccountInfo"*, !dbg !1487
  store %"anchor_lang::prelude::AccountInfo"* %0, %"anchor_lang::prelude::AccountInfo"** %_9, align 8, !dbg !1487
  %1 = load %"anchor_lang::prelude::AccountInfo"*, %"anchor_lang::prelude::AccountInfo"** %_9, align 8, !dbg !1487
  %_10 = getelementptr inbounds %"anchor_lang::prelude::AccountInfo", %"anchor_lang::prelude::AccountInfo"* %1, i64 2, !dbg !1487
  br label %bb6, !dbg !1487

bb6:                                              ; preds = %bb5, %bb7
  %2 = load %"anchor_lang::prelude::AccountInfo"*, %"anchor_lang::prelude::AccountInfo"** %_9, align 8, !dbg !1487
  %_14 = icmp eq %"anchor_lang::prelude::AccountInfo"* %2, %_10, !dbg !1487
  br i1 %_14, label %bb1, label %bb5, !dbg !1487

bb5:                                              ; preds = %bb6
  %_13 = load %"anchor_lang::prelude::AccountInfo"*, %"anchor_lang::prelude::AccountInfo"** %_9, align 8, !dbg !1487
  %3 = load %"anchor_lang::prelude::AccountInfo"*, %"anchor_lang::prelude::AccountInfo"** %_9, align 8, !dbg !1487
  %4 = getelementptr inbounds %"anchor_lang::prelude::AccountInfo", %"anchor_lang::prelude::AccountInfo"* %3, i64 1, !dbg !1487
  store %"anchor_lang::prelude::AccountInfo"* %4, %"anchor_lang::prelude::AccountInfo"** %_9, align 8, !dbg !1487
; call core::ptr::drop_in_place<solana_program::account_info::AccountInfo>
  call void @"_ZN4core3ptr62drop_in_place$LT$solana_program..account_info..AccountInfo$GT$17h45824e34f3b7d08cE"(%"anchor_lang::prelude::AccountInfo"* %_13), !dbg !1487
  br label %bb6, !dbg !1487

bb1:                                              ; preds = %bb3, %bb6
  ret void, !dbg !1487

bb3:                                              ; preds = %bb2, %bb4
  %5 = load i64, i64* %_4, align 8, !dbg !1487
  %_8 = icmp eq i64 %5, 2, !dbg !1487
  br i1 %_8, label %bb1, label %bb2, !dbg !1487

bb2:                                              ; preds = %bb3
  %6 = load i64, i64* %_4, align 8, !dbg !1487
  %_7 = getelementptr inbounds [2 x %"anchor_lang::prelude::AccountInfo"], [2 x %"anchor_lang::prelude::AccountInfo"]* %_1, i64 0, i64 %6, !dbg !1487
  %7 = load i64, i64* %_4, align 8, !dbg !1487
  %8 = add i64 %7, 1, !dbg !1487
  store i64 %8, i64* %_4, align 8, !dbg !1487
; call core::ptr::drop_in_place<solana_program::account_info::AccountInfo>
  call void @"_ZN4core3ptr62drop_in_place$LT$solana_program..account_info..AccountInfo$GT$17h45824e34f3b7d08cE"(%"anchor_lang::prelude::AccountInfo"* %_7), !dbg !1487
  br label %bb3, !dbg !1487
}

; core::ptr::drop_in_place<[solana_program::account_info::AccountInfo; 3]>
; Function Attrs: nounwind
define void @"_ZN4core3ptr83drop_in_place$LT$$u5b$solana_program..account_info..AccountInfo$u3b$$u20$3$u5d$$GT$17h0d5efd31391d5393E"([3 x %"anchor_lang::prelude::AccountInfo"]* %_1) unnamed_addr #1 !dbg !1488 {
start:
  %_1.dbg.spill = alloca [3 x %"anchor_lang::prelude::AccountInfo"]*, align 8
  %_9 = alloca %"anchor_lang::prelude::AccountInfo"*, align 8
  %_4 = alloca i64, align 8
  store [3 x %"anchor_lang::prelude::AccountInfo"]* %_1, [3 x %"anchor_lang::prelude::AccountInfo"]** %_1.dbg.spill, align 8
  call void @llvm.dbg.declare(metadata [3 x %"anchor_lang::prelude::AccountInfo"]** %_1.dbg.spill, metadata !1494, metadata !DIExpression()), !dbg !1497
  br i1 false, label %bb4, label %bb7, !dbg !1497

bb4:                                              ; preds = %start
  store i64 0, i64* %_4, align 8, !dbg !1497
  br label %bb3, !dbg !1497

bb7:                                              ; preds = %start
  %0 = bitcast [3 x %"anchor_lang::prelude::AccountInfo"]* %_1 to %"anchor_lang::prelude::AccountInfo"*, !dbg !1497
  store %"anchor_lang::prelude::AccountInfo"* %0, %"anchor_lang::prelude::AccountInfo"** %_9, align 8, !dbg !1497
  %1 = load %"anchor_lang::prelude::AccountInfo"*, %"anchor_lang::prelude::AccountInfo"** %_9, align 8, !dbg !1497
  %_10 = getelementptr inbounds %"anchor_lang::prelude::AccountInfo", %"anchor_lang::prelude::AccountInfo"* %1, i64 3, !dbg !1497
  br label %bb6, !dbg !1497

bb6:                                              ; preds = %bb5, %bb7
  %2 = load %"anchor_lang::prelude::AccountInfo"*, %"anchor_lang::prelude::AccountInfo"** %_9, align 8, !dbg !1497
  %_14 = icmp eq %"anchor_lang::prelude::AccountInfo"* %2, %_10, !dbg !1497
  br i1 %_14, label %bb1, label %bb5, !dbg !1497

bb5:                                              ; preds = %bb6
  %_13 = load %"anchor_lang::prelude::AccountInfo"*, %"anchor_lang::prelude::AccountInfo"** %_9, align 8, !dbg !1497
  %3 = load %"anchor_lang::prelude::AccountInfo"*, %"anchor_lang::prelude::AccountInfo"** %_9, align 8, !dbg !1497
  %4 = getelementptr inbounds %"anchor_lang::prelude::AccountInfo", %"anchor_lang::prelude::AccountInfo"* %3, i64 1, !dbg !1497
  store %"anchor_lang::prelude::AccountInfo"* %4, %"anchor_lang::prelude::AccountInfo"** %_9, align 8, !dbg !1497
; call core::ptr::drop_in_place<solana_program::account_info::AccountInfo>
  call void @"_ZN4core3ptr62drop_in_place$LT$solana_program..account_info..AccountInfo$GT$17h45824e34f3b7d08cE"(%"anchor_lang::prelude::AccountInfo"* %_13), !dbg !1497
  br label %bb6, !dbg !1497

bb1:                                              ; preds = %bb3, %bb6
  ret void, !dbg !1497

bb3:                                              ; preds = %bb2, %bb4
  %5 = load i64, i64* %_4, align 8, !dbg !1497
  %_8 = icmp eq i64 %5, 3, !dbg !1497
  br i1 %_8, label %bb1, label %bb2, !dbg !1497

bb2:                                              ; preds = %bb3
  %6 = load i64, i64* %_4, align 8, !dbg !1497
  %_7 = getelementptr inbounds [3 x %"anchor_lang::prelude::AccountInfo"], [3 x %"anchor_lang::prelude::AccountInfo"]* %_1, i64 0, i64 %6, !dbg !1497
  %7 = load i64, i64* %_4, align 8, !dbg !1497
  %8 = add i64 %7, 1, !dbg !1497
  store i64 %8, i64* %_4, align 8, !dbg !1497
; call core::ptr::drop_in_place<solana_program::account_info::AccountInfo>
  call void @"_ZN4core3ptr62drop_in_place$LT$solana_program..account_info..AccountInfo$GT$17h45824e34f3b7d08cE"(%"anchor_lang::prelude::AccountInfo"* %_7), !dbg !1497
  br label %bb3, !dbg !1497
}

; core::ptr::drop_in_place<[solana_program::account_info::AccountInfo; 4]>
; Function Attrs: nounwind
define void @"_ZN4core3ptr83drop_in_place$LT$$u5b$solana_program..account_info..AccountInfo$u3b$$u20$4$u5d$$GT$17hf57512e98db9889cE"([4 x %"anchor_lang::prelude::AccountInfo"]* %_1) unnamed_addr #1 !dbg !1498 {
start:
  %_1.dbg.spill = alloca [4 x %"anchor_lang::prelude::AccountInfo"]*, align 8
  %_9 = alloca %"anchor_lang::prelude::AccountInfo"*, align 8
  %_4 = alloca i64, align 8
  store [4 x %"anchor_lang::prelude::AccountInfo"]* %_1, [4 x %"anchor_lang::prelude::AccountInfo"]** %_1.dbg.spill, align 8
  call void @llvm.dbg.declare(metadata [4 x %"anchor_lang::prelude::AccountInfo"]** %_1.dbg.spill, metadata !1504, metadata !DIExpression()), !dbg !1507
  br i1 false, label %bb4, label %bb7, !dbg !1507

bb4:                                              ; preds = %start
  store i64 0, i64* %_4, align 8, !dbg !1507
  br label %bb3, !dbg !1507

bb7:                                              ; preds = %start
  %0 = bitcast [4 x %"anchor_lang::prelude::AccountInfo"]* %_1 to %"anchor_lang::prelude::AccountInfo"*, !dbg !1507
  store %"anchor_lang::prelude::AccountInfo"* %0, %"anchor_lang::prelude::AccountInfo"** %_9, align 8, !dbg !1507
  %1 = load %"anchor_lang::prelude::AccountInfo"*, %"anchor_lang::prelude::AccountInfo"** %_9, align 8, !dbg !1507
  %_10 = getelementptr inbounds %"anchor_lang::prelude::AccountInfo", %"anchor_lang::prelude::AccountInfo"* %1, i64 4, !dbg !1507
  br label %bb6, !dbg !1507

bb6:                                              ; preds = %bb5, %bb7
  %2 = load %"anchor_lang::prelude::AccountInfo"*, %"anchor_lang::prelude::AccountInfo"** %_9, align 8, !dbg !1507
  %_14 = icmp eq %"anchor_lang::prelude::AccountInfo"* %2, %_10, !dbg !1507
  br i1 %_14, label %bb1, label %bb5, !dbg !1507

bb5:                                              ; preds = %bb6
  %_13 = load %"anchor_lang::prelude::AccountInfo"*, %"anchor_lang::prelude::AccountInfo"** %_9, align 8, !dbg !1507
  %3 = load %"anchor_lang::prelude::AccountInfo"*, %"anchor_lang::prelude::AccountInfo"** %_9, align 8, !dbg !1507
  %4 = getelementptr inbounds %"anchor_lang::prelude::AccountInfo", %"anchor_lang::prelude::AccountInfo"* %3, i64 1, !dbg !1507
  store %"anchor_lang::prelude::AccountInfo"* %4, %"anchor_lang::prelude::AccountInfo"** %_9, align 8, !dbg !1507
; call core::ptr::drop_in_place<solana_program::account_info::AccountInfo>
  call void @"_ZN4core3ptr62drop_in_place$LT$solana_program..account_info..AccountInfo$GT$17h45824e34f3b7d08cE"(%"anchor_lang::prelude::AccountInfo"* %_13), !dbg !1507
  br label %bb6, !dbg !1507

bb1:                                              ; preds = %bb3, %bb6
  ret void, !dbg !1507

bb3:                                              ; preds = %bb2, %bb4
  %5 = load i64, i64* %_4, align 8, !dbg !1507
  %_8 = icmp eq i64 %5, 4, !dbg !1507
  br i1 %_8, label %bb1, label %bb2, !dbg !1507

bb2:                                              ; preds = %bb3
  %6 = load i64, i64* %_4, align 8, !dbg !1507
  %_7 = getelementptr inbounds [4 x %"anchor_lang::prelude::AccountInfo"], [4 x %"anchor_lang::prelude::AccountInfo"]* %_1, i64 0, i64 %6, !dbg !1507
  %7 = load i64, i64* %_4, align 8, !dbg !1507
  %8 = add i64 %7, 1, !dbg !1507
  store i64 %8, i64* %_4, align 8, !dbg !1507
; call core::ptr::drop_in_place<solana_program::account_info::AccountInfo>
  call void @"_ZN4core3ptr62drop_in_place$LT$solana_program..account_info..AccountInfo$GT$17h45824e34f3b7d08cE"(%"anchor_lang::prelude::AccountInfo"* %_7), !dbg !1507
  br label %bb3, !dbg !1507
}

; core::ptr::drop_in_place<alloc::vec::Vec<solana_program::account_info::AccountInfo>>
; Function Attrs: nounwind
define void @"_ZN4core3ptr85drop_in_place$LT$alloc..vec..Vec$LT$solana_program..account_info..AccountInfo$GT$$GT$17h2653a462952b9e0bE"(%"std::vec::Vec<anchor_lang::prelude::AccountInfo>"* %_1) unnamed_addr #1 !dbg !1508 {
start:
  %_1.dbg.spill = alloca %"std::vec::Vec<anchor_lang::prelude::AccountInfo>"*, align 8
  store %"std::vec::Vec<anchor_lang::prelude::AccountInfo>"* %_1, %"std::vec::Vec<anchor_lang::prelude::AccountInfo>"** %_1.dbg.spill, align 8
  call void @llvm.dbg.declare(metadata %"std::vec::Vec<anchor_lang::prelude::AccountInfo>"** %_1.dbg.spill, metadata !1530, metadata !DIExpression()), !dbg !1533
; call <alloc::vec::Vec<T,A> as core::ops::drop::Drop>::drop
  call void @"_ZN70_$LT$alloc..vec..Vec$LT$T$C$A$GT$$u20$as$u20$core..ops..drop..Drop$GT$4drop17hb017def34499b4e7E"(%"std::vec::Vec<anchor_lang::prelude::AccountInfo>"* align 8 dereferenceable(24) %_1), !dbg !1533
  br label %bb2, !dbg !1533

bb2:                                              ; preds = %start
  %0 = bitcast %"std::vec::Vec<anchor_lang::prelude::AccountInfo>"* %_1 to { i64*, i64 }*, !dbg !1533
; call core::ptr::drop_in_place<alloc::raw_vec::RawVec<solana_program::account_info::AccountInfo>>
  call void @"_ZN4core3ptr92drop_in_place$LT$alloc..raw_vec..RawVec$LT$solana_program..account_info..AccountInfo$GT$$GT$17h7b9cf2d7e9f23437E"({ i64*, i64 }* %0), !dbg !1533
  br label %bb1, !dbg !1533

bb1:                                              ; preds = %bb2
  ret void, !dbg !1533
}

; core::ptr::drop_in_place<anchor_lang::accounts::account::Account<vending_machine::Vending>>
; Function Attrs: nounwind
define void @"_ZN4core3ptr92drop_in_place$LT$anchor_lang..accounts..account..Account$LT$vending_machine..Vending$GT$$GT$17h372dfff52915ba46E"(%"anchor_lang::prelude::Account<Vending>"* %_1) unnamed_addr #1 !dbg !1534 {
start:
  %_1.dbg.spill = alloca %"anchor_lang::prelude::Account<Vending>"*, align 8
  store %"anchor_lang::prelude::Account<Vending>"* %_1, %"anchor_lang::prelude::Account<Vending>"** %_1.dbg.spill, align 8
  call void @llvm.dbg.declare(metadata %"anchor_lang::prelude::Account<Vending>"** %_1.dbg.spill, metadata !1539, metadata !DIExpression()), !dbg !1541
  %0 = bitcast %"anchor_lang::prelude::Account<Vending>"* %_1 to %Vending*, !dbg !1541
; call core::ptr::drop_in_place<vending_machine::Vending>
  call void @"_ZN4core3ptr45drop_in_place$LT$vending_machine..Vending$GT$17hbfbb48d68ecb1b3aE"(%Vending* %0), !dbg !1541
  br label %bb2, !dbg !1541

bb2:                                              ; preds = %start
  %1 = getelementptr inbounds %"anchor_lang::prelude::Account<Vending>", %"anchor_lang::prelude::Account<Vending>"* %_1, i32 0, i32 1, !dbg !1541
; call core::ptr::drop_in_place<solana_program::account_info::AccountInfo>
  call void @"_ZN4core3ptr62drop_in_place$LT$solana_program..account_info..AccountInfo$GT$17h45824e34f3b7d08cE"(%"anchor_lang::prelude::AccountInfo"* %1), !dbg !1541
  br label %bb1, !dbg !1541

bb1:                                              ; preds = %bb2
  ret void, !dbg !1541
}

; core::ptr::const_ptr::<impl *const T>::offset_from
; Function Attrs: inlinehint nounwind
define i64 @"_ZN4core3ptr9const_ptr33_$LT$impl$u20$$BP$const$u20$T$GT$11offset_from17h19899140dc86c7d4E"(i8* %self, i8* %origin) unnamed_addr #0 !dbg !1542 {
start:
  %0 = alloca i64, align 8
  %pointee_size.dbg.spill = alloca i64, align 8
  %origin.dbg.spill = alloca i8*, align 8
  %self.dbg.spill = alloca i8*, align 8
  %_5 = alloca i8, align 1
  store i8* %self, i8** %self.dbg.spill, align 8
  call void @llvm.dbg.declare(metadata i8** %self.dbg.spill, metadata !1549, metadata !DIExpression()), !dbg !1553
  store i8* %origin, i8** %origin.dbg.spill, align 8
  call void @llvm.dbg.declare(metadata i8** %origin.dbg.spill, metadata !1550, metadata !DIExpression()), !dbg !1554
  store i64 1, i64* %pointee_size.dbg.spill, align 8, !dbg !1555
  call void @llvm.dbg.declare(metadata i64* %pointee_size.dbg.spill, metadata !1551, metadata !DIExpression()), !dbg !1556
  br label %bb1, !dbg !1555

bb1:                                              ; preds = %start
  %_6 = icmp ult i64 0, 1, !dbg !1557
  br i1 %_6, label %bb3, label %bb2, !dbg !1557

bb2:                                              ; preds = %bb1
  store i8 0, i8* %_5, align 1, !dbg !1557
  br label %bb4, !dbg !1557

bb3:                                              ; preds = %bb1
  %_8 = icmp ule i64 1, 9223372036854775807, !dbg !1558
  %1 = zext i1 %_8 to i8, !dbg !1557
  store i8 %1, i8* %_5, align 1, !dbg !1557
  br label %bb4, !dbg !1557

bb4:                                              ; preds = %bb2, %bb3
  %2 = load i8, i8* %_5, align 1, !dbg !1559, !range !637
  %3 = trunc i8 %2 to i1, !dbg !1559
  %_4 = xor i1 %3, true, !dbg !1559
  br i1 %_4, label %bb5, label %bb6, !dbg !1559

bb6:                                              ; preds = %bb4
  %4 = ptrtoint i8* %self to i64, !dbg !1560
  %5 = ptrtoint i8* %origin to i64, !dbg !1560
  %6 = sub i64 %4, %5, !dbg !1560
  %7 = sdiv exact i64 %6, 1, !dbg !1560
  store i64 %7, i64* %0, align 8, !dbg !1560
  %8 = load i64, i64* %0, align 8, !dbg !1560
  br label %bb7, !dbg !1560

bb5:                                              ; preds = %bb4
; call core::panicking::panic
  call void @_ZN4core9panicking5panic17h560e3e4b7752857aE([0 x i8]* nonnull align 1 bitcast (<{ [73 x i8] }>* @alloc280 to [0 x i8]*), i64 73, %"std::panic::Location"* align 8 dereferenceable(24) bitcast (<{ i8*, [16 x i8] }>* @alloc282 to %"std::panic::Location"*)), !dbg !1559
  unreachable, !dbg !1559

bb7:                                              ; preds = %bb6
  ret i64 %8, !dbg !1561
}

; core::ptr::const_ptr::<impl *const T>::cast
; Function Attrs: inlinehint nounwind
define [8 x i8]* @"_ZN4core3ptr9const_ptr33_$LT$impl$u20$$BP$const$u20$T$GT$4cast17h61237ab391e123d6E"(i8* %self) unnamed_addr #0 !dbg !1562 {
start:
  %self.dbg.spill = alloca i8*, align 8
  store i8* %self, i8** %self.dbg.spill, align 8
  call void @llvm.dbg.declare(metadata i8** %self.dbg.spill, metadata !1567, metadata !DIExpression()), !dbg !1570
  %0 = bitcast i8* %self to [8 x i8]*, !dbg !1571
  ret [8 x i8]* %0, !dbg !1572
}

; core::str::<impl str>::len
; Function Attrs: inlinehint nounwind
define internal i64 @"_ZN4core3str21_$LT$impl$u20$str$GT$3len17h44c4f77752a78daaE"([0 x i8]* nonnull align 1 %self.0, i64 %self.1) unnamed_addr #0 !dbg !1573 {
start:
  %0 = alloca { [0 x i8]*, i64 }, align 8
  %self.dbg.spill.i = alloca { [0 x i8]*, i64 }, align 8
  %self.dbg.spill = alloca { [0 x i8]*, i64 }, align 8
  %1 = getelementptr inbounds { [0 x i8]*, i64 }, { [0 x i8]*, i64 }* %self.dbg.spill, i32 0, i32 0
  store [0 x i8]* %self.0, [0 x i8]** %1, align 8
  %2 = getelementptr inbounds { [0 x i8]*, i64 }, { [0 x i8]*, i64 }* %self.dbg.spill, i32 0, i32 1
  store i64 %self.1, i64* %2, align 8
  call void @llvm.dbg.declare(metadata { [0 x i8]*, i64 }* %self.dbg.spill, metadata !1580, metadata !DIExpression()), !dbg !1581
  %3 = getelementptr inbounds { [0 x i8]*, i64 }, { [0 x i8]*, i64 }* %self.dbg.spill.i, i32 0, i32 0
  store [0 x i8]* %self.0, [0 x i8]** %3, align 8
  %4 = getelementptr inbounds { [0 x i8]*, i64 }, { [0 x i8]*, i64 }* %self.dbg.spill.i, i32 0, i32 1
  store i64 %self.1, i64* %4, align 8
  call void @llvm.dbg.declare(metadata { [0 x i8]*, i64 }* %self.dbg.spill.i, metadata !1582, metadata !DIExpression()), !dbg !1587
  %5 = getelementptr inbounds { [0 x i8]*, i64 }, { [0 x i8]*, i64 }* %0, i32 0, i32 0, !dbg !1589
  store [0 x i8]* %self.0, [0 x i8]** %5, align 8, !dbg !1589
  %6 = getelementptr inbounds { [0 x i8]*, i64 }, { [0 x i8]*, i64 }* %0, i32 0, i32 1, !dbg !1589
  store i64 %self.1, i64* %6, align 8, !dbg !1589
  %7 = getelementptr inbounds { [0 x i8]*, i64 }, { [0 x i8]*, i64 }* %0, i32 0, i32 0, !dbg !1589
  %8 = load [0 x i8]*, [0 x i8]** %7, align 8, !dbg !1589, !nonnull !4
  %9 = getelementptr inbounds { [0 x i8]*, i64 }, { [0 x i8]*, i64 }* %0, i32 0, i32 1, !dbg !1589
  %10 = load i64, i64* %9, align 8, !dbg !1589
  %11 = insertvalue { [0 x i8]*, i64 } undef, [0 x i8]* %8, 0, !dbg !1590
  %12 = insertvalue { [0 x i8]*, i64 } %11, i64 %10, 1, !dbg !1590
  %_3.0 = extractvalue { [0 x i8]*, i64 } %12, 0, !dbg !1591
  %_3.1 = extractvalue { [0 x i8]*, i64 } %12, 1, !dbg !1591
  br label %bb1, !dbg !1591

bb1:                                              ; preds = %start
  ret i64 %_3.1, !dbg !1592
}

; core::str::<impl str>::as_ptr
; Function Attrs: inlinehint nounwind
define internal i8* @"_ZN4core3str21_$LT$impl$u20$str$GT$6as_ptr17h2d75a89d11bfd5a2E"([0 x i8]* nonnull align 1 %self.0, i64 %self.1) unnamed_addr #0 !dbg !1593 {
start:
  %self.dbg.spill = alloca { [0 x i8]*, i64 }, align 8
  %0 = getelementptr inbounds { [0 x i8]*, i64 }, { [0 x i8]*, i64 }* %self.dbg.spill, i32 0, i32 0
  store [0 x i8]* %self.0, [0 x i8]** %0, align 8
  %1 = getelementptr inbounds { [0 x i8]*, i64 }, { [0 x i8]*, i64 }* %self.dbg.spill, i32 0, i32 1
  store i64 %self.1, i64* %1, align 8
  call void @llvm.dbg.declare(metadata { [0 x i8]*, i64 }* %self.dbg.spill, metadata !1597, metadata !DIExpression()), !dbg !1598
  %2 = bitcast [0 x i8]* %self.0 to i8*, !dbg !1599
  ret i8* %2, !dbg !1600
}

; core::str::converts::from_utf8_unchecked
; Function Attrs: inlinehint nounwind
define internal { [0 x i8]*, i64 } @_ZN4core3str8converts19from_utf8_unchecked17h3980c51e8edc1797E([0 x i8]* nonnull align 1 %v.0, i64 %v.1) unnamed_addr #0 !dbg !1601 {
start:
  %0 = alloca { [0 x i8]*, i64 }, align 8
  %v.dbg.spill = alloca { [0 x i8]*, i64 }, align 8
  %1 = getelementptr inbounds { [0 x i8]*, i64 }, { [0 x i8]*, i64 }* %v.dbg.spill, i32 0, i32 0
  store [0 x i8]* %v.0, [0 x i8]** %1, align 8
  %2 = getelementptr inbounds { [0 x i8]*, i64 }, { [0 x i8]*, i64 }* %v.dbg.spill, i32 0, i32 1
  store i64 %v.1, i64* %2, align 8
  call void @llvm.dbg.declare(metadata { [0 x i8]*, i64 }* %v.dbg.spill, metadata !1607, metadata !DIExpression()), !dbg !1608
  %3 = getelementptr inbounds { [0 x i8]*, i64 }, { [0 x i8]*, i64 }* %0, i32 0, i32 0, !dbg !1609
  store [0 x i8]* %v.0, [0 x i8]** %3, align 8, !dbg !1609
  %4 = getelementptr inbounds { [0 x i8]*, i64 }, { [0 x i8]*, i64 }* %0, i32 0, i32 1, !dbg !1609
  store i64 %v.1, i64* %4, align 8, !dbg !1609
  %5 = getelementptr inbounds { [0 x i8]*, i64 }, { [0 x i8]*, i64 }* %0, i32 0, i32 0, !dbg !1609
  %6 = load [0 x i8]*, [0 x i8]** %5, align 8, !dbg !1609, !nonnull !4
  %7 = getelementptr inbounds { [0 x i8]*, i64 }, { [0 x i8]*, i64 }* %0, i32 0, i32 1, !dbg !1609
  %8 = load i64, i64* %7, align 8, !dbg !1609
  br label %bb1, !dbg !1609

bb1:                                              ; preds = %start
  %9 = insertvalue { [0 x i8]*, i64 } undef, [0 x i8]* %6, 0, !dbg !1610
  %10 = insertvalue { [0 x i8]*, i64 } %9, i64 %8, 1, !dbg !1610
  ret { [0 x i8]*, i64 } %10, !dbg !1610
}

; core::str::converts::from_utf8_unchecked_mut
; Function Attrs: inlinehint nounwind
define internal { [0 x i8]*, i64 } @_ZN4core3str8converts23from_utf8_unchecked_mut17h04ad1fdffc4613c6E([0 x i8]* nonnull align 1 %v.0, i64 %v.1) unnamed_addr #0 !dbg !1611 {
start:
  %v.dbg.spill = alloca { [0 x i8]*, i64 }, align 8
  %0 = getelementptr inbounds { [0 x i8]*, i64 }, { [0 x i8]*, i64 }* %v.dbg.spill, i32 0, i32 0
  store [0 x i8]* %v.0, [0 x i8]** %0, align 8
  %1 = getelementptr inbounds { [0 x i8]*, i64 }, { [0 x i8]*, i64 }* %v.dbg.spill, i32 0, i32 1
  store i64 %v.1, i64* %1, align 8
  call void @llvm.dbg.declare(metadata { [0 x i8]*, i64 }* %v.dbg.spill, metadata !1619, metadata !DIExpression()), !dbg !1620
  %2 = insertvalue { [0 x i8]*, i64 } undef, [0 x i8]* %v.0, 0, !dbg !1621
  %3 = insertvalue { [0 x i8]*, i64 } %2, i64 %v.1, 1, !dbg !1621
  ret { [0 x i8]*, i64 } %3, !dbg !1621
}

; core::char::methods::encode_utf8_raw
; Function Attrs: inlinehint nounwind
define internal { [0 x i8]*, i64 } @_ZN4core4char7methods15encode_utf8_raw17hc88509527eed04d1E(i32 %0, [0 x i8]* nonnull align 1 %dst.0, i64 %dst.1) unnamed_addr #0 !dbg !1622 {
start:
  %args.dbg.spill = alloca [3 x { i8*, i64* }]*, align 8
  %arg2.dbg.spill = alloca i64*, align 8
  %arg1.dbg.spill = alloca i32*, align 8
  %arg0.dbg.spill = alloca i64*, align 8
  %a.dbg.spill12 = alloca i8*, align 8
  %b.dbg.spill10 = alloca i8*, align 8
  %a.dbg.spill8 = alloca i8*, align 8
  %c.dbg.spill6 = alloca i8*, align 8
  %b.dbg.spill4 = alloca i8*, align 8
  %a.dbg.spill2 = alloca i8*, align 8
  %d.dbg.spill = alloca i8*, align 8
  %c.dbg.spill = alloca i8*, align 8
  %b.dbg.spill = alloca i8*, align 8
  %a.dbg.spill = alloca i8*, align 8
  %dst.dbg.spill = alloca { [0 x i8]*, i64 }, align 8
  %_97 = alloca i64, align 8
  %_74 = alloca i64, align 8
  %_70 = alloca { i64*, i32*, i64* }, align 8
  %_69 = alloca [3 x { i8*, i64* }], align 8
  %_68 = alloca %"std::fmt::Arguments", align 8
  %_6 = alloca { i64, { [0 x i8]*, i64 } }, align 8
  %len = alloca i64, align 8
  %code = alloca i32, align 4
  store i32 %0, i32* %code, align 4
  call void @llvm.dbg.declare(metadata i32* %code, metadata !1629, metadata !DIExpression()), !dbg !1661
  %1 = getelementptr inbounds { [0 x i8]*, i64 }, { [0 x i8]*, i64 }* %dst.dbg.spill, i32 0, i32 0
  store [0 x i8]* %dst.0, [0 x i8]** %1, align 8
  %2 = getelementptr inbounds { [0 x i8]*, i64 }, { [0 x i8]*, i64 }* %dst.dbg.spill, i32 0, i32 1
  store i64 %dst.1, i64* %2, align 8
  call void @llvm.dbg.declare(metadata { [0 x i8]*, i64 }* %dst.dbg.spill, metadata !1630, metadata !DIExpression()), !dbg !1662
  call void @llvm.dbg.declare(metadata i64* %len, metadata !1631, metadata !DIExpression()), !dbg !1663
  %_5 = load i32, i32* %code, align 4, !dbg !1664
; call core::char::methods::len_utf8
  %3 = call i64 @_ZN4core4char7methods8len_utf817hf67aeaafd98c6fbdE(i32 %_5), !dbg !1665
  store i64 %3, i64* %len, align 8, !dbg !1665
  br label %bb1, !dbg !1665

bb1:                                              ; preds = %start
  %_7 = load i64, i64* %len, align 8, !dbg !1666
; call core::slice::index::<impl core::ops::index::IndexMut<I> for [T]>::index_mut
  %4 = call { [0 x i8]*, i64 } @"_ZN4core5slice5index77_$LT$impl$u20$core..ops..index..IndexMut$LT$I$GT$$u20$for$u20$$u5b$T$u5d$$GT$9index_mut17hdc1e3b0d3cfc8407E"([0 x i8]* nonnull align 1 %dst.0, i64 %dst.1, %"std::panic::Location"* align 8 dereferenceable(24) bitcast (<{ i8*, [16 x i8] }>* @alloc284 to %"std::panic::Location"*)), !dbg !1667
  %_9.0 = extractvalue { [0 x i8]*, i64 } %4, 0, !dbg !1667
  %_9.1 = extractvalue { [0 x i8]*, i64 } %4, 1, !dbg !1667
  br label %bb2, !dbg !1667

bb2:                                              ; preds = %bb1
  %5 = bitcast { i64, { [0 x i8]*, i64 } }* %_6 to i64*, !dbg !1668
  store i64 %_7, i64* %5, align 8, !dbg !1668
  %6 = getelementptr inbounds { i64, { [0 x i8]*, i64 } }, { i64, { [0 x i8]*, i64 } }* %_6, i32 0, i32 1, !dbg !1668
  %7 = getelementptr inbounds { [0 x i8]*, i64 }, { [0 x i8]*, i64 }* %6, i32 0, i32 0, !dbg !1668
  store [0 x i8]* %_9.0, [0 x i8]** %7, align 8, !dbg !1668
  %8 = getelementptr inbounds { [0 x i8]*, i64 }, { [0 x i8]*, i64 }* %6, i32 0, i32 1, !dbg !1668
  store i64 %_9.1, i64* %8, align 8, !dbg !1668
  %9 = bitcast { i64, { [0 x i8]*, i64 } }* %_6 to i64*, !dbg !1669
  %10 = load i64, i64* %9, align 8, !dbg !1669
  switch i64 %10, label %bb4 [
    i64 1, label %bb3
    i64 2, label %bb5
    i64 3, label %bb6
    i64 4, label %bb7
  ], !dbg !1669

bb4:                                              ; preds = %bb3, %bb5, %bb6, %bb7, %bb2
  store i64 %dst.1, i64* %_74, align 8, !dbg !1670
  %11 = bitcast { i64*, i32*, i64* }* %_70 to i64**, !dbg !1671
  store i64* %len, i64** %11, align 8, !dbg !1671
  %12 = getelementptr inbounds { i64*, i32*, i64* }, { i64*, i32*, i64* }* %_70, i32 0, i32 1, !dbg !1671
  store i32* %code, i32** %12, align 8, !dbg !1671
  %13 = getelementptr inbounds { i64*, i32*, i64* }, { i64*, i32*, i64* }* %_70, i32 0, i32 2, !dbg !1671
  store i64* %_74, i64** %13, align 8, !dbg !1671
  %14 = bitcast { i64*, i32*, i64* }* %_70 to i64**, !dbg !1671
  %arg0 = load i64*, i64** %14, align 8, !dbg !1671, !nonnull !4
  store i64* %arg0, i64** %arg0.dbg.spill, align 8, !dbg !1671
  call void @llvm.dbg.declare(metadata i64** %arg0.dbg.spill, metadata !1648, metadata !DIExpression()), !dbg !1672
  %15 = getelementptr inbounds { i64*, i32*, i64* }, { i64*, i32*, i64* }* %_70, i32 0, i32 1, !dbg !1671
  %arg1 = load i32*, i32** %15, align 8, !dbg !1671, !nonnull !4
  store i32* %arg1, i32** %arg1.dbg.spill, align 8, !dbg !1671
  call void @llvm.dbg.declare(metadata i32** %arg1.dbg.spill, metadata !1653, metadata !DIExpression()), !dbg !1672
  %16 = getelementptr inbounds { i64*, i32*, i64* }, { i64*, i32*, i64* }* %_70, i32 0, i32 2, !dbg !1671
  %arg2 = load i64*, i64** %16, align 8, !dbg !1671, !nonnull !4
  store i64* %arg2, i64** %arg2.dbg.spill, align 8, !dbg !1671
  call void @llvm.dbg.declare(metadata i64** %arg2.dbg.spill, metadata !1655, metadata !DIExpression()), !dbg !1672
; call core::fmt::ArgumentV1::new
  %17 = call { i8*, i64* } @_ZN4core3fmt10ArgumentV13new17h8663e96de68d35c7E(i64* align 8 dereferenceable(8) %arg0, i1 (i64*, %"std::fmt::Formatter"*)* nonnull @"_ZN4core3fmt3num3imp54_$LT$impl$u20$core..fmt..Display$u20$for$u20$usize$GT$3fmt17hcb6674a6899bd26aE"), !dbg !1672
  %_79.0 = extractvalue { i8*, i64* } %17, 0, !dbg !1672
  %_79.1 = extractvalue { i8*, i64* } %17, 1, !dbg !1672
  br label %bb12, !dbg !1672

bb3:                                              ; preds = %bb2
  %18 = getelementptr inbounds { i64, { [0 x i8]*, i64 } }, { i64, { [0 x i8]*, i64 } }* %_6, i32 0, i32 1, !dbg !1673
  %19 = getelementptr inbounds { [0 x i8]*, i64 }, { [0 x i8]*, i64 }* %18, i32 0, i32 0, !dbg !1673
  %20 = load [0 x i8]*, [0 x i8]** %19, align 8, !dbg !1673, !nonnull !4
  %21 = getelementptr inbounds { [0 x i8]*, i64 }, { [0 x i8]*, i64 }* %18, i32 0, i32 1, !dbg !1673
  %_12 = load i64, i64* %21, align 8, !dbg !1673
  %_14 = icmp uge i64 %_12, 1, !dbg !1673
  br i1 %_14, label %bb8, label %bb4, !dbg !1673

bb5:                                              ; preds = %bb2
  %22 = getelementptr inbounds { i64, { [0 x i8]*, i64 } }, { i64, { [0 x i8]*, i64 } }* %_6, i32 0, i32 1, !dbg !1674
  %23 = getelementptr inbounds { [0 x i8]*, i64 }, { [0 x i8]*, i64 }* %22, i32 0, i32 0, !dbg !1674
  %24 = load [0 x i8]*, [0 x i8]** %23, align 8, !dbg !1674, !nonnull !4
  %25 = getelementptr inbounds { [0 x i8]*, i64 }, { [0 x i8]*, i64 }* %22, i32 0, i32 1, !dbg !1674
  %_15 = load i64, i64* %25, align 8, !dbg !1674
  %_17 = icmp uge i64 %_15, 2, !dbg !1674
  br i1 %_17, label %bb9, label %bb4, !dbg !1674

bb6:                                              ; preds = %bb2
  %26 = getelementptr inbounds { i64, { [0 x i8]*, i64 } }, { i64, { [0 x i8]*, i64 } }* %_6, i32 0, i32 1, !dbg !1675
  %27 = getelementptr inbounds { [0 x i8]*, i64 }, { [0 x i8]*, i64 }* %26, i32 0, i32 0, !dbg !1675
  %28 = load [0 x i8]*, [0 x i8]** %27, align 8, !dbg !1675, !nonnull !4
  %29 = getelementptr inbounds { [0 x i8]*, i64 }, { [0 x i8]*, i64 }* %26, i32 0, i32 1, !dbg !1675
  %_18 = load i64, i64* %29, align 8, !dbg !1675
  %_20 = icmp uge i64 %_18, 3, !dbg !1675
  br i1 %_20, label %bb10, label %bb4, !dbg !1675

bb7:                                              ; preds = %bb2
  %30 = getelementptr inbounds { i64, { [0 x i8]*, i64 } }, { i64, { [0 x i8]*, i64 } }* %_6, i32 0, i32 1, !dbg !1676
  %31 = getelementptr inbounds { [0 x i8]*, i64 }, { [0 x i8]*, i64 }* %30, i32 0, i32 0, !dbg !1676
  %32 = load [0 x i8]*, [0 x i8]** %31, align 8, !dbg !1676, !nonnull !4
  %33 = getelementptr inbounds { [0 x i8]*, i64 }, { [0 x i8]*, i64 }* %30, i32 0, i32 1, !dbg !1676
  %_21 = load i64, i64* %33, align 8, !dbg !1676
  %_23 = icmp uge i64 %_21, 4, !dbg !1676
  br i1 %_23, label %bb11, label %bb4, !dbg !1676

bb11:                                             ; preds = %bb7
  %34 = getelementptr inbounds { i64, { [0 x i8]*, i64 } }, { i64, { [0 x i8]*, i64 } }* %_6, i32 0, i32 1, !dbg !1677
  %35 = getelementptr inbounds { [0 x i8]*, i64 }, { [0 x i8]*, i64 }* %34, i32 0, i32 0, !dbg !1677
  %36 = load [0 x i8]*, [0 x i8]** %35, align 8, !dbg !1677, !nonnull !4
  %37 = getelementptr inbounds { [0 x i8]*, i64 }, { [0 x i8]*, i64 }* %34, i32 0, i32 1, !dbg !1677
  %38 = load i64, i64* %37, align 8, !dbg !1677
  %a = getelementptr inbounds [0 x i8], [0 x i8]* %36, i64 0, i64 0, !dbg !1677
  store i8* %a, i8** %a.dbg.spill, align 8, !dbg !1677
  call void @llvm.dbg.declare(metadata i8** %a.dbg.spill, metadata !1643, metadata !DIExpression()), !dbg !1678
  %39 = getelementptr inbounds { i64, { [0 x i8]*, i64 } }, { i64, { [0 x i8]*, i64 } }* %_6, i32 0, i32 1, !dbg !1679
  %40 = getelementptr inbounds { [0 x i8]*, i64 }, { [0 x i8]*, i64 }* %39, i32 0, i32 0, !dbg !1679
  %41 = load [0 x i8]*, [0 x i8]** %40, align 8, !dbg !1679, !nonnull !4
  %42 = getelementptr inbounds { [0 x i8]*, i64 }, { [0 x i8]*, i64 }* %39, i32 0, i32 1, !dbg !1679
  %43 = load i64, i64* %42, align 8, !dbg !1679
  %b = getelementptr inbounds [0 x i8], [0 x i8]* %41, i64 0, i64 1, !dbg !1679
  store i8* %b, i8** %b.dbg.spill, align 8, !dbg !1679
  call void @llvm.dbg.declare(metadata i8** %b.dbg.spill, metadata !1645, metadata !DIExpression()), !dbg !1680
  %44 = getelementptr inbounds { i64, { [0 x i8]*, i64 } }, { i64, { [0 x i8]*, i64 } }* %_6, i32 0, i32 1, !dbg !1681
  %45 = getelementptr inbounds { [0 x i8]*, i64 }, { [0 x i8]*, i64 }* %44, i32 0, i32 0, !dbg !1681
  %46 = load [0 x i8]*, [0 x i8]** %45, align 8, !dbg !1681, !nonnull !4
  %47 = getelementptr inbounds { [0 x i8]*, i64 }, { [0 x i8]*, i64 }* %44, i32 0, i32 1, !dbg !1681
  %48 = load i64, i64* %47, align 8, !dbg !1681
  %c = getelementptr inbounds [0 x i8], [0 x i8]* %46, i64 0, i64 2, !dbg !1681
  store i8* %c, i8** %c.dbg.spill, align 8, !dbg !1681
  call void @llvm.dbg.declare(metadata i8** %c.dbg.spill, metadata !1646, metadata !DIExpression()), !dbg !1682
  %49 = getelementptr inbounds { i64, { [0 x i8]*, i64 } }, { i64, { [0 x i8]*, i64 } }* %_6, i32 0, i32 1, !dbg !1683
  %50 = getelementptr inbounds { [0 x i8]*, i64 }, { [0 x i8]*, i64 }* %49, i32 0, i32 0, !dbg !1683
  %51 = load [0 x i8]*, [0 x i8]** %50, align 8, !dbg !1683, !nonnull !4
  %52 = getelementptr inbounds { [0 x i8]*, i64 }, { [0 x i8]*, i64 }* %49, i32 0, i32 1, !dbg !1683
  %53 = load i64, i64* %52, align 8, !dbg !1683
  %d = getelementptr inbounds [0 x i8], [0 x i8]* %51, i64 0, i64 3, !dbg !1683
  store i8* %d, i8** %d.dbg.spill, align 8, !dbg !1683
  call void @llvm.dbg.declare(metadata i8** %d.dbg.spill, metadata !1647, metadata !DIExpression()), !dbg !1684
  %_56 = load i32, i32* %code, align 4, !dbg !1685
  %_55 = lshr i32 %_56, 18, !dbg !1685
  %_54 = and i32 %_55, 7, !dbg !1686
  %_53 = trunc i32 %_54 to i8, !dbg !1686
  %54 = or i8 %_53, -16, !dbg !1687
  store i8 %54, i8* %a, align 1, !dbg !1687
  %_60 = load i32, i32* %code, align 4, !dbg !1688
  %_59 = lshr i32 %_60, 12, !dbg !1688
  %_58 = and i32 %_59, 63, !dbg !1689
  %_57 = trunc i32 %_58 to i8, !dbg !1689
  %55 = or i8 %_57, -128, !dbg !1690
  store i8 %55, i8* %b, align 1, !dbg !1690
  %_64 = load i32, i32* %code, align 4, !dbg !1691
  %_63 = lshr i32 %_64, 6, !dbg !1691
  %_62 = and i32 %_63, 63, !dbg !1692
  %_61 = trunc i32 %_62 to i8, !dbg !1692
  %56 = or i8 %_61, -128, !dbg !1693
  store i8 %56, i8* %c, align 1, !dbg !1693
  %_67 = load i32, i32* %code, align 4, !dbg !1694
  %_66 = and i32 %_67, 63, !dbg !1695
  %_65 = trunc i32 %_66 to i8, !dbg !1695
  %57 = or i8 %_65, -128, !dbg !1696
  store i8 %57, i8* %d, align 1, !dbg !1696
  br label %bb16, !dbg !1697

bb16:                                             ; preds = %bb8, %bb9, %bb10, %bb11
  %_98 = load i64, i64* %len, align 8, !dbg !1698
  store i64 %_98, i64* %_97, align 8, !dbg !1699
  %58 = load i64, i64* %_97, align 8, !dbg !1700
; call core::slice::index::<impl core::ops::index::IndexMut<I> for [T]>::index_mut
  %59 = call { [0 x i8]*, i64 } @"_ZN4core5slice5index77_$LT$impl$u20$core..ops..index..IndexMut$LT$I$GT$$u20$for$u20$$u5b$T$u5d$$GT$9index_mut17ha88eac6bdddcd5f9E"([0 x i8]* nonnull align 1 %dst.0, i64 %dst.1, i64 %58, %"std::panic::Location"* align 8 dereferenceable(24) bitcast (<{ i8*, [16 x i8] }>* @alloc286 to %"std::panic::Location"*)), !dbg !1700
  %_95.0 = extractvalue { [0 x i8]*, i64 } %59, 0, !dbg !1700
  %_95.1 = extractvalue { [0 x i8]*, i64 } %59, 1, !dbg !1700
  br label %bb17, !dbg !1700

bb10:                                             ; preds = %bb6
  %60 = getelementptr inbounds { i64, { [0 x i8]*, i64 } }, { i64, { [0 x i8]*, i64 } }* %_6, i32 0, i32 1, !dbg !1701
  %61 = getelementptr inbounds { [0 x i8]*, i64 }, { [0 x i8]*, i64 }* %60, i32 0, i32 0, !dbg !1701
  %62 = load [0 x i8]*, [0 x i8]** %61, align 8, !dbg !1701, !nonnull !4
  %63 = getelementptr inbounds { [0 x i8]*, i64 }, { [0 x i8]*, i64 }* %60, i32 0, i32 1, !dbg !1701
  %64 = load i64, i64* %63, align 8, !dbg !1701
  %a1 = getelementptr inbounds [0 x i8], [0 x i8]* %62, i64 0, i64 0, !dbg !1701
  store i8* %a1, i8** %a.dbg.spill2, align 8, !dbg !1701
  call void @llvm.dbg.declare(metadata i8** %a.dbg.spill2, metadata !1639, metadata !DIExpression()), !dbg !1702
  %65 = getelementptr inbounds { i64, { [0 x i8]*, i64 } }, { i64, { [0 x i8]*, i64 } }* %_6, i32 0, i32 1, !dbg !1703
  %66 = getelementptr inbounds { [0 x i8]*, i64 }, { [0 x i8]*, i64 }* %65, i32 0, i32 0, !dbg !1703
  %67 = load [0 x i8]*, [0 x i8]** %66, align 8, !dbg !1703, !nonnull !4
  %68 = getelementptr inbounds { [0 x i8]*, i64 }, { [0 x i8]*, i64 }* %65, i32 0, i32 1, !dbg !1703
  %69 = load i64, i64* %68, align 8, !dbg !1703
  %b3 = getelementptr inbounds [0 x i8], [0 x i8]* %67, i64 0, i64 1, !dbg !1703
  store i8* %b3, i8** %b.dbg.spill4, align 8, !dbg !1703
  call void @llvm.dbg.declare(metadata i8** %b.dbg.spill4, metadata !1641, metadata !DIExpression()), !dbg !1704
  %70 = getelementptr inbounds { i64, { [0 x i8]*, i64 } }, { i64, { [0 x i8]*, i64 } }* %_6, i32 0, i32 1, !dbg !1705
  %71 = getelementptr inbounds { [0 x i8]*, i64 }, { [0 x i8]*, i64 }* %70, i32 0, i32 0, !dbg !1705
  %72 = load [0 x i8]*, [0 x i8]** %71, align 8, !dbg !1705, !nonnull !4
  %73 = getelementptr inbounds { [0 x i8]*, i64 }, { [0 x i8]*, i64 }* %70, i32 0, i32 1, !dbg !1705
  %74 = load i64, i64* %73, align 8, !dbg !1705
  %c5 = getelementptr inbounds [0 x i8], [0 x i8]* %72, i64 0, i64 2, !dbg !1705
  store i8* %c5, i8** %c.dbg.spill6, align 8, !dbg !1705
  call void @llvm.dbg.declare(metadata i8** %c.dbg.spill6, metadata !1642, metadata !DIExpression()), !dbg !1706
  %_41 = load i32, i32* %code, align 4, !dbg !1707
  %_40 = lshr i32 %_41, 12, !dbg !1707
  %_39 = and i32 %_40, 15, !dbg !1708
  %_38 = trunc i32 %_39 to i8, !dbg !1708
  %75 = or i8 %_38, -32, !dbg !1709
  store i8 %75, i8* %a1, align 1, !dbg !1709
  %_45 = load i32, i32* %code, align 4, !dbg !1710
  %_44 = lshr i32 %_45, 6, !dbg !1710
  %_43 = and i32 %_44, 63, !dbg !1711
  %_42 = trunc i32 %_43 to i8, !dbg !1711
  %76 = or i8 %_42, -128, !dbg !1712
  store i8 %76, i8* %b3, align 1, !dbg !1712
  %_48 = load i32, i32* %code, align 4, !dbg !1713
  %_47 = and i32 %_48, 63, !dbg !1714
  %_46 = trunc i32 %_47 to i8, !dbg !1714
  %77 = or i8 %_46, -128, !dbg !1715
  store i8 %77, i8* %c5, align 1, !dbg !1715
  br label %bb16, !dbg !1716

bb9:                                              ; preds = %bb5
  %78 = getelementptr inbounds { i64, { [0 x i8]*, i64 } }, { i64, { [0 x i8]*, i64 } }* %_6, i32 0, i32 1, !dbg !1717
  %79 = getelementptr inbounds { [0 x i8]*, i64 }, { [0 x i8]*, i64 }* %78, i32 0, i32 0, !dbg !1717
  %80 = load [0 x i8]*, [0 x i8]** %79, align 8, !dbg !1717, !nonnull !4
  %81 = getelementptr inbounds { [0 x i8]*, i64 }, { [0 x i8]*, i64 }* %78, i32 0, i32 1, !dbg !1717
  %82 = load i64, i64* %81, align 8, !dbg !1717
  %a7 = getelementptr inbounds [0 x i8], [0 x i8]* %80, i64 0, i64 0, !dbg !1717
  store i8* %a7, i8** %a.dbg.spill8, align 8, !dbg !1717
  call void @llvm.dbg.declare(metadata i8** %a.dbg.spill8, metadata !1636, metadata !DIExpression()), !dbg !1718
  %83 = getelementptr inbounds { i64, { [0 x i8]*, i64 } }, { i64, { [0 x i8]*, i64 } }* %_6, i32 0, i32 1, !dbg !1719
  %84 = getelementptr inbounds { [0 x i8]*, i64 }, { [0 x i8]*, i64 }* %83, i32 0, i32 0, !dbg !1719
  %85 = load [0 x i8]*, [0 x i8]** %84, align 8, !dbg !1719, !nonnull !4
  %86 = getelementptr inbounds { [0 x i8]*, i64 }, { [0 x i8]*, i64 }* %83, i32 0, i32 1, !dbg !1719
  %87 = load i64, i64* %86, align 8, !dbg !1719
  %b9 = getelementptr inbounds [0 x i8], [0 x i8]* %85, i64 0, i64 1, !dbg !1719
  store i8* %b9, i8** %b.dbg.spill10, align 8, !dbg !1719
  call void @llvm.dbg.declare(metadata i8** %b.dbg.spill10, metadata !1638, metadata !DIExpression()), !dbg !1720
  %_31 = load i32, i32* %code, align 4, !dbg !1721
  %_30 = lshr i32 %_31, 6, !dbg !1721
  %_29 = and i32 %_30, 31, !dbg !1722
  %_28 = trunc i32 %_29 to i8, !dbg !1722
  %88 = or i8 %_28, -64, !dbg !1723
  store i8 %88, i8* %a7, align 1, !dbg !1723
  %_34 = load i32, i32* %code, align 4, !dbg !1724
  %_33 = and i32 %_34, 63, !dbg !1725
  %_32 = trunc i32 %_33 to i8, !dbg !1725
  %89 = or i8 %_32, -128, !dbg !1726
  store i8 %89, i8* %b9, align 1, !dbg !1726
  br label %bb16, !dbg !1727

bb8:                                              ; preds = %bb3
  %90 = getelementptr inbounds { i64, { [0 x i8]*, i64 } }, { i64, { [0 x i8]*, i64 } }* %_6, i32 0, i32 1, !dbg !1728
  %91 = getelementptr inbounds { [0 x i8]*, i64 }, { [0 x i8]*, i64 }* %90, i32 0, i32 0, !dbg !1728
  %92 = load [0 x i8]*, [0 x i8]** %91, align 8, !dbg !1728, !nonnull !4
  %93 = getelementptr inbounds { [0 x i8]*, i64 }, { [0 x i8]*, i64 }* %90, i32 0, i32 1, !dbg !1728
  %94 = load i64, i64* %93, align 8, !dbg !1728
  %a11 = getelementptr inbounds [0 x i8], [0 x i8]* %92, i64 0, i64 0, !dbg !1728
  store i8* %a11, i8** %a.dbg.spill12, align 8, !dbg !1728
  call void @llvm.dbg.declare(metadata i8** %a.dbg.spill12, metadata !1633, metadata !DIExpression()), !dbg !1729
  %_25 = load i32, i32* %code, align 4, !dbg !1730
  %95 = trunc i32 %_25 to i8, !dbg !1731
  store i8 %95, i8* %a11, align 1, !dbg !1731
  br label %bb16, !dbg !1732

bb17:                                             ; preds = %bb16
  %96 = insertvalue { [0 x i8]*, i64 } undef, [0 x i8]* %_95.0, 0, !dbg !1733
  %97 = insertvalue { [0 x i8]*, i64 } %96, i64 %_95.1, 1, !dbg !1733
  ret { [0 x i8]*, i64 } %97, !dbg !1733

bb12:                                             ; preds = %bb4
; call core::fmt::ArgumentV1::new
  %98 = call { i8*, i64* } @_ZN4core3fmt10ArgumentV13new17hc30476aaa1281131E(i32* align 4 dereferenceable(4) %arg1, i1 (i32*, %"std::fmt::Formatter"*)* nonnull @"_ZN4core3fmt3num53_$LT$impl$u20$core..fmt..UpperHex$u20$for$u20$u32$GT$3fmt17he08b501005a636f1E"), !dbg !1672
  %_82.0 = extractvalue { i8*, i64* } %98, 0, !dbg !1672
  %_82.1 = extractvalue { i8*, i64* } %98, 1, !dbg !1672
  br label %bb13, !dbg !1672

bb13:                                             ; preds = %bb12
; call core::fmt::ArgumentV1::new
  %99 = call { i8*, i64* } @_ZN4core3fmt10ArgumentV13new17h8663e96de68d35c7E(i64* align 8 dereferenceable(8) %arg2, i1 (i64*, %"std::fmt::Formatter"*)* nonnull @"_ZN4core3fmt3num3imp54_$LT$impl$u20$core..fmt..Display$u20$for$u20$usize$GT$3fmt17hcb6674a6899bd26aE"), !dbg !1672
  %_85.0 = extractvalue { i8*, i64* } %99, 0, !dbg !1672
  %_85.1 = extractvalue { i8*, i64* } %99, 1, !dbg !1672
  br label %bb14, !dbg !1672

bb14:                                             ; preds = %bb13
  %100 = bitcast [3 x { i8*, i64* }]* %_69 to { i8*, i64* }*, !dbg !1672
  %101 = getelementptr inbounds { i8*, i64* }, { i8*, i64* }* %100, i32 0, i32 0, !dbg !1672
  store i8* %_79.0, i8** %101, align 8, !dbg !1672
  %102 = getelementptr inbounds { i8*, i64* }, { i8*, i64* }* %100, i32 0, i32 1, !dbg !1672
  store i64* %_79.1, i64** %102, align 8, !dbg !1672
  %103 = getelementptr inbounds [3 x { i8*, i64* }], [3 x { i8*, i64* }]* %_69, i32 0, i32 1, !dbg !1672
  %104 = getelementptr inbounds { i8*, i64* }, { i8*, i64* }* %103, i32 0, i32 0, !dbg !1672
  store i8* %_82.0, i8** %104, align 8, !dbg !1672
  %105 = getelementptr inbounds { i8*, i64* }, { i8*, i64* }* %103, i32 0, i32 1, !dbg !1672
  store i64* %_82.1, i64** %105, align 8, !dbg !1672
  %106 = getelementptr inbounds [3 x { i8*, i64* }], [3 x { i8*, i64* }]* %_69, i32 0, i32 2, !dbg !1672
  %107 = getelementptr inbounds { i8*, i64* }, { i8*, i64* }* %106, i32 0, i32 0, !dbg !1672
  store i8* %_85.0, i8** %107, align 8, !dbg !1672
  %108 = getelementptr inbounds { i8*, i64* }, { i8*, i64* }* %106, i32 0, i32 1, !dbg !1672
  store i64* %_85.1, i64** %108, align 8, !dbg !1672
  store [3 x { i8*, i64* }]* %_69, [3 x { i8*, i64* }]** %args.dbg.spill, align 8, !dbg !1671
  call void @llvm.dbg.declare(metadata [3 x { i8*, i64* }]** %args.dbg.spill, metadata !1656, metadata !DIExpression()), !dbg !1734
  %_92.0 = bitcast [3 x { i8*, i64* }]* %_69 to [0 x { i8*, i64* }]*, !dbg !1734
; call core::fmt::Arguments::new_v1
  call void @_ZN4core3fmt9Arguments6new_v117h59eb2fc36a60fc94E(%"std::fmt::Arguments"* noalias nocapture sret(%"std::fmt::Arguments") dereferenceable(48) %_68, [0 x { [0 x i8]*, i64 }]* nonnull align 8 bitcast (<{ i8*, [8 x i8], i8*, [8 x i8], i8*, [8 x i8] }>* @alloc218 to [0 x { [0 x i8]*, i64 }]*), i64 3, [0 x { i8*, i64* }]* nonnull align 8 %_92.0, i64 3), !dbg !1734
  br label %bb15, !dbg !1734

bb15:                                             ; preds = %bb14
; call core::panicking::panic_fmt
  call void @_ZN4core9panicking9panic_fmt17hce311da8346422ccE(%"std::fmt::Arguments"* noalias nocapture dereferenceable(48) %_68, %"std::panic::Location"* align 8 dereferenceable(24) bitcast (<{ i8*, [16 x i8] }>* @alloc288 to %"std::panic::Location"*)), !dbg !1671
  unreachable, !dbg !1671
}

; core::char::methods::<impl char>::encode_utf8
; Function Attrs: inlinehint nounwind
define internal { [0 x i8]*, i64 } @"_ZN4core4char7methods22_$LT$impl$u20$char$GT$11encode_utf817h1329bc01cf05b76bE"(i32 %self, [0 x i8]* nonnull align 1 %dst.0, i64 %dst.1) unnamed_addr #0 !dbg !1735 {
start:
  %dst.dbg.spill = alloca { [0 x i8]*, i64 }, align 8
  %self.dbg.spill = alloca i32, align 4
  store i32 %self, i32* %self.dbg.spill, align 4
  call void @llvm.dbg.declare(metadata i32* %self.dbg.spill, metadata !1740, metadata !DIExpression()), !dbg !1742
  %0 = getelementptr inbounds { [0 x i8]*, i64 }, { [0 x i8]*, i64 }* %dst.dbg.spill, i32 0, i32 0
  store [0 x i8]* %dst.0, [0 x i8]** %0, align 8
  %1 = getelementptr inbounds { [0 x i8]*, i64 }, { [0 x i8]*, i64 }* %dst.dbg.spill, i32 0, i32 1
  store i64 %dst.1, i64* %1, align 8
  call void @llvm.dbg.declare(metadata { [0 x i8]*, i64 }* %dst.dbg.spill, metadata !1741, metadata !DIExpression()), !dbg !1743
  %2 = icmp ule i32 %self, 1114111, !dbg !1744
  call void @llvm.assume(i1 %2), !dbg !1744
; call core::char::methods::encode_utf8_raw
  %3 = call { [0 x i8]*, i64 } @_ZN4core4char7methods15encode_utf8_raw17hc88509527eed04d1E(i32 %self, [0 x i8]* nonnull align 1 %dst.0, i64 %dst.1), !dbg !1745
  %_7.0 = extractvalue { [0 x i8]*, i64 } %3, 0, !dbg !1745
  %_7.1 = extractvalue { [0 x i8]*, i64 } %3, 1, !dbg !1745
  br label %bb1, !dbg !1745

bb1:                                              ; preds = %start
; call core::str::converts::from_utf8_unchecked_mut
  %4 = call { [0 x i8]*, i64 } @_ZN4core3str8converts23from_utf8_unchecked_mut17h04ad1fdffc4613c6E([0 x i8]* nonnull align 1 %_7.0, i64 %_7.1), !dbg !1746
  %_5.0 = extractvalue { [0 x i8]*, i64 } %4, 0, !dbg !1746
  %_5.1 = extractvalue { [0 x i8]*, i64 } %4, 1, !dbg !1746
  br label %bb2, !dbg !1746

bb2:                                              ; preds = %bb1
  %5 = insertvalue { [0 x i8]*, i64 } undef, [0 x i8]* %_5.0, 0, !dbg !1747
  %6 = insertvalue { [0 x i8]*, i64 } %5, i64 %_5.1, 1, !dbg !1747
  ret { [0 x i8]*, i64 } %6, !dbg !1747
}

; core::char::methods::<impl char>::len_utf8
; Function Attrs: inlinehint nounwind
define internal i64 @"_ZN4core4char7methods22_$LT$impl$u20$char$GT$8len_utf817h70e95e64c7254699E"(i32 %self) unnamed_addr #0 !dbg !1748 {
start:
  %self.dbg.spill = alloca i32, align 4
  store i32 %self, i32* %self.dbg.spill, align 4
  call void @llvm.dbg.declare(metadata i32* %self.dbg.spill, metadata !1752, metadata !DIExpression()), !dbg !1753
  %0 = icmp ule i32 %self, 1114111, !dbg !1754
  call void @llvm.assume(i1 %0), !dbg !1754
; call core::char::methods::len_utf8
  %1 = call i64 @_ZN4core4char7methods8len_utf817hf67aeaafd98c6fbdE(i32 %self), !dbg !1755
  br label %bb1, !dbg !1755

bb1:                                              ; preds = %start
  ret i64 %1, !dbg !1756
}

; core::char::methods::len_utf8
; Function Attrs: inlinehint nounwind
define internal i64 @_ZN4core4char7methods8len_utf817hf67aeaafd98c6fbdE(i32 %code) unnamed_addr #0 !dbg !1757 {
start:
  %code.dbg.spill = alloca i32, align 4
  %0 = alloca i64, align 8
  store i32 %code, i32* %code.dbg.spill, align 4
  call void @llvm.dbg.declare(metadata i32* %code.dbg.spill, metadata !1761, metadata !DIExpression()), !dbg !1762
  %_2 = icmp ult i32 %code, 128, !dbg !1763
  br i1 %_2, label %bb1, label %bb2, !dbg !1763

bb2:                                              ; preds = %start
  %_4 = icmp ult i32 %code, 2048, !dbg !1764
  br i1 %_4, label %bb3, label %bb4, !dbg !1764

bb1:                                              ; preds = %start
  store i64 1, i64* %0, align 8, !dbg !1765
  br label %bb9, !dbg !1766

bb9:                                              ; preds = %bb8, %bb1
  %1 = load i64, i64* %0, align 8, !dbg !1767
  ret i64 %1, !dbg !1767

bb4:                                              ; preds = %bb2
  %_6 = icmp ult i32 %code, 65536, !dbg !1768
  br i1 %_6, label %bb5, label %bb6, !dbg !1768

bb3:                                              ; preds = %bb2
  store i64 2, i64* %0, align 8, !dbg !1769
  br label %bb8, !dbg !1770

bb8:                                              ; preds = %bb7, %bb3
  br label %bb9, !dbg !1766

bb6:                                              ; preds = %bb4
  store i64 4, i64* %0, align 8, !dbg !1771
  br label %bb7, !dbg !1772

bb5:                                              ; preds = %bb4
  store i64 3, i64* %0, align 8, !dbg !1773
  br label %bb7, !dbg !1772

bb7:                                              ; preds = %bb6, %bb5
  br label %bb8, !dbg !1770
}

; core::iter::traits::exact_size::ExactSizeIterator::len
; Function Attrs: inlinehint nounwind
define i64 @_ZN4core4iter6traits10exact_size17ExactSizeIterator3len17h0faf1adb86ff7cbfE(%"std::vec::IntoIter<u8>"* align 8 dereferenceable(32) %self) unnamed_addr #0 !dbg !1774 {
start:
  %right_val.dbg.spill = alloca { i64, i64 }*, align 8
  %left_val.dbg.spill = alloca { i64, i64 }*, align 8
  %lower.dbg.spill = alloca i64, align 8
  %self.dbg.spill = alloca %"std::vec::IntoIter<u8>"*, align 8
  %_22 = alloca %"std::option::Option<std::fmt::Arguments>", align 8
  %kind = alloca i8, align 1
  %_8 = alloca { i64, i64 }, align 8
  %_5 = alloca { i64*, i64* }, align 8
  %_3 = alloca { i64, { i64, i64 } }, align 8
  %upper = alloca { i64, i64 }, align 8
  store %"std::vec::IntoIter<u8>"* %self, %"std::vec::IntoIter<u8>"** %self.dbg.spill, align 8
  call void @llvm.dbg.declare(metadata %"std::vec::IntoIter<u8>"** %self.dbg.spill, metadata !1783, metadata !DIExpression()), !dbg !1798
  call void @llvm.dbg.declare(metadata { i64, i64 }* %upper, metadata !1786, metadata !DIExpression()), !dbg !1799
  call void @llvm.dbg.declare(metadata i8* %kind, metadata !1793, metadata !DIExpression()), !dbg !1800
; call <alloc::vec::into_iter::IntoIter<T,A> as core::iter::traits::iterator::Iterator>::size_hint
  call void @"_ZN103_$LT$alloc..vec..into_iter..IntoIter$LT$T$C$A$GT$$u20$as$u20$core..iter..traits..iterator..Iterator$GT$9size_hint17h196d13d64ad0d711E"({ i64, { i64, i64 } }* noalias nocapture sret({ i64, { i64, i64 } }) dereferenceable(24) %_3, %"std::vec::IntoIter<u8>"* align 8 dereferenceable(32) %self), !dbg !1801
  br label %bb1, !dbg !1801

bb1:                                              ; preds = %start
  %0 = bitcast { i64, { i64, i64 } }* %_3 to i64*, !dbg !1802
  %lower = load i64, i64* %0, align 8, !dbg !1802
  store i64 %lower, i64* %lower.dbg.spill, align 8, !dbg !1802
  call void @llvm.dbg.declare(metadata i64* %lower.dbg.spill, metadata !1784, metadata !DIExpression()), !dbg !1803
  %1 = getelementptr inbounds { i64, { i64, i64 } }, { i64, { i64, i64 } }* %_3, i32 0, i32 1, !dbg !1804
  %2 = getelementptr inbounds { i64, i64 }, { i64, i64 }* %1, i32 0, i32 0, !dbg !1804
  %3 = load i64, i64* %2, align 8, !dbg !1804, !range !302
  %4 = getelementptr inbounds { i64, i64 }, { i64, i64 }* %1, i32 0, i32 1, !dbg !1804
  %5 = load i64, i64* %4, align 8, !dbg !1804
  %6 = getelementptr inbounds { i64, i64 }, { i64, i64 }* %upper, i32 0, i32 0, !dbg !1804
  store i64 %3, i64* %6, align 8, !dbg !1804
  %7 = getelementptr inbounds { i64, i64 }, { i64, i64 }* %upper, i32 0, i32 1, !dbg !1804
  store i64 %5, i64* %7, align 8, !dbg !1804
  %8 = bitcast { i64, i64 }* %_8 to %"std::option::Option<usize>::Some"*, !dbg !1805
  %9 = getelementptr inbounds %"std::option::Option<usize>::Some", %"std::option::Option<usize>::Some"* %8, i32 0, i32 1, !dbg !1805
  store i64 %lower, i64* %9, align 8, !dbg !1805
  %10 = bitcast { i64, i64 }* %_8 to i64*, !dbg !1805
